hd:_glClearStencil
NWe:_Array_InternalArray__ICollection_Add_TisMark_t2724874473_m1613484179_gshared
aZc:__ZN5physx2Gu19gjkLocalPenetrationINS0_8CapsuleVENS0_17ShrunkConvexHullVEEEjRKT_RKT0_RKNS_6shdfnd3aos6FloatVERNSB_5Vec3VESG_SG_RSC_PhSI_Rhb
HRi:__ZL80Graphic_t2426225576_CustomAttributesCacheGenerator_Graphic_OnFillVBO_m1723985607P21CustomAttributesCache
BPh:_RuntimeTypeHandle_GetObjectData_m3567098501
c2b:__ZN12ShaderErrors21AddShaderCompileErrorERKNSt3__212basic_stringIcNS0_11char_traitsIcEENS0_9allocatorIcEEEEib
glb:__ZN18StreamedBinaryReadILb1EE21TransferSTLStyleArrayIN4core12basic_stringIcNS2_20StringStorageDefaultIcEEEEEEvRT_17TransferMetaFlags
Unl:__ZN6il2cpp2vm5Array13GetByteLengthEP11Il2CppArray
aGj:_Raycast3DCallback_BeginInvoke_m3028685017
QHh:_EqualityComparer_1__cctor_m968537130_gshared
Vrk:_TextGenerator_get_lineCount_m4287181941
oLi:__ZL93GUILayout_t2579273657_CustomAttributesCacheGenerator_GUILayout_Button_m3322709003____options1P21CustomAttributesCache
nhj:__Z37RuntimeInvoker_Enumerator_t1593300101PK10MethodInfoPvPS2_
cVj:_UInt64_System_IConvertible_ToDecimal_m4205696037
RBl:_mbrlen
hCj:_GameObject_Internal_AddComponentWithType_m214735204
$G:__ZN10StateRange8TransferI14SafeBinaryReadEEvRT_
dGa:__Z21SourceMipLevelForBlitiiii
tob:__ZN31CanvasBatchIntermediateRenderer15AddAsRenderNodeER15RenderNodeQueueRK20DeprecatedSourceData
pYh:_GenericTypeParameterBuilder_GetEvent_m4210567427
Ejg:__ZN16VirtFuncInvoker0IP17Camera_t189460977E6InvokeEjPv
Txf:_Enumerator_get_Key_m2908810861
bmj:__Z55RuntimeInvoker_ILTokenInfo_t149559338_Int32_t2071877448PK10MethodInfoPvPS2_
cLe:__ZN11UnityEngine7Connect14AppUpdateEventD0Ev
OPd:__ZNK5physx2Sc5Scene24getContactModifyCallbackEv
HLl:__ZdlPv
ZPi:__ZL77StandaloneInputModule_t70867863_CustomAttributesCacheGenerator_m_VerticalAxisP21CustomAttributesCache
iK:__ZN11UnityEngine9Animation28GenericAnimationBindingCacheD2Ev
USd:__ZN5physx2Sq10AABBPruner10addObjectsEPjPKNS_9PxBounds3EPKNS0_13PrunerPayloadEj
Dvi:__ZL68RemotingSurrogateSelector_t2821375126_CustomAttributesCacheGeneratorP21CustomAttributesCache
Lkj:__Z76RuntimeInvoker_Void_t1841601450_Int32_t2071877448_KeyValuePair_2_t3716250094PK10MethodInfoPvPS2_
_Qf:_List_1_System_Collections_IList_IndexOf_m39706221_gshared
wAf:_Decimal_op_Implicit_m2971610317
ec:invoke_viiiifiiiiif
A6a:__Z18RestoreRenderStateR20CameraRenderOldStateR17ShaderPassContext
Atf:_SynchronizedArrayListWrapper_get_Item_m3309425850
LWb:__Z18Transfer_BlittableI18StreamedBinaryReadILb1EELb1E5RectTIfEEvRK29SerializationCommandArgumentsR31RuntimeSerializationCommandInfo
KQb:__Z18Transfer_BlittableI24GenerateTypeTreeTransferLb0E11ColorRGBA32EvRK29SerializationCommandArgumentsR31RuntimeSerializationCommandInfo
Vt:__ZNSt3__26vectorIN13AnimationClip10FloatCurveE13stl_allocatorIS2_L18MemLabelIdentifier25ELi16EEE6resizeEj
ltc:__Z21Object_CUSTOM_DestroyP12Il2CppObjectf
Eic:__Z44SystemInfo_Get_Custom_PropGraphicsDeviceNamev
Qvg:_GraphicRaycaster_get_ignoreReversedGraphics_m2757724367
nVl:_emscripten_glDeleteBuffers__wrapper
meh:_TlsServerCertificateRequest_ProcessAsSsl3_m3017921864
uuj:_Collision_t2876846408_marshal_pinvoke_back
R9d:__ZN5physx2Sc14ConstraintCore10breakApartEv
aZh:_GenericTypeParameterBuilder_GetHashCode_m867619899
Zkj:__Z79RuntimeInvoker_Void_t1841601450_Int32_t2071877448_ParameterModifier_t1820634920PK10MethodInfoPvPS2_
nql:__ZNSt3__26__treeINS_12basic_stringIcNS_11char_traitsIcEENS_9allocatorIcEEEENS_4lessIS6_EENS4_IS6_EEE16__construct_nodeIJRKS6_EEENS_10unique_ptrINS_11__tree_nodeIS6_PvEENS_22__tree_node_destructorINS4_ISH_EEEEEEDpOT_
zKg:_BinaryReader_ReadDecimal_m3164824427
YGh:_EqualityComparer_1__cctor_m3397254040_gshared
pGl:__ZNKSt3__220__time_get_c_storageIcE3__XEv
B8i:__Z37RuntimeInvoker_ContentType_t859870085PK10MethodInfoPvPS2_
Fge:__ZN5physx7Cooking20loadTriangleMeshDescERKNS_18PxTriangleMeshDescERNS_19TriangleMeshBuilderE
f3g:__ZThn4_N6il2cpp2vm13ComObjectBaseI34__Il2CppComDelegate_t3311706788CCW18Il2CppIInspectableNS0_7details6ComNilES5_S5_S5_S5_S5_S5_E14QueryInterfaceERK10Il2CppGuidPPv
Prk:_TextGenerator_get_verts_m3124035267
ISg:_MonoType_CheckMethodSecurity_m4116906190
i9c:__ZN5physx9NpFactory21releaseConnectorArrayEPNS_16NpConnectorArrayE
DWk:__ZN14dense_hash_mapI10KeyWrapperINSt3__212basic_stringIcNS1_11char_traitsIcEENS1_9allocatorIcEEEEEP11Il2CppClassN6il2cpp5utils11StringUtils12StringHasherIS7_EENS1_8equal_toIS8_EENS5_INS1_4pairIKS8_SA_EEEEE15set_deleted_keyERSJ_
Muk:_Vector2_get_one_m3174311904
iX:__ZNSt3__26__treeINS_12__value_typeIN19CloudServiceHandler11ServiceTypeEPS2_EENS_19__map_value_compareIS3_S5_NS_4lessIS3_EELb1EEE13stl_allocatorIS5_L18MemLabelIdentifier85ELi16EEE7destroyEPNS_11__tree_nodeIS5_PvEE
VVd:__ZNK5physx2Gu29EPASupportMapPairRelativeImplINS0_9TriangleVENS0_4BoxVEE6getDirEv
p0e:_Array_Sort_TisVector2_t2243707579_m1307634946_gshared
cfa:__ZN13RuntimeStaticI18BackgroundJobQueueE13StaticDestroyEPv
AMk:_Comparison_1_Invoke_m353639462_gshared
hwa:__ZN17PersistentManager22CheckInstanceIDsLoadedEPii
mEa:__ZN7ApiGLES17CopyBufferSubDataEjjlll
NMe:__ZN11UnityEngine15PlatformWrapper17GetCloudProjectIdEv
Oz:__ZN7mecanim5human19MaskHasLeftFootGoalERKNS_6bitsetILj66EEE
nVk:__ZNSt3__26vectorIPK10Il2CppTypeNS_9allocatorIS3_EEE7reserveEj
oNk:_U3CCreateWhereIteratorU3Ec__Iterator1D_1_Reset_m1773515612_gshared
nJk:_EqualityComparer_1_get_Default_m2134906921_gshared
qzg:_InputField_get_caretPosition_m1005871812
CCl:_wmemmove
hAh:_Dictionary_2__ctor_m3111963761_gshared
IV:__ZN11AudioModule26SetDefaultMicrophoneDriverEPv
zyd:__ZNK5physx15NpActorTemplateINS_15PxParticleFluidEE22getClientBehaviorFlagsEv
XDk:_AesManaged_CreateEncryptor_m1729287824
pyb:__ZNK14Texture2DArray26CanReuploadDataToGfxDeviceEv
o4a:__ZN17PrePassRenderLoop14RenderBasePassEP13RenderTextureRK14LightingLayersR13dynamic_arrayI16RenderObjectDataLj4EERbR10MinMaxAABB
Xjb:__ZN17GlobalGameManager23VirtualRedirectTransferER17RemapPPtrTransfer
Rwe:_sfnt_stream_close
Uug:_GraphicRegistry_RegisterGraphicForCanvas_m2284226562
wqf:_Char_System_IConvertible_ToInt16_m2741348777_AdjustorThunk
jFl:__ZNKSt3__27num_getIwNS_19istreambuf_iteratorIwNS_11char_traitsIwEEEEE6do_getES4_S4_RNS_8ios_baseERjRPv
mGl:__ZNKSt3__220__time_get_c_storageIcE3__cEv
pug:_FontData_get_verticalOverflow_m83665814
Ebg:_ReadOnlyCollection_1_System_Collections_Generic_IListU3CTU3E_set_Item_m1547026160_gshared
Uoi:__ZL61MarshalAsAttribute_t2900773360_CustomAttributesCacheGeneratorP21CustomAttributesCache
Eha:__ZN7Texture13SetFilterModeEi
WOb:__Z33BuildSerializationCommandQueueForI19StreamedBinaryWriteILb0EEEvRK34BuildSerializationCommandQueueArgsR32SerializationCommandQueueBuilderRP20AllowNameConversionsbPK18TransferField_Info
bic:__Z46Register_UnityEngine_Application_get_isPlayingv
qpl:__ZN6il2cpp8metadata13GenericMethod9GetMethodEPK19Il2CppGenericMethod
$kb:__ZNSt3__26vectorIN4core12basic_stringIcNS1_20StringStorageDefaultIcEEEENS_9allocatorIS5_EEE7reserveEj
QCf:_Convert_ToUInt16_m2130758075
Pnh:_X509BasicConstraintsExtension_Encode_m3505127076
Z7j:__ZN21InterfaceFuncInvoker1Ii20TimeSpan_t3430258949E6InvokeEjP11Il2CppClassPvS0_
IGj:_Scrollbar_OnRectTransformDimensionsChange_m330142657
Sxb:__ZN24GenerateTypeTreeTransfer8TransferI13dynamic_arrayI12SpriteVertexLj4EEEEvRT_PKc17TransferMetaFlags
cza:__ZN13GfxDeviceGLES11SetViewportERK5RectTIiE
vxg:_Image_get_pixelsPerUnit_m4104195799
BMj:_Toggle_InternalToggle_m2323729210
NGf:_Decimal_System_IConvertible_ToInt64_m2504363272
bsc:__Z24Time_Get_Custom_PropTimev
Vb:invoke_vifiiii
Dlf:_Array_GetValue_m3182152438
Ae:_emscripten_glDepthRange
BRh:_DESTransform_CipherFunct_m3559419566
Whj:__Z91RuntimeInvoker_Boolean_t3825574718_TouchScreenKeyboardTypeU26_t2194866306_Int32_t2071877448PK10MethodInfoPvPS2_
_Tc:__ZN5physx2Gu24contactConvexHeightfieldERKNS0_13GeometryUnionES3_RKNS_11PxTransformES6_RKfRNS0_5CacheERNS0_13ContactBufferE
Lad:__ZN5physx6shdfnd5ArrayIPvNS0_19ReflectionAllocatorINS_2Cm5BlockIS2_Lj8EEEEEE15growAndPushBackERKS2_
nng:_StandaloneInputModule_get_repeatDelay_m3025279
o6h:_GUILayoutGroup_CalcWidth_m4107152934
cPh:_RuntimeFieldHandle_get_Value_m3963757144
UZb:__Z14resize_trimmedINSt3__26vectorIN9ShaderLab20SerializedSubProgram12UAVParameterENS0_9allocatorIS4_EEEEEvRT_j
cKh:_SerializationInfo_AddValue_m1781549036
KSk:__ZL25UnresolvedVirtualCall_214P12Il2CppObject18Color32_t874517518PK10MethodInfo
obh:_TlsServerKeyExchange_verifySignature_m3641534563
I7f:_Collection_1_Clear_m445145071_gshared
OKj:_Slider_FindSelectableOnLeft_m3136767885
S_i:__Z75RuntimeInvoker_Void_t1841601450_Il2CppObject_RuntimeFieldHandle_t2331729674PK10MethodInfoPvPS2_
DFa:__ZN4crndL20crnd_default_reallocEPvjPjbS0_
uTe:_Array_BinarySearch_TisInt32_t2071877448_m51233948_gshared
qdc:__ZN7Texture11SetWrapModeEi
eLl:__ZNSt3__26locale5__imp7installINS_9money_putIwNS_19ostreambuf_iteratorIwNS_11char_traitsIwEEEEEEEEvPT_
X_d:__ZN5physx24PxsComputeAABBLocalSpaceERKNS_18PxcAABBDataDynamicERNS_9PxBounds3E
Jdc:__ZN16PackedQuatVector9PackQuatsEP11Quaternionfi
Bdj:__Z115RuntimeInvoker_Void_t1841601450_Rect_t3681755626_Il2CppObject_Int32_t2071877448_Int32_t2071877448_Int32_t2071877448PK10MethodInfoPvPS2_
qrc:__Z33Texture_CUSTOM_Internal_GetHeightP12Il2CppObject
JBg:_LayoutGroup_get_preferredHeight_m3901163825
zue:_UNITY_FT_Init_Class_ft_bitmap_glyph_class
Ev:__ZN7mecanim9animation18ClipMuscleConstant8TransferI24GenerateTypeTreeTransferEEvRT_
tmb:__ZN4PPtrI13RenderTextureE8TransferI18StreamedBinaryReadILb0EEEEvRT_
W3k:__ZN15dense_hashtableINSt3__24pairIK10KeyWrapperINS1_IPK9FieldInfoP11Il2CppClassEEEjEES9_17ReflectionMapHashIS8_EN14dense_hash_mapIS9_jSD_19ReflectionMapEqualsIS8_ENS0_9allocatorISB_EEE9SelectKeyESG_SI_E15insert_noresizeERKSB_
gAf:_DateTime_AbsoluteDays_m3061694073
Aij:__Z56RuntimeInvoker_Boolean_t3825574718_LabelData_t3712112744PK10MethodInfoPvPS2_
ODe:_UNITY_FT_Stream_GetChar
mAk:_BoblinController_OnCollisionEnter2D_m1183165849
dXb:__Z18Transfer_BlittableI18StreamedBinaryReadILb1EELb1EdEvRK29SerializationCommandArgumentsR31RuntimeSerializationCommandInfo
Yuh:_Enumerator_MoveNext_m435964161_AdjustorThunk
fvh:_Enumerator_System_Collections_IEnumerator_get_Current_m229223308_gshared
VFi:__ZL202U3CCreateWhereIteratorU3Ec__Iterator1D_1_t2523986802_CustomAttributesCacheGenerator_U3CCreateWhereIteratorU3Ec__Iterator1D_1_System_Collections_Generic_IEnumerableU3CTSourceU3E_GetEnumerator_m2392330777P21CustomAttributesCache
wTd:__ZN5physx6shdfnd8internal8HashBaseINS0_4PairIKNS_2Sq13PrunerPayloadEjEES5_NS0_4HashIS5_EENS1_11HashMapBaseIS5_jS9_NS0_9AllocatorEE6GetKeyESB_Lb1EE5eraseERS6_
Ate:__ZNK19TextRenderingModule8TMGenGetERK11UTF16StringPN13TextRendering4FontE10TextAnchor13TextAlignmentfffbb11ColorRGBA32fii
obe:__ZN5physx13GuMeshFactory16createConvexMeshERNS_13PxInputStreamE
qke:__ZN5physx6shdfnd8internal8HashBaseINS0_4PairIKPKcjEES5_NS0_4HashIS5_EENS1_11HashMapBaseIS5_jS9_NS_7profile26WrapperReflectionAllocatorIjEEE6GetKeyESD_Lb1EE6createERS6_Rb
Xti:__ZL55GCHandleType_t1970708122_CustomAttributesCacheGeneratorP21CustomAttributesCache
mxj:_Event_Init_m3901382626
Vzj:_AnimationPlayableUtilities_SetInputsValidated_m2696856860
Dhb:__ZN10FileSystem12MountHandlerEP17FileSystemHandler
jtf:_FixedSizeArrayListWrapper_AddRange_m2071800418
Ifa:__Z9InitInputv
JGa:__ZN4gles10SetTextureER15DeviceStateGLESj16TextureDimensionj19BuiltinSamplerState
NPf:_Enumerator_VerifyState_m2358705882_AdjustorThunk
YRb:__Z29Transfer_Blittable_ArrayFieldI24GenerateTypeTreeTransfer11ColorRGBA32EvRT_R9ArrayInfoRK23StaticTransferFieldInfo
mbe:__ZNK5physx13GuMeshFactory15getConvexMeshesEPPNS_12PxConvexMeshEjj
aHj:_Selectable_Navigate_m915280351
U3g:_AppDomain_getCurDomain_m591611373
xdb:__ZN16MemoryFileSystem6DeleteER13FileEntryDatab
evk:_Vector3_get_normalized_m936072361
Eua:__ZL21BlitScaleStbImageImplRK14ImageReferenceRS_NS_10ColorSpaceE
Opd:__ZN5physx10NpMaterial17setStaticFrictionEf
eih:_TlsStream_set_Position_m378064217
oSk:__ZL25UnresolvedVirtualCall_192P12Il2CppObject26DateTimeOffset_t1362988906S1_PK10MethodInfo
XI:__ZN18StreamedBinaryReadILb0EE21TransferSTLStyleArrayI13dynamic_arrayIjLj4EEEEvRT_17TransferMetaFlags
eOc:__ZNSt3__26__sortIR31RayHitsByInverseDepthComparitorP12RaycastHit2DEEvT0_S5_T_
lKd:__ZNK5physx7NpScene19getFilterShaderDataEv
vNb:__Z29Transfer_Blittable_ArrayFieldI14SafeBinaryReadyEvRT_R9ArrayInfoRK23StaticTransferFieldInfo
RQk:__ZL25UnresolvedVirtualCall_113P12Il2CppObjectiiiPK10MethodInfo
US:__ZN20SoundChannelInstance15setChannelGroupEPN4FMOD12ChannelGroupE
Qkd:__ZN5physx2Sc19ShapeInstancePairLL26onPoseChangedWhileSleepingEv
Jbf:_Evidence_Equals_m2325859915
dVd:__ZN5physx22PxcSweepCapsuleCapsuleERKNS_11PxsCCDShapeES2_PKNS_12PxsRigidBodyES5_RKNS_11PxTransformES8_S8_S8_fRNS_6PxVec3ESA_RNS_10PxcNpCacheERNS_18PxcNpThreadContextEf
pyi:__ZL93WindowsIdentity_t373339331_CustomAttributesCacheGenerator_WindowsIdentity_Dispose_m2649088337P21CustomAttributesCache
fUh:_Default__ctor_m172834064
Tc:invoke_vifffii
EIb:__ZN20ArchiveStorageReader17MakeStorageUnusedEv
xjk:_Regex_IsMatch_m2159202025
b2c:__ZNK5physx3Cct17CapsuleController21getHalfHeightInternalEv
VPa:__ZNK25MultiBlocksMemoryFileData5CloneEv
Qtl:_GC_add_ext_descriptor
m1c:__ZN5physx21PxQueryFilterCallbackD2Ev
Nxg:_Image_CalculateLayoutInputHorizontal_m3275149860
wLh:_RemotingServices_GetMethodBaseFromName_m3271095947
q6i:__Z71RuntimeInvoker_TimeSpan_t3430258949_Double_t4078015681_Int64_t909078037PK10MethodInfoPvPS2_
_Qa:__ZN17ArchiveFileSystem11CreateAsDirER13FileEntryData
q8c:__ZL30GeomOverlapCallback_CapsuleBoxRKN5physx10PxGeometryERKNS_11PxTransformES2_S5_PNS_2Gu12TriggerCacheE
zOl:dynCall_iiiiiiiiiiii
thf:_ASCIIEncoding_GetBytes_m3617160053
v5j:_InternalEnumerator_1_MoveNext_m2289229080_AdjustorThunk
aZi:__Z72RuntimeInvoker_Boolean_t3825574718_Decimal_t724701077_Decimal_t724701077PK10MethodInfoPvPS2_
rah:_CipherSuiteCollection_System_Collections_IList_RemoveAt_m143866082
Ddk:_Context_get_HasGlobalDynamicSinks_m3205328884
oya:__ZN22VertexDeclarationCacheD0Ev
Spa:__ZN6prcoreL17RemapGenericFloatI16TexFormatRGFloat17TexFormatRGBAHalfEEvPKNS_9InnerInfoE
Xhb:__ZNK21AssetBundleFileSystem8PositionERK13FileEntryData
Zyj:_UnityEventBase_UnityEngine_ISerializationCallbackReceiver_OnBeforeSerialize_m1773826808
UOc:__ZN13dynamic_arrayI11Collision2DLj4EE9push_backERKS0_
Z8:__ZN8Remapper23GetOrGenerateInstanceIDERK26SerializedObjectIdentifier
hu:__ZN17AnimationCurveTplI8Vector3fEC2ERKS1_
nPg:_StreamWriter_Flush_m3426120024
eRa:__ZN17FileSystemHandler10AtomicMoveER13FileEntryDataS1_
fb:invoke_iiiiiifffiiifii
SMg:_MemoryStream__ctor_m1489366847
gcf:_SecurityElement_IsValidTag_m64902195
ivh:_Enumerator_System_Collections_IEnumerator_get_Current_m229223308_AdjustorThunk
e3h:_PropertyInfo_SetValue_m2961483868
I5h:_GUILayoutEntry_set_style_m70917293
IVf:_List_1_System_Collections_IList_Contains_m4193366963_gshared
sHk:_UnityEvent_3_FindMethod_Impl_m1889846153_gshared
Fgk:_DictionaryEnumerator_get_Value_m1915638953
EUh:_ConstructorInfo_Invoke_m2144827141
wKj:_Slider_set_onValueChanged_m1751815187
Qxb:__ZN6Sprite8TransferI24GenerateTypeTreeTransferEEvRT_
swl:__ZThn4_N6il2cpp2vm13ComObjectBaseINS0_13ManagedObjectE18Il2CppIInspectableNS0_7details6ComNilES5_S5_S5_S5_S5_S5_E16GetManagedObjectEv
ctc:__Z48Register_UnityEngine_Transform_SetAsFirstSiblingv
Jij:__Z56RuntimeInvoker_Boolean_t3825574718_UriScheme_t1876590943PK10MethodInfoPvPS2_
_Ab:__ZN7SubMesh8TransferI24GenerateTypeTreeTransferEEvRT_
i2h:_MonoProperty_get_CanWrite_m2124922514
_Sc:__ZN5physx3Cct10Controller6setPosERKNS_14PxExtendedVec3E
nea:__ZN13RuntimeStaticI13RendererSceneE13StaticDestroyEPv
fVc:__ZN5physx2GuL14testFaceNormalERKNS0_13PolygonalDataES3_PNS0_12SupportLocalES5_RKNS_6shdfnd3aos15PsMatTransformVESA_RKNS7_6FloatVERSB_RjRNS7_5Vec3VENS0_13FeatureStatusERSI_
phj:__Z36RuntimeInvoker_Enumerator_t132208513PK10MethodInfoPvPS2_
Vij:__Z112RuntimeInvoker_Int32_t2071877448_Il2CppObject_Int32_t2071877448_Int32_t2071877448_Int32_t2071877448_Il2CppObjectPK10MethodInfoPvPS2_
$Bl:_poll
EMg:_Stream_BeginRead_m1985960185
Hvg:_Graphic_UnregisterDirtyVerticesCallback_m1526739224
mYg:__ZN16VirtFuncInvoker1IP21BigInteger_t925946152iE6InvokeEjPvi
qw:__ZN7mecanim5human9HumanGoal8TransferI18StreamedBinaryReadILb0EEEEvRT_
pQi:__ZL88TweenRunner_1_t2584777480_CustomAttributesCacheGenerator_TweenRunner_1_Start_m2640577060P21CustomAttributesCache
G7g:_MD4Managed_GG_m1462438360
Onc:__Z46Mesh_CUSTOM_PrintErrorCantAccessMeshForIndicesP12Il2CppObject
vdc:__ZN9Transform23SetSiblingIndexInternalEib
VIj:_ScrollRect_get_minWidth_m3151814267
w8c:__ZL32GeomOverlapCallback_ConvexConvexRKN5physx10PxGeometryERKNS_11PxTransformES2_S5_PNS_2Gu12TriggerCacheE
Wug:_Graphic_get_canvasRenderer_m2902370808
Ty:__ZN7mecanim5human12HumanPoseSubERNS0_9HumanPoseERKS1_S4_
s7g:_MD4_Create_m2582504069
LLk:_HashSet_1_System_Collections_IEnumerable_GetEnumerator_m2498631708_gshared
hjl:__ZN6il2cpp8metadata15GenericMetadata15GetGenericClassEiPK17Il2CppGenericInst
hof:_Boolean_System_IConvertible_ToInt16_m977801621
LLb:__Z18Transfer_BlittableI14SafeBinaryReadLb0E10Matrix4x4fEvRK29SerializationCommandArgumentsR31RuntimeSerializationCommandInfo
VSa:__Z24GetFixedBehaviourManagerv
hDf:_Convert_ToUInt64_m1691869628
A$k:__ZN6il2cpp2vm10ThreadPool4WaitEP17Il2CppAsyncResultPPv
Tzl:_vfprintf
eKh:_SerializationException__ctor_m1019897788
Saj:__Z67RuntimeInvoker_Playable_t3667545548_GenericMixerPlayable_t788733994PK10MethodInfoPvPS2_
RDb:__ZNSt3__26__sortIRNS_6__lessINS_12basic_stringIcNS_11char_traitsIcEENS_9allocatorIcEEEES7_EEPS7_EEvT0_SB_T_
ypj:_Debug_get_logger_m4173808038
Xna:__ZL13SortTexByNameRKNSt3__24pairIN9ShaderLab16FastPropertyNameEN18UnityPropertySheet11UnityTexEnvEEES7_
b$a:__ZN20DynamicPropertySheetD0Ev
dbb:__ZN14SafeBinaryRead17RegisterConverterEPKcS1_PFbPvRS_E
Y3:__ZN35RegisterRuntimeInitializeAndCleanup8RegisterEPFvPvES2_iS0_
QDd:__ZNK5physx19NpRigidBodyTemplateINS_14PxRigidDynamicEE17getRigidBodyFlagsEv
Acl:__ZNSt3__26vectorIN6il2cpp8metadata18GenericArrayMethodENS_9allocatorIS3_EEE7reserveEj
et:__ZN7mecanim6memory16ChainedAllocator7ReserveEj
Ymf:_AsyncCallback__ctor_m3071689932
Scl:__ZNK15dense_hashtableINSt3__24pairIK10KeyWrapperIP11Il2CppClassES4_EES5_N6il2cpp8metadata16SZArrayClassHashEN14dense_hash_mapIS5_S4_SA_NS9_19SZArrayClassCompareENS0_9allocatorIS7_EEE9SelectKeyESC_SE_E13find_positionERS6_
lhg:_ReadOnlyCollection_1_System_Collections_IList_Clear_m2600246370_gshared
RUd:__ZN5physx29EntityReportContainerCallback7onEventEjPj
tMc:__ZN4PPtrI17PhysicsMaterial2DE8TransferI18StreamedBinaryReadILb0EEEEvRT_
xpb:__ZN20SphericalHarmonicsL215AddAmbientLightERK10ColorRGBAf
hVd:__ZN5physx25PxcSweepConvexHeightfieldERKNS_11PxsCCDShapeES2_PKNS_12PxsRigidBodyES5_RKNS_11PxTransformES8_S8_S8_fRNS_6PxVec3ESA_RNS_10PxcNpCacheERNS_18PxcNpThreadContextEf
Icj:__Z41RuntimeInvoker_EventModifiers_t2690251474PK10MethodInfoPvPS2_
XZg:_DSAManaged_NormalizeArray_m2287089393
y6j:_InternalEnumerator_1_System_Collections_IEnumerator_get_Current_m2389982234_AdjustorThunk
rJj:_Selectable_get_interactable_m1725029500
ZDe:_UNITY_TT_Get_MM_Var
f6c:__ZN5physx6shdfnd8PoolBaseINS_2Sc10NPhaseCore16ClothListElementENS0_19ReflectionAllocatorIS4_EEE17releaseEmptySlabsEv
Z:invoke_diddi
nlg:_ExecuteEvents__cctor_m288775360
qFe:__ZNK2UI6Canvas13GetRenderModeEv
kBf:_Double_TryParseStringConstant_m2585405703
O4k:__ZN15dense_hashtableINSt3__24pairIK10KeyWrapperIPK10Il2CppTypeEjEES6_N6il2cpp8metadata14Il2CppTypeHashEN14dense_hash_mapIS6_jSB_NSA_17Il2CppTypeCompareENS0_9allocatorIS8_EEE9SelectKeyESD_SF_E5clearEv
$0h:_MonoField_get_Attributes_m4138688533
uH:__Z32TransferEnumWithNameForceIntSizeI14SafeBinaryRead28TransitionInterruptionSourceEvRT_RT0_PKc17TransferMetaFlags
YLb:__Z18Transfer_BlittableI14SafeBinaryReadLb0EiEvRK29SerializationCommandArgumentsR31RuntimeSerializationCommandInfo
o_k:__ZN6il2cpp2vm13MetadataCache30GetPropertyDefinitionFromIndexEi
Y5e:_RijndaelTransform_Clear_m1652144089
UCd:__ZN5physx14NpRigidDynamic7releaseEv
M1e:_BaseInvokableCall_ThrowOnInvalidArg_TisIl2CppObject_m1349548392_gshared
CWi:__Z57RuntimeInvoker_Void_t1841601450_Il2CppObject_Il2CppObjectPK10MethodInfoPvPS2_
hUg:_NumberFormatter_get_IsZero_m1325357749
xRd:__ZN5physx6shdfnd8PoolBaseINS_21PxsBodyTransformVault13PxsBody2WorldENS0_19ReflectionAllocatorIS3_EEE15disposeElementsEv
cak:_CompilationRelaxationsAttribute__ctor_m2800984288
NI:__ZN15SerializeTraitsI9OffsetPtrIN7mecanim9animation23BlendDirectDataConstantEEE8TransferI24GenerateTypeTreeTransferEEvRS4_RT_
$3h:_GUIClip_INTERNAL_CALL_Push_m969940749
DKf:_Enum_ToObject_m322320225
dBk:_LobsterKid_Start_m2263580762
Z9e:_X509Certificate__ctor_m3860837120
tve:_gray_raster_reset
XBj:_GameObject_Internal_CreateGameObject_m3428198595
jGl:__ZNKSt3__220__time_get_c_storageIcE7__weeksEv
Tsj:_Camera_RaycastTry2D_m755036866
ghg:_ReadOnlyCollection_1_System_Collections_Generic_IListU3CTU3E_set_Item_m3663361643_gshared
h$c:__ZN5physx2Gu30computeCapsule_TriangleMeshMTDERKNS_22PxTriangleMeshGeometryERKNS_11PxTransformERNS0_8CapsuleVEffbRNS_10PxSweepHitE
wkg:_EventTrigger_OnScroll_m626934407
dIb:__ZN30RuntimeInitializeOnLoadManager8TransferI18StreamedBinaryReadILb0EEEEvRT_
FCh:_Dictionary_2__ctor_m1206668798_gshared
cwe:_UNITY_tt_face_load_pclt
hJb:__ZN21ArchiveStorageCreator14StoreDirectoryEv
Pgc:__ZL34GetComponentsImplementationRecurseILb1ELi0ELi2EEbR10GameObjectbRK17CompareParametersRK39GetComponentsImplementation_ReturnValue
Zwl:__ZN6il2cpp6icalls8mscorlib6System9Threading5Mutex20CreateMutex_internalEbP12Il2CppStringPb
r4i:__Z50RuntimeInvoker_Int16_t4041245914_Int16_t4041245914PK10MethodInfoPvPS2_
Rsf:_ArrayListWrapper_Remove_m1105489978
s_a:__ZNK6Camera18WorldToScreenPointERK8Vector3fPb
ozk:_X509Extension_get_Oid_m3620527052
n$d:__ZN5physx2Cm12DelegateTaskINS_10PxsContextEXadL_ZNS2_28mergeCMDiscreteUpdateResultsEPNS_10PxBaseTaskEEEE11runInternalEv
omc:__Z38Renderer_Set_Custom_PropSharedMaterialP12Il2CppObjectS0_
Qah:_TlsClientSettings_set_TargetHost_m3421266913
age:__ZN5physx19TriangleMeshBuilder10importMeshERKNS_18PxTriangleMeshDescERKNS_15PxCookingParamsEb
Woc:__Z45Playable_CUSTOM_INTERNAL_CALL_IsValidInternalR9HPlayable
uPi:__ZL109PointerEventData_t1599784723_CustomAttributesCacheGenerator_PointerEventData_get_eligibleForClick_m2497780621P21CustomAttributesCache
P2e:_Array_InternalArray__get_Item_TisILTokenInfo_t149559338_m2004750537_gshared
Wy:__ZN7mecanim9animation19AdjustPoseForMotionERKNS0_14AvatarConstantERKNS0_14SkeletonTQSMapERKN4math4trsXERNS_10ValueArrayERNS_8skeleton13SkeletonPoseTIS8_EESG_
p1j:_InternalEnumerator_1_Dispose_m549215360_AdjustorThunk
Eqf:_Convert_ToSByte_m2665932200
g8:__ZNSt3__227__insertion_sort_incompleteIRPFbRKN18AwakeFromLoadQueue4ItemES4_EPS2_EEbT0_S9_T_
Exk:_PKCS12_Encrypt_m2154408631
s3:__GLOBAL__sub_I_runtime_camera_culling_lump_cpp
Azh:_ValueCollection_System_Collections_ICollection_get_IsSynchronized_m45572582_gshared
aTe:_Array_InternalArray__IEnumerable_GetEnumerator_TisContactPoint2D_t3659330976_m478005999_gshared
wpk:_SystemInfo_get_supportsShadows_m2920500780
bFj:_Navigation_Equals_m4214630671_AdjustorThunk
Qdg:_ReadOnlyCollection_1_System_Collections_Generic_IListU3CTU3E_set_Item_m257196015_gshared
Vvd:__ZN5physx6shdfnd5ArrayINS_18PxClothFabricPhaseENS0_19ReflectionAllocatorIS2_EEE8recreateEj
gtb:__ZN26EnlightenSystemInformation8TransferI14SafeBinaryReadEEvRT_
A2e:_Array_InternalArray__get_Item_TisLink_t2723257478_m2281261655_gshared
wLd:__ZN5physx2Sq17SceneQueryManager11shiftOriginERKNS_6PxVec3E
sCb:__ZN12MeshRendererD0Ev
lZc:__ZN5physx2Gu16sweepBoxTriangleERKNS_10PxTriangleERKNS_9PxBounds3ERKNS_6PxVec3ES9_RS7_SA_Rf
nS:__ZN4PPtrI15AudioMixerGroupE8TransferI18StreamedBinaryReadILb1EEEEvRT_
Ykk:_ExpressionAssertion_IsComplex_m783019628
iwh:_ShimEnumerator_MoveNext_m2943029388_gshared
Jvf:_Hashtable__ctor_m2702360557
mi:_utime
Mge:__ZN5physx10writeChunkEaaaaRNS_14PxOutputStreamE
VDg:_DateTimeFormatInfo_get_RawAbbreviatedDayNames_m3998113647
XFh:_DefaultComparer_GetHashCode_m2596628120_gshared
$tl:_GC_call_with_alloc_lock
JRe:__ZN16VirtFuncInvoker0IP8String_tE6InvokeEjPv
v4k:__ZN6il2cpp2gc19AppendOnlyGCHashMapIPK10Il2CppTypeP20Il2CppReflectionTypeNS_8metadata14Il2CppTypeHashENS7_17Il2CppTypeCompareEE3AddERKS4_S6_
e6g:_PrimalityTest_Invoke_m4058801829
kLh:_RemotingConfiguration_SetCustomErrorsMode_m1844153208
uo:FUNCTION_TABLE_viiiiii
Hmd:__ZN5physx2Sc9RigidCore13onShapeChangeERNS0_9ShapeCoreENS_7PxFlagsINS0_21ShapeChangeNotifyFlag4EnumEjEENS4_INS_11PxShapeFlag4EnumEhEE
fNf:_CultureInfo_GetFormat_m3560116485
eB:__ZN7mecanim9animation22DestroyAvatarWorkspaceEPNS0_15AvatarWorkspaceERNS_6memory9AllocatorE
Lki:_ScriptableObject_CreateInstance_m3271154163
kte:__ZNSt3__26vectorI8UnityStr13stl_allocatorIS1_L18MemLabelIdentifier34ELi16EEE12__move_rangeEPS1_S6_S6_
mrh:_FactoryCache__ctor_m254400436
sAd:__ZN5physx6shdfnd5ArrayIPvNS0_15InlineAllocatorILj256ENS0_19ReflectionAllocatorINS_2Sc19ParticlePacketShapeEEEEEE15growAndPushBackERKS2_
MXd:__ZN5physx17solveContactBlockEPKNS_23PxcSolverConstraintDescEjRNS_16PxcSolverContextE
Vge:__ZN5physx6shdfnd10FoundationD2Ev
pVe:_Array_InternalArray__IndexOf_TisResourceCacheItem_t333236149_m761772858_gshared
Xuc:__ZNSt3__210__list_impIN10GUIManager12SortedScriptE11memory_poolIS2_EE5clearEv
eBi:__ZL76Convert_t2607082565_CustomAttributesCacheGenerator_Convert_ToInt64_m44696721P21CustomAttributesCache
HLh:_TrackingServices__cctor_m3639412334
kla:__ZN9ShaderLab11shaderprops9GetVectorEPK19ShaderPropertySheetS3_NS_16FastPropertyNameERNS0_16PropertyLocationE
kyc:__Z32GUIStyle_Set_Custom_PropRichTextP12Il2CppObjecth
mF:__ZN7mecanim9animation29MotionOutputGetDeltaTransformEPKNS0_12MotionOutputE
Oka:__ZNSt3__26__treeINS_12__value_typeI4PPtrI13RenderTextureEN19RenderBufferManager23RenderTextureParametersEEENS_19__map_value_compareIS4_S7_NS_4lessIS4_EELb1EEE11memory_poolIS7_EE5eraseENS_21__tree_const_iteratorIS7_PNS_11__tree_nodeIS7_PvEEiEE
tbf:_StrongNamePublicKeyBlob_Equals_m2407250401
Mzh:_ValueCollection_System_Collections_IEnumerable_GetEnumerator_m1773104428_gshared
Vjb:__ZN17GlobalGameManager23VirtualRedirectTransferER19StreamedBinaryWriteILb0EE
MHc:__ZN24b2ChainAndCapsuleContact8EvaluateEP10b2ManifoldRK11b2TransformS4_
sL:__ZN8Animator14OnAddComponentEPN5Unity9ComponentE
K0f:_List_1_CheckMatch_m1184924052_gshared
vsc:__Z43Transform_CUSTOM_INTERNAL_get_localRotationP12Il2CppObjectP11Quaternionf
URd:__ZN5physx2Sc10NPhaseCoreD2Ev
tad:__ZN5physx2Sc7BodySim18onConstraintDetachEv
Csk:_Touch_get_fingerId_m4109475843_AdjustorThunk
tTl:_glGetShaderInfoLog__wrapper
Pi:_emscripten_glGetTexParameteriv
rKd:__ZN5physx7NpScene8simulateEfPNS_10PxBaseTaskEPvjb
uVf:_List_1_ToArray_m3752387798_gshared
YId:__ZThn8_N5physx2Sc24ElementInteractionMarker10onActivateEj
C8g:_RSAManaged_ImportParameters_m3060955884
P1g:_DeriveBytes__ctor_m3089550878
STg:_NotImplementedException__ctor_m1305569814
i_b:__ZN9ShaderLab20SerializedSubProgram14ConstantBufferaSERKS1_
Tbk:_ChannelData_CopyFrom_m4049054607
_3b:__Z13RegisterClassI4MeshEvv
POi:__ZL94AxisEventData_t1524870173_CustomAttributesCacheGenerator_AxisEventData_get_moveDir_m3968662359P21CustomAttributesCache
pUe:_Array_FindLastIndex_TisIl2CppObject_m869210470_gshared
aqb:__ZN8PlayableD0Ev
Oma:__ZNSt3__24pairIK8UnityStrS1_EC2ERKS3_
Iaj:__Z56RuntimeInvoker_Int32_t2071877448_PlayableU26_t3233213460PK10MethodInfoPvPS2_
LO:__ZN12AudioManager8TransferI19StreamedBinaryWriteILb0EEEEvRT_
ZF:__ZN4PPtrI25RuntimeAnimatorControllerE8TransferI18StreamedBinaryReadILb1EEEEvRT_
jNg:_WriteDelegate_Invoke_m2103848735
tWf:_List_1_get_Capacity_m4262042666_gshared
aLk:_GenericEqualityComparer_1_GetHashCode_m1950634276_gshared
AXb:__ZN18StreamedBinaryReadILb1EE21TransferSTLStyleArrayI13dynamic_arrayI11ColorRGBA32Lj4EEEEvRT_17TransferMetaFlags
Ipj:_Animator_GetBoolString_m307776885
fJb:__ZNSt3__26__treeINS_12__value_typeINS_12basic_stringIcNS_11char_traitsIcEENS_9allocatorIcEEEEjEENS_19__map_value_compareIS7_S8_NS_4lessIS7_EELb1EEE13stl_allocatorIS8_L18MemLabelIdentifier54ELi16EEE12__find_equalIS7_EERPNS_16__tree_node_baseIPvEESM_RKT_
Nni:__ZL72Il2CppArray_CustomAttributesCacheGenerator_Array_LastIndexOf_m4096535198P21CustomAttributesCache
yxh:_Transform_1_EndInvoke_m687617772_gshared
clj:__Z66RuntimeInvoker_Void_t1841601450_Int32_t2071877448_Mark_t2724874473PK10MethodInfoPvPS2_
qDk:_Locale_GetText_m512920887
a8b:__ZNK32RendererMaterialAnimationBinding12GetPPtrValueERKN11UnityEngine9Animation10BoundCurveE
_Tb:__Z18Transfer_BlittableI18StreamedBinaryReadILb0EELb0E8Vector2fEvRK29SerializationCommandArgumentsR31RuntimeSerializationCommandInfo
vjd:__ZN5physx18NpArticulationLink10clearForceENS_11PxForceMode4EnumE
UKh:_RemotingConfiguration_get_ProcessId_m3870172209
XVc:__ZN5physx2Gu30distanceSegmentTriangleSquaredERKNS_6PxVec3ES3_S3_S3_S3_PfS4_S4_
NMc:__ZN16CircleCollider2D10SmartResetEv
aIe:__ZN2UI11CanvasGroup12CleanupClassEv
zki:_SceneManager_LoadScene_m1386820036
vFg:_SortKey_ToString_m2406913228
Z1:__ZN22LocalFileSystemHandler9MakeLocalER13FileEntryDatab
uql:__ZN6il2cpp2vm8Profiler10AllocationEP12Il2CppObjectP11Il2CppClass
rAf:_Convert_ToDateTime_m1020507389
trg:_ColorTween_AddOnChangedCallback_m3190875685
Pel:__ZN13dynamic_arrayIP12Il2CppObjectLj4EE10reallocateEPS1_j
oDb:__ZN14SpriteRenderer21ReleaseGeometryJobMemEP25DynamicVBOGeometryJobData
Wse:__ZNSt3__23mapIN20TextRenderingPrivate7FontRefENS1_6OSFontENS_4lessIS2_EENS_9allocatorINS_4pairIKS2_S3_EEEEEixERS8_
aLg:_Path_IsPathRooted_m1347207448
XMh:_ObjectManager_RegisterObjectInternal_m879109503
nPe:_Array_get_swapper_TisVector4_t2243707581_m97441823_gshared
Xtd:__ZNK5physx15NpActorTemplateINS_7PxClothEE12getAggregateEv
jwa:__ZNSt3__26__sortIRNS_4lessIiEEPiEEvT0_S5_T_
Zpe:__ZN14SafeBinaryRead21TransferSTLStyleArrayI10vector_mapINSt3__24pairIttEEfN20TextRenderingPrivate8FontImpl14KerningCompareENS2_9allocatorINS3_IS4_fEEEEEEEvRT_17TransferMetaFlags
Mvh:_Enumerator_System_Collections_IDictionaryEnumerator_get_Entry_m744625813_AdjustorThunk
w4b:__Z13RegisterClassI15QualitySettingsEvv
Opl:__ZN6il2cpp2vm6String21InitializeEmptyStringEP11Il2CppClass
d4a:__ZN25DeferredRenderLoopScratchD0Ev
QBk:_PauseMenu_OnApplicationPause_m3286246586
Py:__ZN7mecanim9animation17EvaluateHumanPoseERKNS0_18ClipMuscleConstantERKNS0_15ClipMuscleInputEPKfRKNS0_12MotionOutputERNS_5human9HumanPoseE
fzi:__ZL90UTF7Encoding_t741406939_CustomAttributesCacheGenerator_UTF7Encoding_GetHashCode_m359766848P21CustomAttributesCache
AZi:__Z52RuntimeInvoker_Decimal_t724701077_Single_t2076509932PK10MethodInfoPvPS2_
mUd:__ZNK5physx2Cm12DelegateTaskINS_13PxsCCDContextEXadL_ZNS2_14postCCDAdvanceEPNS_10PxBaseTaskEEEE7getNameEv
W1a:__ZL13RenderCastersiRK8Vector3fS1_RK13ShadowJobDataR17ShaderPassContextRKNSt3__26vectorI16ShadowCasterData13stl_allocatorIS9_L18MemLabelIdentifier2ELi16EEEERKNS8_I20ShadowCasterPartDataSA_ISG_LSB_2ELi16EEEERK15RenderNodeQueueb
GFi:__ZL62SecurityProtocolType_t155967584_CustomAttributesCacheGeneratorP21CustomAttributesCache
uZa:__ZNSt3__227__insertion_sort_incompleteIRPFbP10GUIElementS2_EPS2_EEbT0_S7_T_
Rnh:_X509BasicConstraintsExtension_get_HasPathLengthConstraint_m3788532759
xla:__ZN22CreateGpuProgramOutputD2Ev
DCj:_GUI_Internal_SetTooltip_m3419738719
STe:__ZN21InterfaceFuncInvoker1Ii38CustomAttributeNamedArgument_t94157543E6InvokeEjP11Il2CppClassPvS0_
b3c:__ZNK5physx3Cct15ObstacleContext14getNbObstaclesEv
oTb:__Z18Transfer_BlittableI19StreamedBinaryWriteILb0EELb1EsEvRK29SerializationCommandArgumentsR31RuntimeSerializationCommandInfo
F5k:__ZNK15dense_hashtableINSt3__24pairIK10KeyWrapperINS1_IPK10MethodInfoP11Il2CppClassEEEjEES9_17ReflectionMapHashIS8_EN14dense_hash_mapIS9_jSD_19ReflectionMapEqualsIS8_ENS0_9allocatorISB_EEE9SelectKeyESG_SI_E12test_deletedERK24dense_hashtable_iteratorISB_S9_SD_SK_SG_SI_E
w7e:_RSACryptoServiceProvider_EncryptValue_m802714447
Zfl:__ZN6il2cpp6icalls8mscorlib6System2IO6MonoIO9SetLengthE12Il2CppIntPtrxPi
Mde:__ZN5physx6shdfnd8PoolBaseINS_11NpAggregateENS0_19ReflectionAllocatorIS2_EEE12allocateSlabEv
DAi:__ZL76Convert_t2607082565_CustomAttributesCacheGenerator_Convert_ToByte_m932798552P21CustomAttributesCache
DCd:__ZN5physx16NpParticleSystem23setParticleReadDataFlagENS_22PxParticleReadDataFlag4EnumEb
FH:__ZN7mecanim9animation23BlendDirectDataConstant8TransferI14SafeBinaryReadEEvRT_
xRc:__ZZN11Rigidbody2D15InitializeClassEvEN35FunctorImpl_200kAnimatorMoveBuiltin4CallEPviR11MessageData
mBd:__ZN5physx7NpScene26removeFromParticleBaseListERNS_14PxParticleBaseE
ACg:_DateTimeFormatInfo_GetInstance_m3133223810
u5g:_ModulusRing_BarrettReduction_m2802101099
d$i:__Z57RuntimeInvoker_ExtenderType_t1556892101_Int32_t2071877448PK10MethodInfoPvPS2_
Dwd:__ZN5physx2Sc9ClothCore23setSelfCollisionIndicesEPKjj
TNa:__ZN12HandlerChain4OpenER13FileEntryData14FilePermission16FileAutoBehavior
Ioj:__Z76RuntimeInvoker_Il2CppObject_UILineInfo_t3621277874_Il2CppObject_Il2CppObjectPK10MethodInfoPvPS2_
p0h:_MonoMethodInfo_GetParametersInfo_m3456861922
Zmj:__Z37RuntimeInvoker_UILineInfo_t3621277874PK10MethodInfoPvPS2_
HVk:__ZN15dense_hashtableINSt3__24pairIK10KeyWrapperIPK19Il2CppGenericMethodEPK26Il2CppGenericMethodIndicesEES6_N6il2cpp8metadata23Il2CppGenericMethodHashEN14dense_hash_mapIS6_SA_SE_NSD_26Il2CppGenericMethodCompareENS0_9allocatorISB_EEE9SelectKeyESG_SI_E15set_deleted_keyERKSB_
Zaa:__ZN14FileCacherReadD2Ev
S7e:_RSAPKCS1SignatureDeformatter_VerifySignature_m1825067195
Gkc:__Z50Register_UnityEngine_CullingGroup_FinalizerFailurev
WNf:_KeyValuePair_2_ToString_m2613351884_gshared
Bra:__ZN27UnloadUnusedAssetsOperationD0Ev
Kmb:__ZN6Camera15ThreadedCleanupEv
U_:__ZN9JSONWrite8TransferI8UnityStrEEvRT_PKc17TransferMetaFlags
qB:__ZN26AnimatorControllerPlayable6MemoryD2Ev
TOe:__ZN13RuntimeStaticINSt3__26vectorIjNS0_9allocatorIjEEEEE13StaticDestroyEPv
NQi:__ZL69ColorBlock_t2652774230_CustomAttributesCacheGenerator_m_DisabledColorP21CustomAttributesCache
A9g:_CipherSuite_get_Code_m3902213587
gGj:_Scrollbar__ctor_m2244981801
Vfl:__ZN6il2cpp6icalls8mscorlib6System2IO6MonoIO9GetLengthE12Il2CppIntPtrPi
nOh:_ObjectRecord_get_HasPendingFixups_m670959802
xBh:_Dictionary_2_Resize_m2807616086_gshared
MUd:__ZN5physx10PxsCCDPair12updateShapesEv
v8e:_SHA256Managed_HashCore_m4111458495
XMf:_CultureInfo_get_CompareInfo_m3085280862
lOh:_ObjectManager_RecordDelayedFixup_m1895730844
amf:_ArrayTypeMismatchException__ctor_m1898555879
GYf:_List_1_System_Collections_IList_get_IsFixedSize_m3522184224_gshared
JM:__ZN9AudioClip23VirtualRedirectTransferER18StreamedBinaryReadILb0EE
Vbh:_ClientSessionInfo_CheckDisposed_m1394638186
qQh:_SByte_Parse_m2544167007
fTa:__ZNSt3__26vectorIPN9ShaderLab9SubShaderENS_9allocatorIS3_EEE21__push_back_slow_pathIKS3_EEvRT_
EIf:_StackFrame_GetILOffset_m115192054
Yfb:__ZN24GenerateTypeTreeTransfer8TransferIN11AssetBundle9AssetInfoEEEvRT_PKc17TransferMetaFlags
bxd:__ZN5physx2Sc9ClothCore22removeCollisionCapsuleEj
UFj:_GetRayIntersectionAllCallback_BeginInvoke_m1307032462
FPh:_RuntimeTypeHandle_GetHashCode_m3697629454_AdjustorThunk
gXg:_BigInteger__ctor_m2945783161
kAb:__Z14resize_trimmedINSt3__26vectorIh13stl_allocatorIhL18MemLabelIdentifier14ELi16EEEEEvRT_j
Mvi:__ZL96ProxyAttribute_t4031752430_CustomAttributesCacheGenerator_ProxyAttribute_IsContextOK_m2391079277P21CustomAttributesCache
lGg:_IndexOutOfRangeException__ctor_m3497760912
Bbd:__ZN5physx16PxsIslandManager25setArticulationLinkHandleEjPvRKNS_20PxsIslandManagerHookIjLj4294967295EEE
Qfg:_ReadOnlyCollection_1_CopyTo_m1652036789_gshared
lk:_glCopyTexSubImage2D
KKh:_RealProxy_InternalGetTransparentProxy_m3415358600
j8b:__ZNK24RendererAnimationBinding13GetFloatValueERKN11UnityEngine9Animation10BoundCurveE
x6c:__ZN5physx2Sc10NPhaseCore39pool_deleteParticleElementRbElementPairEPNS0_35ParticleElementRbElementInteractionEjj
uYl:_glActiveTexture__wrapper
t3f:_Collection_1_Insert_m3594407958_gshared
OUa:_UNITY_png_write_zTXt
S0:__ZN18ScreenManagerWebGL13SetShowCursorEb
xql:__ZN6il2cpp6icalls8mscorlib6System7Convert24InternalFromBase64StringEP12Il2CppStringb
fSa:__ZZ23InitPlayerLoopCallbacksvEN37EarlyUpdateProcessMouseInWindowstruct7ForwardEv
YLj:_Text_get_preferredWidth_m3352156860
ETh:_AssemblyCompanyAttribute__ctor_m1217508649
dIe:__ZN2UI13CanvasManager14GetRenderOrderEPKNS_6CanvasE
qld:__ZN5physx6shdfnd5ArrayIPNS_3Scb5ShapeENS0_15InlineAllocatorILj16ENS0_19ReflectionAllocatorIS4_EEEEE15growAndPushBackERKS4_
JLb:__Z18Transfer_BlittableI14SafeBinaryReadLb0E5RectTIfEEvRK29SerializationCommandArgumentsR31RuntimeSerializationCommandInfo
EBa:__ZN9GfxDevice18InsertCustomMarkerEi
wfg:_ReadOnlyCollection_1_System_Collections_Generic_IListU3CTU3E_RemoveAt_m878653284_gshared
GCg:_DateTimeFormatInfo_GetFormat_m3676195179
WCa:__ZN14GfxContextGLES14GetFramebufferEv
EVl:_emscripten_glGenVertexArrays__wrapper
S3b:__ZN11GameManager7PRODUCEE18MemLabelIdentifier18ObjectCreationMode
yaj:__Z36RuntimeInvoker_HideFlags_t1434274199PK10MethodInfoPvPS2_
Hoa:__ZN6prcoreL21CreateRemapAnyBlitterE13TextureFormatS0_
Qyl:__ZN6il2cpp2os5Event4WaitEjb
Qec:__ZN17AnimationCurveTplIfE16StripInvalidKeysEv
nWe:_Array_InternalArray__ICollection_Add_TisKeyValuePair_2_t3716250094_m2381539361_gshared
z2g:_X509Extension_WriteLine_m2850991173
XGe:__ZNK2UI6Canvas17GetSortingLayerIDEv
Gmi:__ZL40UIntPtr_t_CustomAttributesCacheGeneratorP21CustomAttributesCache
cOc:__ZN14Raycast2DQuery8RunQueryEb
V9b:__Z13RegisterClassI17GlobalGameManagerEvv
NUi:__ZL70GridLayoutGroup_t1515633077_CustomAttributesCacheGenerator_m_StartAxisP21CustomAttributesCache
Yil:__ZNK15dense_hashtableI10KeyWrapperIP18Il2CppGenericClassES3_N6il2cpp8metadata22Il2CppGenericClassHashEN14dense_hash_setIS3_S6_NS5_25Il2CppGenericClassCompareENSt3__29allocatorIS3_EEE8IdentityES8_SB_E3endEv
TQe:_Array_InternalArray__ICollection_Remove_TisInt64_t909078037_m2653583130_gshared
dOj:_Thread_get_ExecutionContext_m922067206
XY:__ZN11UnityEngine15CloudWebService13WWWRestClient18GetEditableHeadersEv
Fbh:_RecordProtocol_get_Context_m2688493529
Fma:__ZN4PPtrI7TextureE8TransferI14SafeBinaryReadEEvRT_
h4d:__ZN5physx2Sc8ClothSim16addCollisionMeshEPKNS0_8ShapeSimE
yek:_SynchronizedClientContextSink__ctor_m978504596
MHj:_ScrollRect_get_viewport_m3177057249
oo:FUNCTION_TABLE_iiiiiiiiiiiiii
k9d:__ZN5physx6shdfnd5ArrayIPKNS_10PxsCCDBodyENS0_19ReflectionAllocatorIS4_EEE8recreateEj
XKa:__ZN14DrawBufferGLESI12VertexBuffer27VertexBufferUsageMapperGLESED2Ev
kld:__ZN5physx6shdfnd4sortINS_2Cm19PreallocatingRegionENS0_4LessIS3_EENS0_19ReflectionAllocatorIS3_EEEEvPT_jRKT0_RKT1_j
VMe:__ZN19UnityConnectService18OnPlayerQuitStaticEPS_
Egj:__Z35RuntimeInvoker_ScaleMode_t987318053PK10MethodInfoPvPS2_
Uwe:_UNITY_tt_get_cmap_info
Xhf:_DecoderExceptionFallback_GetHashCode_m2972426052
G8a:__ZN16ReflectionProbes8ScheduleEN18ReflectionProbeJob7JobTypeEP15ReflectionProbei
E0e:_Array_swap_TisCustomAttributeTypedArgument_t1498197914_m885124357_gshared
L8f:_Collection_1_IsFixedSize_m3675221982_gshared
nBi:__ZL77Convert_t2607082565_CustomAttributesCacheGenerator_Convert_ToSByte_m883113940P21CustomAttributesCache
QQf:_Enumerator_MoveNext_m3293920409_AdjustorThunk
g4a:__ZN14qsort_internal31_FindAndMovePivotToLastPositionIP16RenderObjectDatai26RenderDeferredObjectSorterEEvT_S4_T0_T1_
MDd:__ZN5physx19NpRigidBodyTemplateINS_14PxRigidDynamicEE20setRigidDynamicFlagsENS_7PxFlagsINS_15PxRigidBodyFlag4EnumEhEE
QYh:_GenericTypeParameterBuilder_get_DeclaringType_m1652924692
N8j:_Comparer_1__cctor_m3112251759_gshared
zTi:__ZL73ScrollRect_t1199013257_CustomAttributesCacheGenerator_m_VerticalScrollbarP21CustomAttributesCache
$mh:_X509KeyUsageExtension_ToString_m1992050580
Ese:_UNITY_FT_GlyphLoader_Done
meg:_ReadOnlyCollection_1_System_Collections_Generic_ICollectionU3CTU3E_Add_m2975080319_gshared
Cbk:_ConstructionCall__ctor_m1143766850
zai:_GUIStyleState_Init_m2434147050
O8j:_Comparer_1_System_Collections_IComparer_Compare_m3203078743_gshared
vCd:__ZN5physx22NpParticleBaseTemplateINS_16PxParticleSystemENS_16NpParticleSystemEE20setMaxMotionDistanceEf
Lch:_Context_get_RandomSC_m1687420621
dhb:__ZN5Cache10AddToCacheERKNSt3__212basic_stringIcNS0_11char_traitsIcEENS0_9allocatorIcEEEEi
OLi:__ZL67GUISkin_t1436893342_CustomAttributesCacheGenerator_m_verticalSliderP21CustomAttributesCache
b9a:__Z18SkinGenericMathLibILi2ELb1ELb0EEvR12SkinMeshInfo
tYd:__ZN5physx18ComputeSortedListsEPNS_2Cm10BitMapBaseINS_6shdfnd9AllocatorEEEjjPKjPPNS_8SapBox1DES7_PjSB_jRKNS_2Gu4AxesESB_RjSB_SG_RbSH_
Ixe:_tt_cmap14_char_var_index
Isj:_Camera_INTERNAL_CALL_ScreenPointToRay_m2752248646
r6i:__Z77RuntimeInvoker_TimeSpan_t3430258949_TimeSpan_t3430258949_TimeSpan_t3430258949PK10MethodInfoPvPS2_
_nk:_SliderHandler_OnMouseDown_m2819993578_AdjustorThunk
fze:_psh_globals_new
MKa:__ZN13dynamic_arrayIN16GeometryJobTasks15GeometryJobTaskELj4EE18resize_initializedEjRKS1_12ResizePolicy
ing:_StandaloneInputModule_set_allowActivationOnMobileDevice_m2631121618
CAf:_Decimal_stripStyles_m294582157
qtj:_Canvas_remove_willRenderCanvases_m1070419298
z9i:__Z73RuntimeInvoker_Single_t2076509932_Vector3_t2243707580_Vector3_t2243707580PK10MethodInfoPvPS2_
zya:__ZN9GfxDevice20SetMaxBufferedFramesEi
mWf:_List_1_RemoveAll_m4125997475_gshared
fLc:__ZN10Collider2D19WakeAllBodyContactsEv
BR:__ZN24AudioScriptBufferManagerD2Ev
SOl:dynCall_vdd
r8k:__ZN14dense_hash_mapI10KeyWrapperINSt3__24pairIPK11Il2CppImageP11Il2CppClassEEEj17ReflectionMapHashIS8_E19ReflectionMapEqualsIS8_ENS1_9allocatorINS2_IKS9_jEEEEE13set_empty_keyERSF_
GCc:__ZN8JSONRead21TransferSTLStyleArrayINSt3__26vectorINS1_12basic_stringIcNS1_11char_traitsIcEE13stl_allocatorIcL18MemLabelIdentifier1ELi16EEEES6_IS9_LS7_1ELi16EEEEEEvRT_S7_17TransferMetaFlags
AHe:__ZN2UIL17UnloadAllCanvasesEv
_5f:_Collection_1_System_Collections_IList_Insert_m3083278457_gshared
ycb:__Z23ConvertIntegerToTypePtrIsEbPvR14SafeBinaryRead
Naj:__Z71RuntimeInvoker_Boolean_t3825574718_Int32_t2071877448_Single_t2076509932PK10MethodInfoPvPS2_
$Ic:__ZN12b2MouseJoint11ShiftOriginERK6b2Vec2
SNh:_ObjectReader_ReadObjectGraph_m1994105549
jJk:_EqualityComparer_1__ctor_m99476293_gshared
zgd:__ZNK5physx14NpArticulation17releaseDriveCacheERNS_24PxArticulationDriveCacheE
H5g:_BigInteger_Incr2_m505983313
jrj:_PCMReaderCallback_BeginInvoke_m3119095492
Nrf:_ArrayList_get_Count_m523955479
djj:__Z85RuntimeInvoker_Int32_t2071877448_Vector3_t2243707580_Vector3_t2243707580_Il2CppObjectPK10MethodInfoPvPS2_
ntf:_FixedSizeArrayListWrapper_Remove_m1359458911
Poa:__ZN6prcoreL29inner_stretch_rgb565_bilinearEPKNS_9InnerInfoE
Ewd:__ZNK5physx2Sc9ClothCore25getSelfCollisionStiffnessEv
Kjg:_EventSystem_get_current_m319019811
kLj:_Text_get_mainTexture_m813502234
G6i:__Z47RuntimeInvoker_SecurityProtocolType_t3099771628PK10MethodInfoPvPS2_
fDj:_GUI_Toolbar_m3449288727
l3a:__ZNK14RenderSettings19GetFlatAmbientColorEv
B8a:__ZN6prcoreL10inner_flipILj4EEEvPhS1_j
DFb:__ZN18StreamedBinaryReadILb0EE21TransferSTLStyleArrayI10vector_mapIPKN5Unity4TypeE7Hash128NSt3__24lessIS6_EENS8_9allocatorINS8_4pairIS6_S7_EEEEEEEvRT_17TransferMetaFlags
eC:__ZNK27StateMachineBehaviourPlayer15IsSenderEnabledEv
mDb:__Z19CalculateVertexSizejRK20VertexChannelsLayoutPj
f3f:_Collection_1_System_Collections_ICollection_get_IsSynchronized_m1924133708_gshared
pgf:_String_Concat_m56707527
Xsc:__Z40Register_UnityEngine_Transform_SetParentv
trj:_AudioConfigurationChangeHandler_Invoke_m635374412
Egh:_SslClientStream_get_HaveRemoteValidation2Callback_m3555576758
vyb:__ZN14Texture2DArray17UploadToGfxDeviceEv
Seg:_ReadOnlyCollection_1_System_Collections_Generic_IListU3CTU3E_Insert_m4216310986_gshared
abg:_ReadOnlyCollection_1_System_Collections_Generic_IListU3CTU3E_set_Item_m1532495847_gshared
YH:__ZN15SerializeTraitsINSt3__24pairI8StateKey10StateRangeEEE8TransferI18StreamedBinaryReadILb1EEEEvRS4_RT_
wQ:__Z14FMODMemoryFreePvjPKc
ZYj:_InternalEnumerator_1_System_Collections_IEnumerator_Reset_m3731327620_AdjustorThunk
Mub:__ZThn28_N8RendererD0Ev
UWh:_EnumBuilder_get_BaseType_m63295819
Zwe:_tt_cmap0_validate
GPi:__ZL104PointerEventData_t1599784723_CustomAttributesCacheGenerator_PointerEventData_get_worldNormal_m1704987468P21CustomAttributesCache
bwk:_YieldInstruction_t3462875981_marshal_pinvoke_cleanup
Dbf:_Evidence_get_IsSynchronized_m1427392003
yAe:_cf2_glyphpath_moveTo
snk:_SharedBetweenAnimatorsAttribute__ctor_m1221241062
oOd:__ZN5physx3Scb4Body9syncStateEv
UNe:__ZN13RuntimeStaticI19UnityConnectServiceE16StaticInitializeEPv
yog:_AnimationTriggers_set_disabledTrigger_m609579531
eri:__ZL47File_t1930543328_CustomAttributesCacheGeneratorP21CustomAttributesCache
vFf:_DateTimeOffset__ctor_m1796624924
l5h:_GUILayoutUtility_get_spaceStyle_m1918520192
a$d:__ZN5physx20SingleAABBUpdateTaskD0Ev
w8k:__ZN15dense_hashtableINSt3__24pairIK10KeyWrapperINS1_IPK11Il2CppImageP11Il2CppClassEEEjEES9_17ReflectionMapHashIS8_EN14dense_hash_mapIS9_jSD_19ReflectionMapEqualsIS8_ENS0_9allocatorISB_EEE9SelectKeyESG_SI_EC2EjRKSD_RKSG_RKSK_
Jkd:__ZN5physx12PxsRigidBody23updatePoseDependenciesVERNS_10PxsContextE
Hjg:_BaseRaycaster_OnDisable_m1716508791
IQe:_Array_InternalArray__ICollection_Remove_TisKeyValuePair_2_t3716250094_m2566517826_gshared
F6g:_ASN1Convert_ToInt32_m2121135414
i3j:_InternalEnumerator_1_MoveNext_m1741571735_gshared
Qce:__ZN5physx2Gu12TriangleMesh4loadERNS_13PxInputStreamE
Smi:__ZL82Enum_t2459695545_CustomAttributesCacheGenerator_Enum_GetUnderlyingType_m3513899012P21CustomAttributesCache
Ytl:_GC_is_heap_ptr
M5f:_Collection_1_IsValidItem_m429993695_gshared
Adl:__GLOBAL__sub_I_Assembly_cpp
leh:_TlsServerSettings_set_CertificateRequest_m3419519893
jra:__Z21PlayerStartFirstSceneb
RE:__ZN7mecanim5human10RetargetToEPKNS0_5HumanEPKNS0_9HumanPoseES6_RKN4math4trsXEPS4_PNS_8skeleton13SkeletonPoseTIS8_EESF_
qz:__ZN7mecanim9animation8SeekClipERKNS0_12StreamedClipERNS0_18StreamedClipMemoryEf
SSj:_Type_get_IsGenericParameter_m161434704
tZh:_MethodBuilder_get_Attributes_m3678061338
Tm:_emscripten_glIsTexture
Cu:__ZN24CompressedAnimationCurveaSERKS_
Usf:_ArrayListWrapper_CopyTo_m793444109
BBi:__ZL79Convert_t2607082565_CustomAttributesCacheGenerator_Convert_ToUInt16_m3265369225P21CustomAttributesCache
yl:_emscripten_glHint
MDe:_ft_var_readpackeddeltas
G8:__ZN6Object15ClassIDToStringEi
OEf:_DateTime_AddMilliseconds_m1813199744_AdjustorThunk
YPh:_SByte_System_IConvertible_ToSByte_m108774324_AdjustorThunk
xZh:_MethodBuilder_GetParameterCount_m467267889
bDj:_GUI_HandleTextFieldEventForTouchscreen_m3221946725
P_h:_TypeBuilder_IsValueTypeImpl_m1499671481
rug:_FontData_get_lineSpacing_m4145828566
Yvf:_Hashtable_get_IsSynchronized_m836780937
uqh:_X509ChainStatus_t4278378721_marshal_pinvoke
s8g:_RSAManaged__ctor_m1680944437
Wm:_SDL_UpperBlit
T8d:__ZN5physx2Cm12DelegateTaskINS_2Sc5SceneEXadL_ZNS3_13ccdBroadPhaseEPNS_10PxBaseTaskEEEED0Ev
L9h:_GUIStyle_op_Implicit_m781448948
T3a:__Z35GetTextureDecodeValuesWithIntensity16TextureUsageMode17TextureColorSpace10ColorSpacef
Qpf:_Byte_GetHashCode_m2885528842_AdjustorThunk
ssd:__ZNK5physx7NpShape16getContactOffsetEv
o_d:__ZN5physx14PxsAABBManager21processAggregatePairsEPKNS_19AggregateSortedDataE
OAh:_Dictionary_2_OnDeserialization_m2092139626_gshared
WIc:__ZNK12b2MouseJoint10GetAnchorAEv
wne:_PxCreateCooking
NGl:__ZNKSt3__28time_getIwNS_19istreambuf_iteratorIwNS_11char_traitsIwEEEEE16do_get_monthnameES4_S4_RNS_8ios_baseERjP2tm
aLb:__ZN14SafeBinaryRead20OverrideRootTypeNameEPKc
tEb:__ZN9InputAxis7SetNameERKNSt3__212basic_stringIcNS0_11char_traitsIcEENS0_9allocatorIcEEEE
bba:__ZN14FileCacherRead16UnlockCacheBlockEj
RVj:_UIntPtr_get_Size_m537421489
C1g:_X509Certificate_GetUnsignedBigInteger_m3491353542
Fnd:__ZNK5physx12NpBatchQuery23getFilterShaderDataSizeEv
RPb:__Z18Transfer_BlittableI17RemapPPtrTransferLb1E8Vector3fEvRK29SerializationCommandArgumentsR31RuntimeSerializationCommandInfo
Xnk:_SliderHandler_StartDraggingWithValue_m1407392347
asi:__ZL57StackBehaviour_t1390406961_CustomAttributesCacheGeneratorP21CustomAttributesCache
ud:_emscripten_glUniform1f
Ale:__ZN5physx7profile11EventBufferINS_24PxDefaultContextProviderENS_6shdfnd6MutexTINS0_26WrapperReflectionAllocatorIhEEEENS0_14ScopedLockImplIS7_EENS_24PxProfileNullEventFilterEE10doAddEventINS0_17RelativeStopEventEEEvhtRKT_
$se:__Z20ParseImageParametersR11UTF16StringRiRN20TextRenderingPrivate16TextFormatChangeE
zd:_emscripten_glUniform1i
F1j:_InternalEnumerator_1_System_Collections_IEnumerator_Reset_m651165750_AdjustorThunk
VKb:__ZN13MonoBehaviour9CallAwakeEv
U7d:__ZN5physx2Sc19ShapeInstancePairLL23postIslandGenSecondPassEv
r2c:__ZN5physx3Cct26CharacterControllerManager16createControllerERKNS_16PxControllerDescE
H$i:__Z66RuntimeInvoker_Void_t1841601450_Int32_t2071877448_SByte_t454417549PK10MethodInfoPvPS2_
i$b:__ZN9ShaderLab16SerializedTagMapaSERKS0_
W$i:__Z75RuntimeInvoker_Void_t1841601450_Il2CppObject_Int32_t2071877448_Il2CppObjectPK10MethodInfoPvPS2_
ZRe:_SetPropertyUtility_SetStruct_TisFillMethod_t1640962579_m1867757822_gshared
Gme:__ZN5physx26PxPhysicsInsertionCallbackD2Ev
Fhc:__ZN8Material28ApplyMaterialPropertyDrawersEv
DTd:__ZN5physx2Sq16BucketPrunerCore12updateObjectERKNS_9PxBounds3ERKNS0_13PrunerPayloadE
f7d:__ZN5physx18PxsDynamicsContext23atomIntegrationParallelEfPKPNS_11PxsBodyCoreEPKPNS_12PxsRigidBodyEjPKNS_2Cm13SpatialVectorEPNS_13PxcSolverBodyEPNS_17PxcSolverBodyDataEPSA_RjSI_RNS_10PxBaseTaskE
MZj:_InternalEnumerator_1_System_Collections_IEnumerator_get_Current_m3680087284_gshared
GF:__ZN11UnityEngine9Animation27CreateAvatarBindingConstantER9TransformPKN7mecanim9animation14AvatarConstantERNS3_6memory9AllocatorE
yHb:__ZN14SafeBinaryRead21TransferSTLStyleArrayINSt3__26vectorIN30RuntimeInitializeOnLoadManager9ClassInfoE13stl_allocatorIS4_L18MemLabelIdentifier12ELi16EEEEEEvRT_17TransferMetaFlags
AWj:_UnitySerializationHolder_GetObjectData_m2280028722
shk:_PatternCompiler_EmitFalse_m1188949782
aVj:_UInt64_System_IConvertible_ToDateTime_m2412118561
shc:__ZN9BlobWriteC2ER13dynamic_arrayIhLj16EE24TransferInstructionFlags19BuildTargetPlatform
X3k:__ZNK15dense_hashtableINSt3__24pairIK10KeyWrapperINS1_IPK9FieldInfoP11Il2CppClassEEEjEES9_17ReflectionMapHashIS8_EN14dense_hash_mapIS9_jSD_19ReflectionMapEqualsIS8_ENS0_9allocatorISB_EEE9SelectKeyESG_SI_E13find_positionERSA_
x9:__ZN14MessageHandler3GetEv
c8h:_GUISkin_set_verticalScrollbarThumb_m2647835739
Md:_emscripten_glAttachShader
fdg:_ReadOnlyCollection_1__ctor_m1539890895_gshared
yya:__ZN9GfxDevice13SetActiveTierE12GraphicsTier
pPf:_Enumerator_System_Collections_IEnumerator_get_Current_m3079057684_AdjustorThunk
fRe:_Array_InternalArray__ICollection_Remove_TisSingle_t2076509932_m2568053761_gshared
p_g:_KeyPairPersistence_get_UserPath_m3433052783
I0c:__ZN5physx2Gu19GetRaycastFuncTableEv
O4f:_Collection_1_ClearItems_m1410275009_gshared
mcl:__ZNK15dense_hashtableINSt3__24pairIK10KeyWrapperIP11Il2CppClassES4_EES5_N6il2cpp8metadata16SZArrayClassHashEN14dense_hash_mapIS5_S4_SA_NS9_19SZArrayClassCompareENS0_9allocatorIS7_EEE9SelectKeyESC_SE_E10test_emptyEj
emi:__ZL58Decimal_t724701077_CustomAttributesCacheGenerator_MinusOneP21CustomAttributesCache
pIl:__ZNKSt3__29money_getIcNS_19istreambuf_iteratorIcNS_11char_traitsIcEEEEE6do_getES4_S4_bRNS_8ios_baseERjRNS_12basic_stringIcS3_NS_9allocatorIcEEEE
dTe:_Array_InternalArray__IEnumerable_GetEnumerator_TisKeyframe_t1449471340_m3949799719_gshared
KLb:__Z18Transfer_BlittableI14SafeBinaryReadLb0E11QuaternionfEvRK29SerializationCommandArgumentsR31RuntimeSerializationCommandInfo
i$:__ZNK13EmscriptenWWW6GetUrlEv
pLc:__ZN13BoxCollider2D16CheckConsistencyEv
M7d:__ZN5physx17EdgeChangeManager23cleanupBrokenEdgeEventsEPKNS_4EdgeE
Pkd:__ZN5physx17PxsContactManager16resetCachedStateEv
$yg:_InputField_get_inputType_m2187991661
g0:_tlsf_walk_heap
$0g:_PKCS12_Decode_m731190390
L$k:__ZN6il2cpp2vm7Runtime6InvokeEPK10MethodInfoPvPS5_PP15Il2CppException
N2j:_InternalEnumerator_1_get_Current_m1550231132_gshared
kkk:_Reference_get_IgnoreCase_m2810892634
NWj:_Version_CheckedSet_m76493673
xb:invoke_vif
dAb:__ZN14VertexDataInfo13UpdateStreamsEjjjRK19VertexStreamsLayoutRK20VertexChannelsLayout
yb:invoke_vid
Fyi:__ZL67UnverifiableCodeAttribute_t765455733_CustomAttributesCacheGeneratorP21CustomAttributesCache
zb:invoke_vii
QIl:__ZNSt3__28messagesIcED2Ev
LGi:__ZL86Component_t3819376471_CustomAttributesCacheGenerator_Component_SendMessage_m3615678587P21CustomAttributesCache
GMd:__ZN5physx13NpVolumeCacheD2Ev
CTi:__ZL82ScrollRect_t1199013257_CustomAttributesCacheGenerator_m_HorizontalScrollbarSpacingP21CustomAttributesCache
PGg:_Int16_System_IConvertible_ToUInt32_m883204517_AdjustorThunk
jeb:__ZN12TLSAllocatorI14StackAllocatorE16ThreadInitializeEP13BaseAllocator
psf:_ArrayList_Sort_m2778059513
Tbi:_InternalDrawTextureArguments_t1708329234_marshal_pinvoke
MPc:__ZN17Physics2DSettings23VirtualRedirectTransferER18StreamedBinaryReadILb1EE
iYk:__ZN15dense_hashtableINSt3__24pairIK10KeyWrapperI13dynamic_arrayIPK10Il2CppTypeLj4EEEPFvvEEES8_N6il2cpp8metadata19Il2CppSignatureHashEN14dense_hash_mapIS8_SB_SF_NSE_22Il2CppSignatureCompareENS0_9allocatorISC_EEE9SelectKeyESH_SJ_E5clearEv
jNi:__ZL107StackTraceUtility_t1881293839_CustomAttributesCacheGenerator_StackTraceUtility_SetProjectFolder_m2154926761P21CustomAttributesCache
H4d:__ZThn8_N5physx2Sc35ParticleElementRbElementInteraction12onDeactivateEj
zwg:_LayoutGroup_SetChildAlongAxis_m2732017156
yok:_SliderHandler_t3550500579_marshal_pinvoke_back
WIe:__Z41CanvasRenderer_CUSTOM_DisableRectClippingP12Il2CppObject
i7g:_MD2_Create_m539024737
vxf:_SortedList_get_SyncRoot_m3299704254
Qpb:__ZNK14DirectorPlayer7GetTimeEv
yWd:__ZN5physx16PxsThreadContextC2EPNS_10PxsContextE
Xxf:_Slot_t2267560602_marshal_pinvoke
P4i:__Z51RuntimeInvoker_UInt16_t986882611_Single_t2076509932PK10MethodInfoPvPS2_
NCj:_GUI_get_blendMaterial_m454011614
hJh:_SoapAttribute_get_XmlNamespace_m1436066016
jQa:__ZN25SingleBlockMemoryFileDataD0Ev
Mfb:__ZNSt3__26vectorI14ConstantStringNS_9allocatorIS1_EEE6assignINS_11__wrap_iterIPS1_EEEENS_9enable_ifIXaasr21__is_forward_iteratorIT_EE5valuesr16is_constructibleIS1_NS_15iterator_traitsISA_E9referenceEEE5valueEvE4typeESA_SA_
$Sc:__ZN5physx3Cct10Controller4moveERNS0_11SweptVolumeERKNS_6PxVec3EffRKNS_19PxControllerFiltersEPKNS_17PxObstacleContextEb
ZDd:__ZN5physx14NpRigidDynamic17setAngularDampingEf
KOb:__ZNSt3__26vectorI8GUIStyle13stl_allocatorIS1_L18MemLabelIdentifier1ELi16EEE7reserveEj
wdl:__ZN6il2cpp6icalls8mscorlib6System9Threading6Thread27GetSerializedCurrentCultureEP12Il2CppThread
DZk:__ZN6il2cpp2vm13MetadataCache14AddPointerTypeEP11Il2CppClassS3_
yVe:_Array_InternalArray__IndexOf_TisUInt32_t2149682021_m3231515987_gshared
FRk:__ZL25UnresolvedVirtualCall_155P12Il2CppObject23RaycastResult_t21186376S1_PK10MethodInfo
FIk:_ListPool_1__cctor_m709904475_gshared
H9i:__Z83RuntimeInvoker_Void_t1841601450_QuaternionU26_t4187826802_QuaternionU26_t4187826802PK10MethodInfoPvPS2_
o4b:__Z13RegisterClassI11TimeManagerEvv
mQ:__ZN4FMOD8ChannelI11setPositionEjj
WX:__ZN11UnityEngine15CloudWebService16SessionContainer27GetDeleteErrorJsonDataBlockERK8UnityStrS4_RS2_
IMc:__ZN10Collider2D12SetPolygon2DEP9Polygon2D
TPf:_Enumerator_VerifyState_m4188527104_gshared
rUi:__ZL75ToggleGroup_t1030026315_CustomAttributesCacheGenerator_U3CU3Ef__amU24cache1P21CustomAttributesCache
hdd:__ZN5physx6shdfnd8PoolBaseINS_2Sc12SimStateDataENS0_19ReflectionAllocatorIS3_EEE17releaseEmptySlabsEv
Hea:__ZN17BaseObjectManager13StaticDestroyEPv
Caj:__Z70RuntimeInvoker_Void_t1841601450_Playable_t3667545548_Int32_t2071877448PK10MethodInfoPvPS2_
krk:_TextGenerationSettings_CompareVector2_m592645251
Ytb:__ZNK29LineParametersPropertyBinding12GetPPtrValueERKN11UnityEngine9Animation10BoundCurveE
Lac:__ZN18PlayableController18DoesPlayableExistsEPK8Playable
YFf:_DBNull_System_IConvertible_ToChar_m3344298044
QWc:__ZN5physx2Gu22closestPtPointTriangleEPNS_6shdfnd3aos5Vec3VES4_S4_Rj
o2g:_X509Certificate_GetObjectData_m3888130484
WGb:__ZNSt3__26vectorIN15ResourceManager10DependencyE13stl_allocatorIS2_L18MemLabelIdentifier51ELi16EEEC2INS_11__wrap_iterIPS2_EEEET_SB_RKS5_PNS_9enable_ifIXaasr21__is_forward_iteratorISB_EE5valuesr16is_constructibleIS2_NS_15iterator_traitsISB_E9referenceEEE5valueEvE4typeE
s9i:__Z45RuntimeInvoker_IMECompositionMode_t1898275508PK10MethodInfoPvPS2_
cnd:__ZN5physx2Cm8PtrTableC2Ev
Awj:_CustomYieldInstruction_Reset_m3409422382
Hgk:_LinkStack_Push_m2660199875
gP:__ZN4FMOD6Reverb13setPropertiesEPK22FMOD_REVERB_PROPERTIES
Syd:__ZNK5physx22NpParticleBaseTemplateINS_15PxParticleFluidENS_15NpParticleFluidEE14getRestitutionEv
z$a:__ZN9DepthPass13PrepareSubsetEjRK10RenderNodeifRK17ShaderReplaceData
IZd:__ZN5physx16PxsBroadPhaseMBP6updateEjjRKNS_23PxcBroadPhaseUpdateDataEPNS_10PxBaseTaskE
Tqd:__ZN5physx9NpPhysics18createRigidDynamicERKNS_11PxTransformE
Y7c:__ZN5physx6shdfnd5ArrayIPvNS0_19ReflectionAllocatorINS_2Sc18TriggerInteractionEEEE15growAndPushBackERKS2_
dxk:_X509CertificateCollection_Add_m4008705157
wIh:_MonoMethodMessage_set_Uri_m3218581120
ofc:__Z18ExtractTagThrowingR11ICallString
tna:__ZN4PPtrI6ShaderE8TransferI19StreamedBinaryWriteILb0EEEEvRT_
f5f:_Collection_1_IsFixedSize_m1816795498_gshared
mSa:__ZZ23InitPlayerLoopCallbacksvEN40EarlyUpdatePlayerCleanupCachedDatastruct7ForwardEv
i_c:__ZN5physx2Gu17intersectRayAABB2ERKNS_6shdfnd3aos5Vec3VES5_S5_S5_RKNS2_6FloatVERS6_S9_
iJe:__Z34CanvasRenderer_Get_Custom_PropCullP12Il2CppObject
$rd:__ZNK5physx7NpShape17getSphereGeometryERNS_16PxSphereGeometryE
k0c:__ZL18intersectAnyVsMeshILi1EEbPKN5physx2Gu6SphereEPKNS1_7CapsuleEPKNS1_3BoxERKNS1_13RTreeMidphaseERKNS0_11PxTransformERKNS0_11PxMeshScaleEP14LimitedResults
BHb:__Z14resize_trimmedINSt3__26vectorIi13stl_allocatorIiL18MemLabelIdentifier12ELi16EEEEEvRT_j
Umg:_MouseButtonEventData_ReleasedThisFrame_m482758300
pbd:__ZN5physx6shdfnd5ArrayIPvNS0_15InlineAllocatorILj256ENS0_19ReflectionAllocatorINS_2Cm5BlockIhLj128EEEEEEEE15growAndPushBackERKS2_
stf:_ReadOnlyArrayListWrapper_set_Item_m2199017141
KQe:_Array_InternalArray__ICollection_Remove_TisKeyValuePair_2_t488203048_m1926328505_gshared
q6a:__ZN6Camera6SetFarEf
_wk:_DeriveBytes_DeriveIV_m3343375195
raf:_X509Certificate_ToString_m1582581274
R6e:_RNGCryptoServiceProvider_GetBytes_m167497991
upa:__ZN6prcoreL12RemapGenericI17TexFormatABGR888817TexFormatARGB8888EEvPKNS_9InnerInfoE
Gjb:__ZN11GameManager17MainThreadCleanupEv
J0k:__ZN6il2cpp6icalls8mscorlib6System18CollectTypeMethodsINS_5utils10functional6FilterINSt3__212basic_stringIcNS7_11char_traitsIcEENS7_9allocatorIcEEEENS4_11StringUtils23CaseInsensitiveComparerEEEEEvP11Il2CppClassPKSH_jRKT_RNS7_6vectorIPK10MethodInfoNSB_ISR_EEEERA65535_b
RWh:_TypeBuilder_get_Assembly_m492491492
P7f:_Collection_1_InsertItem_m1225429801_gshared
ALc:__ZN10Collider2D12AddToManagerEv
T_:__ZN11UnityEngine15CloudWebService17CloudServiceEvent12ToJsonStringER8UnityStrjPKc
Dud:__ZNK5physx7NpCloth24getParticleAccelerationsEPNS_6PxVec4E
zCe:_UNITY_tt_slot_init
A4e:_HMACSHA512__cctor_m1167457383
GEc:__ZL22Transfer_ManagedObjectI9JSONWriteLb1EEvRK29SerializationCommandArgumentsR31RuntimeSerializationCommandInfo
Sza:__ZN9GfxDevice20DestroyRenderSurfaceER12ObjectHandleI17RenderSurface_TagP17RenderSurfaceBaseE
Svl:__ZNSt3__26__treeINS_12__value_typeINS_12basic_stringIcNS_11char_traitsIcEENS_9allocatorIcEEEEPFvvEEENS_19__map_value_compareIS7_SA_NS_4lessIS7_EELb1EEENS5_ISA_EEE25__emplace_unique_key_argsIS7_JRKNS_21piecewise_construct_tENS_5tupleIJOS7_EEENSL_IJEEEEEENS_4pairINS_15__tree_iteratorISA_PNS_11__tree_nodeISA_PvEEiEEbEERKT_DpOT0_
s6b:__ZL24PrepareSpriteRenderNodesILb1EEvR35RenderNodeQueuePrepareThreadContext
kNa:__ZN9GfxDevice22UpdateComputeResourcesEjPK9TextureIDPK16TextureDimensionPKijPKjjPK15ComputeBufferIDS7_PK20ComputeBufferCounterjSC_S2_S5_S9_SF_
qzb:__ZN12_GLOBAL__N_15qAsinEff
b1e:_Dictionary_2_Do_ICollectionCopyTo_TisKeyValuePair_2_t3749587448_m2536766696_gshared
keb:__ZN12TLSAllocatorI14StackAllocatorE13ThreadCleanupEv
JU:__Z18GetAudioManagerPtrv
DGl:__ZNKSt3__28time_getIcNS_19istreambuf_iteratorIcNS_11char_traitsIcEEEEE10__get_yearERiRS4_S4_RjRKNS_5ctypeIcEE
I7i:__Z67RuntimeInvoker_Void_t1841601450_Int16_t4041245914_Int16_t4041245914PK10MethodInfoPvPS2_
aAb:__ZN4Mesh27SwizzleVertexColorsIfNeededEb
lfb:__Z27FindActiveTransformWithPathPKc
V$i:__Z63RuntimeInvoker_DSAParameters_t1872138834_BooleanU26_t3168250738PK10MethodInfoPvPS2_
Zjc:__Z45Register_UnityEngine_Camera_INTERNAL_set_rectv
ytj:_CanvasGroup_get_alpha_m1304564441
sId:__ZN5physx16PxsIslandManager14setEdgeRigidCMERKNS_20PxsIslandManagerHookIjLj4294967295EEEPNS_17PxsContactManagerE
wlb:__ZN12BaseRendererD0Ev
pcb:__Z29StdTemplateConversionFunctionIbyEbPvR14SafeBinaryRead
jEh:_DefaultComparer__ctor_m899694595_gshared
l6i:__Z56RuntimeInvoker_TimeSpan_t3430258949_TimeSpan_t3430258949PK10MethodInfoPvPS2_
kgd:__ZN5physx14NpArticulation25setStabilizationThresholdEf
jHf:_Decimal_Floor_m1662853963
hce:__ZN5physx2Gu11HeightField7releaseEv
g0b:__ZN24GenerateTypeTreeTransfer21TransferSTLStyleArrayINSt3__26vectorIN9ShaderLab20SerializedSubProgram14ConstantBufferENS1_9allocatorIS5_EEEEEEvRT_17TransferMetaFlags
kXa:__ZNK6Camera7GetNearEv
tEa:__ZN7ApiGLES11UnmapBufferEjN2gl12BufferTargetE
AYk:__ZN14dense_hash_mapI10KeyWrapperI13dynamic_arrayIPK10Il2CppTypeLj4EEEPFvvEN6il2cpp8metadata19Il2CppSignatureHashENSA_22Il2CppSignatureCompareENSt3__29allocatorINSD_4pairIKS6_S8_EEEEE13set_empty_keyERSG_
Rrb:__Z25GetNextAllowedTextureSizeib13TextureFormat
W1:__ZN20LocalFileSystemWebGL4CopyER13FileEntryDataS1_
cYf:_List_1_CheckIndex_m4231572822_gshared
JZ:__ZN19CloudServiceHandler6RetainEv
iyl:__ZN6il2cpp2os9Semaphore4WaitEb
AIc:__ZN15b2FrictionJointD0Ev
ncf:_StrongName_Equals_m67226644
bW:__Z34AudioListener_Set_Custom_PropPauseh
Elb:__ZN12BaseRenderer20FlattenToRenderQueueER15RenderNodeQueueRK20DeprecatedSourceData
WXh:_FieldBuilder_get_Attributes_m2174064290
i4d:__ZN5physx2Sc8ClothSim23addCollisionHeightfieldEPKNS0_8ShapeSimE
TEb:__ZN11TimeManager23VirtualRedirectTransferER18StreamedBinaryReadILb1EE
dsa:__Z34scripting_liveness_calculation_endPv
pol:__ZN6il2cpp2os6ThreadC2Ev
$cf:_SecurityFrame_InitFromRuntimeFrame_m45195821
zri:__ZL53TextReader_t1561828458_CustomAttributesCacheGeneratorP21CustomAttributesCache
eph:_X509Chain_IsSignedWith_m292245392
OQe:_Array_InternalArray__ICollection_Remove_TisDateTime_t693205669_m1275668216_gshared
w9b:__ZZN6Camera15InitializeClassEvEN31FunctorImpl_99kTransformChanged4CallEPviR11MessageData
jdg:_ReadOnlyCollection_1_System_Collections_Generic_ICollectionU3CTU3E_Remove_m3751131234_gshared
AAc:__Z18Transfer_BlittableI8JSONReadLb0E8Vector3fEvRK29SerializationCommandArgumentsR31RuntimeSerializationCommandInfo
$t:__ZN13AnimationClip12Vector3Curve8TransferI14SafeBinaryReadEEvRT_
Xbk:_ChannelServices__cctor_m3534779830
D9k:__ZN6il2cpp2vm6Thread6DetachEP12Il2CppThread
pye:_Render_Single_Pass
NNb:__ZNSt3__26vectorINS_12basic_stringIcNS_11char_traitsIcEE13stl_allocatorIcL18MemLabelIdentifier1ELi16EEEES4_IS7_LS5_1ELi16EEE8__appendEj
JC:__ZN11UnityEngine9Animation31CreateControllerBindingConstantEPKN7mecanim9animation18ControllerConstantEPKNS2_12AnimationSetEPNS1_18ValueArrayConstantEjPKNS2_14AvatarConstantERNS1_6memory9AllocatorE
RPk:__ZL24UnresolvedVirtualCall_59P12Il2CppObjectS0_aPK10MethodInfo
qKk:_EqualityComparer_1__cctor_m2666196678_gshared
S1k:_il2cpp_class_get_name
K4h:_GUIStyle_Init_m3872198731
LF:__ZN7mecanim8skeleton30SkeletonBuildReverseIndexArrayEPiPKiPKNS0_8SkeletonES6_
Bvc:__Z19GetGUIBlendMaterialv
Hwh:_ShimEnumerator_get_Current_m3364144670_gshared
jml:__ZN6il2cpp2os10ThreadImpl5SleepEjb
WYd:__ZN5physx14SapPairManager12shrinkMemoryEv
xzk:_X509ExtensionCollection_System_Collections_IEnumerable_GetEnumerator_m2600902401
z8f:_Collection_1_InsertItem_m1073626529_gshared
ZIb:__ZN15FileSystemEntry4MoveERS_23FileSystemCopyMoveFlags
BG:__ZN18AnimatorController23VirtualRedirectTransferER24GenerateTypeTreeTransfer
cCh:_Dictionary_2_System_Collections_Generic_IEnumerableU3CSystem_Collections_Generic_KeyValuePairU3CTKeyU2CTValueU3EU3E_GetEnumerator_m3968773920_gshared
Tih:_ListDictionary_FindEntry_m432748847
dVl:_glBindSampler__wrapper
HFk:_UnityAction_1_Invoke_m3523417209_gshared
tg:_emscripten_set_mouseup_callback
AZb:__Z14resize_trimmedINSt3__26vectorIN9ShaderLab14SerializedPassENS0_9allocatorIS3_EEEEEvRT_j
ZMa:__ZN9GfxDevice27SetRandomWriteTargetTextureEi9TextureID
IAj:_CustomAnimationPlayable_get_time_m2832957799
w4i:__Z48RuntimeInvoker_Int64_t909078037_SByte_t454417549PK10MethodInfoPvPS2_
Q$g:_PrivateKeyInfo_Normalize_m3959595934
eLd:__ZN5physx7NpScene22removeBroadPhaseRegionEj
p8c:__ZL34GeomOverlapCallback_CapsuleCapsuleRKN5physx10PxGeometryERKNS_11PxTransformES2_S5_PNS_2Gu12TriggerCacheE
b1:__ZNK18ScreenManagerWebGL8GetWidthEv
mKd:__ZNK5physx7NpScene23getFilterShaderDataSizeEv
Jug:_Graphic_get_rectTransform_m2697395074
k_k:__ZN6il2cpp2vm13MetadataCache33GetFieldDefaultValueDataFromIndexEi
gwg:_GridLayoutGroup_set_startAxis_m1635162426
nM:__ZN10SampleClipD2Ev
Dek:_SynchronizationAttribute_EnterContext_m2984912761
bni:__ZL73Enum_t2459695545_CustomAttributesCacheGenerator_Enum_ToObject_m2601523252P21CustomAttributesCache
hNf:_CultureInfo_construct_internal_locale_from_name_m971766383
dfk:__ZN16VirtFuncInvoker0IP21WaitHandle_t677569169E6InvokeEjPv
iml:__ZN6il2cpp2os10ThreadImpl13SetWaitObjectEPNS0_5posix15PosixWaitObjectE
Spf:_Byte_Equals_m368616327_AdjustorThunk
gXe:_Array_InternalArray__ICollection_Add_TisUIVertex_t1204258818_m3869382594_gshared
VBe:_cff_cmap_unicode_init
sKf:_Enum_ToObject_m2460371738
dYg:_PrimalityTests_Test_m1088386156
eba:__ZN14FileCacherRead13GetFileLengthEv
vwc:__Z36Event_CUSTOM_Internal_SetNativeEvent13Il2Cpp_IntPtr
KBl:_readlink
djk:_ExpressionAssertion__ctor_m2408911632
A$e:_Array_Resize_TisVector3_t2243707580_m893658391_gshared
c$j:_InternalEnumerator_1_System_Collections_IEnumerator_get_Current_m4259662004_AdjustorThunk
h3e:_Array_InternalArray__get_Item_TisKeyframe_t1449471340_m1003508933_gshared
fxl:__ZN6il2cpp8metadata14Il2CppTypeHash4HashEPK10Il2CppType
V0g:_StrongName_get_PublicKeyToken_m1968460885
dxb:__ZNK6Sprite9GetBoundsE8Vector2fbb
rbj:__Z87RuntimeInvoker_Boolean_t3825574718_Ray_t2469606224_Single_t2076509932_Int32_t2071877448PK10MethodInfoPvPS2_
vH:__ZN7mecanim12statemachine13StateConstant8TransferI14SafeBinaryReadEEvRT_
YCa:__ZN11ContextGLES6CreateEi
K$c:__ZN5physx6shdfnd5ArrayINS_10PxTriangleENS0_19ReflectionAllocatorIS2_EEE15growAndPushBackERKS2_
jKg:_BinaryReader_Dispose_m4249456877
nzk:_X509CrlEntry_get_Extensions_m1330698752
zAf:_Double_ToString_m1085043609
yVb:__Z19TransferField_ArrayI18StreamedBinaryReadILb0EE27Converter_SimpleNativeClassI17AnimationCurveTplIfEEEvRK23StaticTransferFieldInfoR31RuntimeSerializationCommandInfoRT0_
N9g:_CipherSuite_createEncryptionCipher_m1926075645
Xdb:__ZN14StackAllocator16FrameMaintenanceEb
aXc:__ZL11SweepBoxBoxPKN5physx3Cct9SweepTestEPKNS0_11SweptVolumeEPKNS0_11TouchedGeomERKNS_14PxExtendedVec3ERKNS_6PxVec3ERNS0_12SweptContactE
pXk:__ZNK15dense_hashtableI10KeyWrapperIPK19Il2CppGenericMethodES4_N6il2cpp8metadata23Il2CppGenericMethodHashEN14dense_hash_setIS4_S7_NS6_26Il2CppGenericMethodCompareENSt3__29allocatorIS4_EEE8IdentityES9_SC_E5beginEv
M5:__ZNK10GameObject20QueryComponentByTypeEPKN5Unity4TypeE
FQf:_Enumerator_MoveNext_m1367380970_AdjustorThunk
m_h:_OpCode_GetHashCode_m2974727122
Knb:__ZN16GraphicsSettings8TransferI18StreamedBinaryReadILb1EEEEvRT_
O9g:_CipherSuite_createDecryptionCipher_m1118350455
gse:__ZN20TextRenderingPrivate12GetFontPathsERNSt3__26vectorINS0_12basic_stringIcNS0_11char_traitsIcEENS0_9allocatorIcEEEENS5_IS7_EEEE
Mhk:_PatternCompiler_EmitReference_m1381860071
lJf:_Double_System_IConvertible_ToInt16_m4200640326
Ylc:__Z53Register_UnityEngine_GameObject_get_activeInHierarchyv
YYh:_GenericTypeParameterBuilder_get_IsGenericType_m1883522222
V9i:__Z90RuntimeInvoker_Single_t2076509932_Single_t2076509932_Single_t2076509932_Single_t2076509932PK10MethodInfoPvPS2_
i7:__ZL30InitializeCoreScriptingClassesv
ibj:__Z49RuntimeInvoker_Void_t1841601450_Scene_t1684909666PK10MethodInfoPvPS2_
J8f:_Collection_1_CheckWritable_m3938993573_gshared
ph:_glBlitFramebuffer
iRa:__ZN17ArchiveFileSystem5TouchER13FileEntryData
jQd:__ZNK5physx2Sc5Scene17prefetchForRemoveERKNS0_10StaticCoreE
veh:_SecurityParameters_set_Cipher_m3888132335
lYg:_BigInteger_GeneratePseudoPrime_m2606361440
dEg:_DateTimeFormatInfo_get_ShortTimePattern_m20923983
kMb:__Z35Transfer_Blittable_SingleValueFieldI14SafeBinaryReadhEvRT_R17GeneralMonoObjectRK23StaticTransferFieldInfo
JSi:__ZL140U3CMouseDragOutsideRectU3Ec__Iterator1_t2599668326_CustomAttributesCacheGenerator_U3CMouseDragOutsideRectU3Ec__Iterator1_Dispose_m2134284531P21CustomAttributesCache
lmj:__Z57RuntimeInvoker_ContactPoint_t1376425630_Int32_t2071877448PK10MethodInfoPvPS2_
Hyd:__ZN5physx22NpParticleBaseTemplateINS_15PxParticleFluidENS_15NpParticleFluidEE13setVelocitiesEjRKNS_16PxStrideIteratorIKjEERKNS4_IKNS_6PxVec3EEE
x0i:__Z129RuntimeInvoker_Int32_t2071877448_Il2CppObject_Int32_t2071877448_Int32_t2071877448_Il2CppObject_Int32_t2071877448_SByte_t454417549PK10MethodInfoPvPS2_
H$g:_EncryptedPrivateKeyInfo_get_Algorithm_m2779196942
cJh:_RemotingServices_GetRealProxy_m620317996
S4a:__ZN13dynamic_arrayI11CulledLightLj4EE6insertEPS0_PKS0_S4_
_Rk:__ZL25UnresolvedVirtualCall_176P12Il2CppObject22UICharInfo_t3056636800S1_PK10MethodInfo
BYj:_ArrayReadOnlyList_1_RemoveAt_m2270349795_gshared
QNk:_Predicate_1_Invoke_m2060780095_gshared
Ekb:__ZN10TagManager23VirtualRedirectTransferER18StreamedBinaryReadILb1EE
g_k:__ZN6il2cpp2vm13MetadataCache23GetInterfaceOffsetIndexEi
Po:FUNCTION_TABLE_vif
Qo:FUNCTION_TABLE_vid
Ro:FUNCTION_TABLE_vii
LTa:_UNITY_png_create_write_struct
v$i:__Z149RuntimeInvoker_Boolean_t3825574718_Int32_t2071877448_Il2CppObject_Int32_t2071877448_Int32_t2071877448_Il2CppObject_Int32_t2071877448_SByte_t454417549PK10MethodInfoPvPS2_
Fka:__ZN7Texture23VirtualRedirectTransferER24GenerateTypeTreeTransfer
Jre:_UNITY_FT_Set_Transform
$7b:__ZNK32RendererMaterialAnimationBinding12SetPPtrValueERKN11UnityEngine9Animation10BoundCurveEi
ujl:__ZN6il2cpp8metadata15GenericMetadata20RegisterGenericClassEP18Il2CppGenericClass
KUl:_glDeleteFramebuffers__wrapper
_wg:_Image_get_overrideSprite_m706080347
glc:__Z36Register_UnityEngine_RectOffset_Initv
h5g:_BigInteger_ModInverse_m1881894572
J$k:__ZN6il2cpp2vm7Runtime17GetDelegateInvokeEP11Il2CppClass
iDd:__ZNK5physx15NpActorTemplateINS_14PxRigidDynamicEE14getOwnerClientEv
YTi:__ZL59Slider_t297367283_CustomAttributesCacheGenerator_m_FillRectP21CustomAttributesCache
itb:__ZN28EnlightenRendererInformation8TransferI14SafeBinaryReadEEvRT_
n4a:__ZN14qsort_internal6_QSortIP16RenderObjectDatai25RenderPrePassObjectSorterEEvT_S4_T0_T1_
Eti:__ZL69DefaultDependencyAttribute_t3858269114_CustomAttributesCacheGeneratorP21CustomAttributesCache
Ind:__ZN5physx12NpBatchQuery13getUserMemoryEv
_t:__Z14resize_trimmedINSt3__26vectorIN13AnimationClip12Vector3CurveE13stl_allocatorIS3_L18MemLabelIdentifier25ELi16EEEEEvRT_j
OOa:__ZNK15Lz4Decompressor16DecompressMemoryEPKvPjPvS2_
Lwe:_UNITY_tt_face_build_cmaps
Wia:__ZN29SerializeTraitsForStringTypesINSt3__212basic_stringIcNS0_11char_traitsIcEE13stl_allocatorIcL18MemLabelIdentifier1ELi16EEEEE19ResizeSTLStyleArrayERS7_iS5_
fhi:_Ray_ToString_m2019179238
oQc:__ZN11Rigidbody2D8TransferI24GenerateTypeTreeTransferEEvRT_
Dna:__Z35UnityPropertySheet_MakeSortedColorsRKNSt3__23mapIN9ShaderLab16FastPropertyNameE10ColorRGBAfNS_4lessIS2_EENS_9allocatorINS_4pairIKS2_S3_EEEEEER10vector_mapIS2_S3_S5_NS6_INS7_IS2_S3_EEEEE
Do:FUNCTION_TABLE_iiiiiiffiiiiiiiiiffffiii
mzg:_InputField_get_caretPositionInternal_m3011712053
Yve:_UNITY_tt_face_load_os2
b2d:__ZN5physx2GuL34fullContactsGenerationSphereConvexERKNS0_8CapsuleVERKNS0_11ConvexHullVERKNS_6shdfnd3aos12PsTransformVESB_PNS0_17PersistentContactERjRNS0_13ContactBufferEbRNS0_25PersistentContactManifoldERNS8_5Vec3VERKNS8_6FloatVEb
NDd:__ZN5physx19NpRigidBodyTemplateINS_14PxRigidDynamicEE16setRigidBodyFlagENS_15PxRigidBodyFlag4EnumEb
a7g:_HMAC_get_Key_m2528863640
w9f:_Collection_1_IsSynchronized_m1366278230_gshared
Yyi:__ZL93StringBuilder_t1221177846_CustomAttributesCacheGenerator_StringBuilder_AppendLine_m1686706871P21CustomAttributesCache
dbd:__ZN5physx6shdfnd8PoolBaseINS_2Sc19ConstraintGroupNodeENS0_19ReflectionAllocatorIS3_EEE17releaseEmptySlabsEv
yOb:__Z29Transfer_Blittable_ArrayFieldI14SafeBinaryRead8Vector4fEvRT_R9ArrayInfoRK23StaticTransferFieldInfo
bPe:_Array_get_swapper_TisInt32_t2071877448_m2837069166_gshared
Eii:_RectTransform_INTERNAL_get_rect_m1177342209
jmg:_PointerEventData_IsScrolling_m1971908975
zmg:__ZN16VirtFuncInvoker1IP22MouseState_t3572864619iE6InvokeEjPvi
rml:__GLOBAL__sub_I_RCW_cpp
aTc:__ZN5physx3Cct8SweptBoxD2Ev
VKi:__ZL53UILineInfo_t3621277874_CustomAttributesCacheGeneratorP21CustomAttributesCache
yUd:__ZN5physx2Cm12DelegateTaskINS_13PxsCCDContextEXadL_ZNS2_12postCCDSweepEPNS_10PxBaseTaskEEEED0Ev
JGf:_Decimal_System_IConvertible_ToInt16_m3159038792
Ky:__ZN7mecanim9animation12EvaluateClipEPKNS0_4ClipEPKNS0_9ClipInputEPNS0_10ClipMemoryEPNS0_10ClipOutputE
mSh:_HashAlgorithm_get_CanReuseTransform_m160024219
m3c:__ZN5physx3Cct9SweepTest15onObstacleAddedEjPKNS_17PxObstacleContextERKNS_6PxVec3ES7_f
P8c:__ZN5physx2Gu10SupportMapD2Ev
Etb:__ZN4PPtrI11LightProbesE8TransferI18StreamedBinaryReadILb0EEEEvRT_
yak:_ComVisibleAttribute__ctor_m1789587486
LRc:__Z32Physics2D_CUSTOM_IgnoreCollisionP12Il2CppObjectS0_h
A1h:_MonoMethodInfo_GetReturnType_m2864247130
iMc:__ZN16Physics2DManager25DestroyColliderCollisionsEP10Collider2D
Ei:_JS_WebRequest_Release
xLg:_DirectoryNotFoundException__ctor_m2242202556
Zid:__ZNK5physx15NpActorTemplateINS_18PxArticulationLinkEE12getAggregateEv
xab:__ZNSt3__26__treeINS_12__value_typeINS_12basic_stringIcNS_11char_traitsIcEENS_9allocatorIcEEEE17MessageIdentifierEENS_19__map_value_compareIS7_S9_NS_4lessIS7_EELb1EEENS5_IS9_EEE7destroyEPNS_11__tree_nodeIS9_PvEE
$gf:_String_CreateString_m2448464375
Lqh:_X509SubjectKeyIdentifierExtension__ctor_m2959112706
m$h:_FieldInfo_get_IsNotSerialized_m2322769148
PKd:__ZNK5physx7NpScene18getStaticStructureEv
MCi:__ZL68Math_t2022911894_CustomAttributesCacheGenerator_Math_Max_m2671311541P21CustomAttributesCache
BUd:__ZN5physx13PxsCCDContext12postCCDSweepEPNS_10PxBaseTaskE
sjl:__ZN6il2cpp8metadata15GenericMetadata7InflateEPK19Il2CppGenericMethodPK20Il2CppGenericContext
t1h:_MonoGenericCMethod_get_ReflectedType_m2689239043
a3a:__ZN22PerThreadPageAllocatorC2Ev
x9f:_Collection_1_IsFixedSize_m499196375_gshared
frg:_ColorTween_set_startColor_m3546206870_AdjustorThunk
bhe:__ZN5physx6shdfnd10Foundation19AlignCheckAllocator28deregisterAllocationListenerERNS_20PxAllocationListenerE
yid:__ZN5physx2Sc21ArticulationJointCore12setChildPoseERKNS_11PxTransformE
R1j:_InternalEnumerator_1_get_Current_m4083613828_gshared
y$f:_List_1_System_Collections_IList_get_IsReadOnly_m1745992999_gshared
x8k:__ZN13Il2CppHashMapINSt3__24pairIPK9EventInfoP11Il2CppClassEEj17ReflectionMapHashIS7_E19ReflectionMapEqualsIS7_ENS0_9allocatorINS1_IK10KeyWrapperIS7_EjEEEEEC2EjRKS9_RKSB_
_Dh:_Dictionary_2_Remove_m4114917324_gshared
dvc:__ZN8GUIState8EndOnGUIEv
nkf:_UnicodeEncoding_GetString_m542738941
Oxc:__Z32GUIStyle_Set_Custom_PropWordWrapP12Il2CppObjecth
GCe:_UNITY_TT_Get_VMetrics
YKg:_Path_InsecureGetFullPath_m2635272425
nyf:_Enumerator_Clone_m1124749523
tEf:_DateTime_System_IConvertible_ToUInt32_m1363211018
PWd:__ZN5physx33solveContactCoulombBlockWriteBackEPKNS_23PxcSolverConstraintDescEjRNS_16PxcSolverContextEPNS_25PxcThresholdStreamElementEjPi
kPh:_RuntimeMethodHandle__ctor_m1162528746
rEk:_Predicate_1__ctor_m3243601712_gshared
L_f:_List_1_AsReadOnly_m4108578222_gshared
C2d:__ZN5physx9PxTaskMgr17submitUnnamedTaskERNS_6PxTaskENS_10PxTaskType4EnumE
GRh:_DSA__ctor_m613430209
hPe:_Array_get_swapper_TisPlayable_t3667545548_m4216505466_gshared
TRe:_SetPropertyUtility_SetStruct_TisSingle_t2076509932_m3849235084_gshared
pFa:__ZN7Texture21GetMasterTextureLimitEv
c9k:__ZN6il2cpp2vm10Reflection12HasAttributeEP12Il2CppObjectP11Il2CppClass
hVa:_UNITY_png_write_sRGB
UCc:__ZN8JSONRead21TransferSTLStyleArrayI13dynamic_arrayI4AABBLj4EEEEvRT_18MemLabelIdentifier17TransferMetaFlags
gFk:_InvokableCall_1__ctor_m121193486_gshared
_5:__ZN9ShaderLabL25StaticInitializeShaderLabEPv
Aie:__ZN12MeshCollider23VirtualRedirectTransferER24GenerateTypeTreeTransfer
uSd:__ZNK5physx2Sq12BucketPruner5sweepERKNS0_9ShapeDataERKNS_6PxVec3ERfRNS0_14PrunerCallbackE
T:Math_max
H9f:_Collection_1_System_Collections_IList_Insert_m1511106741_gshared
wQk:__ZL24UnresolvedVirtualCall_92P12Il2CppObjectPK10MethodInfo
R1k:_il2cpp_class_get_methods
$Kg:_Path_CanonicalizePath_m383914732
Yc:invoke_viiiiiffii
Kth:_Enumerator_System_Collections_IEnumerator_get_Current_m1631145297_gshared
vsf:_ArrayList_Synchronized_m2395071980
vol:__ZN6il2cpp2os6Thread16GetCurrentThreadEv
Nhi:_Rect_get_min_m2549872833
Ane:__ZN5physx6shdfnd8internal8HashBaseINS0_4PairIKPKNS0_14NamedAllocatorEPKcEES6_NS0_4HashIS6_EENS1_11HashMapBaseIS6_S9_SC_NS0_20NonTrackingAllocatorEE6GetKeyESE_Lb1EE15reserveInternalEj
GQg:_UnexceptionalStreamWriter_Write_m3206913035
$3b:__Z13RegisterClassI10MeshFilterEvv
fDb:__ZThn28_N14SpriteRendererD1Ev
plb:__ZN10TagManager8TransferI19StreamedBinaryWriteILb0EEEEvRT_
_Xb:__ZN11PreloadData23VirtualRedirectTransferER18StreamedBinaryReadILb0EE
Jul:__ZN6il2cpp6icalls8mscorlib6System10ReflectionL40il2cpp_class_get_generic_type_definitionEP11Il2CppClass
ERh:_DESTransform_ProcessBlock_m2826669227
p7i:__Z115RuntimeInvoker_Void_t1841601450_Il2CppObject_Int32_t2071877448_Int32_t2071877448_SByte_t454417549_Int32_t2071877448PK10MethodInfoPvPS2_
SGg:_Int16_CompareTo_m3493496879
tgj:__Z36RuntimeInvoker_Direction_t1525323322PK10MethodInfoPvPS2_
wIi:__ZL56RenderTexture_t2666733923_CustomAttributesCacheGeneratorP21CustomAttributesCache
WMi:__ZL56ColorWriteMask_t926634530_CustomAttributesCacheGeneratorP21CustomAttributesCache
wxb:__ZN6Sprite17MainThreadCleanupEv
Jyh:_Enumerator_System_Collections_IEnumerator_get_Current_m2191931798_AdjustorThunk
Wxi:__ZL61SignatureDescription_t89145500_CustomAttributesCacheGeneratorP21CustomAttributesCache
r1j:_InternalEnumerator_1_MoveNext_m3389738333_AdjustorThunk
ER:__ZN10AudioMixer14UpdateMuteSoloEv
MNb:__ZNSt3__26vectorINS_12basic_stringIcNS_11char_traitsIcEE13stl_allocatorIcL18MemLabelIdentifier1ELi16EEEES4_IS7_LS5_1ELi16EEE6assignINS_11__wrap_iterIPS7_EEEENS_9enable_ifIXaasr21__is_forward_iteratorIT_EE5valuesr16is_constructibleIS7_NS_15iterator_traitsISF_E9referenceEEE5valueEvE4typeESF_SF_
KVa:__Z17GetMonoManagerPtrv
tvj:_Component_GetComponents_m637589504
lqd:__ZN5physx6shdfnd5ArrayINS_3Scb13MaterialEventENS0_19ReflectionAllocatorIS3_EEE15growAndPushBackERKS3_
p1f:_Stack_1_System_Collections_ICollection_get_SyncRoot_m3151629354_gshared
HEj:_MaskableGraphic_UnityEngine_UI_IClippable_get_gameObject_m954171032
rla:__ZN9ShaderLab10SubProgram7CompileEv
AEa:__ZN7ApiGLES16SetPatchVerticesEi
JAa:__ZN9GfxDevice12PresentFrameEPK14ChannelAssigns
Ucd:__ZN5physx2Sc5Scene11onBodySleepEPNS0_7BodySimE
Iq:__ZN6Object12SetHideFlagsEi
zPa:__ZN10MemoryFileC2E18MemLabelIdentifierP14MemoryFileData14FilePermission
kKh:_TrackingServices_NotifyUnmarshaledObject_m1794048369
JTk:__ZN6il2cpp2vm5Class20FromGenericParameterEPK22Il2CppGenericParameter
cwi:__ZL59RemotingServices_t2399536837_CustomAttributesCacheGeneratorP21CustomAttributesCache
KTc:__ZL28GeomMTDCallback_PlaneCapsuleRN5physx6PxVec3ERfRKNS_10PxGeometryERKNS_11PxTransformES5_S8_
fea:__ZN15GlobalCallbacksC2Ev
Cfb:__ZN11AssetBundle8TransferI14SafeBinaryReadEEvRT_
Laj:__Z97RuntimeInvoker_Void_t1841601450_PlayableU26_t3233213460_Int32_t2071877448_PlayableU26_t3233213460PK10MethodInfoPvPS2_
XZe:_Array_InternalArray__set_Item_TisLabelFixup_t4090909514_m565370771_gshared
jNc:__ZN7b2World10CreateBodyEPK9b2BodyDef
DVk:__ZN15dense_hashtableINSt3__24pairIK10KeyWrapperIPK19Il2CppGenericMethodEPK26Il2CppGenericMethodIndicesEES6_N6il2cpp8metadata23Il2CppGenericMethodHashEN14dense_hash_mapIS6_SA_SE_NSD_26Il2CppGenericMethodCompareENS0_9allocatorISB_EEE9SelectKeyESG_SI_ED2Ev
fte:_UNITY_FT_New_Memory_Face
Npd:__ZNK5physx10NpMaterial18getDynamicFrictionEv
uFi:__ZL74X509Crl_t1699034837_CustomAttributesCacheGenerator_U3CU3Ef__switchU24map13P21CustomAttributesCache
wOh:_SerializationEntry__ctor_m1619256036_AdjustorThunk
ASa:__ZZ23InitPlayerLoopCallbacksvEN43PostLateUpdatePlayerSendFrameCompletestruct7ForwardEv
ecf:__Z15CastclassSealedP12Il2CppObjectP11Il2CppClass
t3b:__ZN15ApplicationInfo14GetSandboxTypeEv
Iqd:__ZN5physx9NpPhysics16createConvexMeshERNS_13PxInputStreamE
fBj:_Playable_IsValid_m2102916683_AdjustorThunk
eQb:__Z18Transfer_BlittableI17RemapPPtrTransferLb1EhEvRK29SerializationCommandArgumentsR31RuntimeSerializationCommandInfo
aql:__ZNSt3__26vectorIjNS_9allocatorIjEEE26__swap_out_circular_bufferERNS_14__split_bufferIjRS2_EE
E5a:__ZN16ReflectionProbes40UpdateRealtimeReflectionProbesTimeslicedEv
_8k:__ZN15dense_hashtableINSt3__24pairIK10KeyWrapperINS1_IPK14Il2CppAssemblyP11Il2CppClassEEEjEES9_17ReflectionMapHashIS8_EN14dense_hash_mapIS9_jSD_19ReflectionMapEqualsIS8_ENS0_9allocatorISB_EEE9SelectKeyESG_SI_E14squash_deletedEv
rIk:_ListPool_1_Get_m529219189_gshared
Vhl:__ZNSt3__26__treeINS_12__value_typeIP24Il2CppReflectionAssemblyPvEENS_19__map_value_compareIS3_S5_NS_4lessIS3_EELb1EEENS_9allocatorIS5_EEE16__insert_node_atEPNS_16__tree_node_baseIS4_EERSF_SF_
cka:__ZN13RenderManager16SetCurrentCameraEP6Camera
vZh:_MethodBuilder_GetBaseDefinition_m774166361
qWk:__ZNK15dense_hashtableI10KeyWrapperIPK17Il2CppGenericInstES4_N6il2cpp8metadata21Il2CppGenericInstHashEN14dense_hash_setIS4_S7_NS6_24Il2CppGenericInstCompareENSt3__29allocatorIS4_EEE8IdentityES9_SC_E10test_emptyERK30dense_hashtable_const_iteratorIS4_S4_S7_SE_S9_SC_E
fcd:__ZN5physx2Sq17SceneQueryManager8addShapeERKNS_7NpShapeERKNS_12PxRigidActorEbPNS_9PxBounds3E
J$b:__ZN18StreamedBinaryReadILb1EE21TransferSTLStyleArrayI13dynamic_arrayIN9ShaderLab21SerializedBindChannelELj4EEEEvRT_17TransferMetaFlags
xvl:__ZN6il2cpp5utils5MatchENSt3__212basic_stringIcNS1_11char_traitsIcEENS1_9allocatorIcEEEEjRKS7_j
Zte:_UNITY_FT_Destroy_Class_psnames_module_class
dKc:__ZNK12b2WheelJoint17GetReactionTorqueEf
ohk:_MRUList_Evict_m2430323183
Ndg:_ReadOnlyCollection_1_System_Collections_Generic_ICollectionU3CTU3E_Remove_m1060547576_gshared
FKj:_Slider_get_reverseValue_m3146075392
Ugl:__ZN6il2cpp2vm5Image9GetCorlibEv
Mwb:__ZN2UI13RectTransform8TransferI18StreamedBinaryReadILb1EEEEvRT_
Que:_ft_bitmap_glyph_bbox
yjl:__ZN6il2cpp2vm11MethodStack17GetStackFramesRawEv
Utd:__ZNK5physx15NpActorTemplateINS_7PxClothEE14getOwnerClientEv
dvj:_Component_GetComponent_m4225719715
wWd:__ZNK5physx2Gu29EPASupportMapPairRelativeImplINS0_8CapsuleVES2_E9doSupportERKNS_6shdfnd3aos5Vec3VERS6_S9_S9_
w0e:_Array_Sort_TisVector4_t2243707581_m474199742_gshared
mge:__ZN5physx10SubSortSAH5sort4EPjjRNS_6shdfnd5ArrayINS_11RTreeNodeNQENS2_19ReflectionAllocatorIS4_EEEERjjPS4_
A8h:_GUIStyle_InitCopy_m3676786505
oQg:_TextWriter_Write_m576684782
mvk:_Vector3_Max_m2105825185
Ak:_glIsVertexArray
Imc:__Z66Register_UnityEngine_Graphics_Internal_GetMaxDrawMeshInstanceCountv
yPa:__ZN25SingleBlockMemoryFileDataC2E18MemLabelIdentifierPvjb
umb:__ZN5Unity9Component8TransferI18StreamedBinaryReadILb0EEEEvRT_
uKg:__ZN16VirtFuncInvoker0IhE6InvokeEjPv
Sa:invoke_fff
CLj:_Text_get_fontSize_m3105730761
KRl:b14
ueh:_TlsServerHello_Update_m1740270635
Jme:__ZN5physx2Sc7PhysicsC2ERKNS_17PxTolerancesScaleERKNS_14PxvOffsetTableE
_Ee:__ZN2UI6Canvas17MainThreadCleanupEv
gIj:_ScrollRect_Rebuild_m3423824761
P_f:_List_1_Find_m3862454845_gshared
MDi:__ZL85Locale_t4255929015_CustomAttributesCacheGenerator_Locale_GetText_m1445803604____args1P21CustomAttributesCache
dhk:_MatchCollection_get_Item_m2609281578
wLa:__ZN7ApiGLES13CreateProgramEv
E9i:__Z74RuntimeInvoker_Boolean_t3825574718_Vector3_t2243707580_Vector3_t2243707580PK10MethodInfoPvPS2_
vNj:_UTF8Encoding__ctor_m100325490
CFa:__ZN4crnd12crn_unpackerD2Ev
fLj:_StencilMaterial_ClearAll_m1372779118
Pk:_emscripten_glTexImage2D
_gj:__Z52RuntimeInvoker_Void_t1841601450_UIVertex_t1204258818PK10MethodInfoPvPS2_
CIh:_ObjRefSurrogate_SetObjectData_m1873902916
rCe:_tt_driver_class_pic_init
b7:__ZN18ScriptingArguments9AddStringEPKc
tcl:__ZN15dense_hashtableINSt3__24pairIK10KeyWrapperIP11Il2CppClassES4_EES5_N6il2cpp8metadata16SZArrayClassHashEN14dense_hash_mapIS5_S4_SA_NS9_19SZArrayClassCompareENS0_9allocatorIS7_EEE9SelectKeyESC_SE_E13set_empty_keyERKS7_
Sbg:_ReadOnlyCollection_1_System_Collections_IList_get_IsReadOnly_m1367736517_gshared
DGi:__ZL116Component_t3819376471_CustomAttributesCacheGenerator_Component_GetComponentsInParent_m1920178904____includeInactive1P21CustomAttributesCache
INl:runPostSets
vWd:__ZNK5physx2Gu29EPASupportMapPairRelativeImplINS0_8CapsuleVES2_E18doWarmStartSupportEiiRNS_6shdfnd3aos5Vec3VES7_S7_
QOi:__ZL93AxisEventData_t1524870173_CustomAttributesCacheGenerator_AxisEventData_set_moveDir_m254243794P21CustomAttributesCache
Jua:__ZL23stbir__resize_arbitraryPvPKviiiS_iiiffffPfiij14stbir_datatype12stbir_filterS4_10stbir_edgeS5_16stbir_colorspace
KVf:_List_1_System_Collections_IList_Insert_m848656350_gshared
nRb:__Z18Transfer_BlittableI24GenerateTypeTreeTransferLb1E8Vector4fEvRK29SerializationCommandArgumentsR31RuntimeSerializationCommandInfo
qHg:_Int16_ToString_m3971652088_AdjustorThunk
Zk:_pthread_detach
M_k:__ZN6il2cpp2vm19SocketPollingThread7RunLoopEv
PNf:_KeyValuePair_2__ctor_m1640124561_AdjustorThunk
ogk:_MethodDictionary_AllocInternalProperties_m3261295876
v5i:__Z197RuntimeInvoker_Boolean_t3825574718_Il2CppObject_Il2CppObject_Il2CppObject_Int32_t2071877448_DateTimeU26_t3448131235_SByte_t454417549_BooleanU26_t3168250738_SByte_t454417549_ExceptionU26_t1467204777PK10MethodInfoPvPS2_
ERd:__ZN5physx11EdgeManager6resizeEj
olh:_IPv6Address_set_ScopeId_m1442934355
Kte:__ZN13TextRendering4Font7PRODUCEE18MemLabelIdentifier18ObjectCreationMode
HFi:__ZL77U3CPrivateImplementationDetailsU3E_t1486305139_CustomAttributesCacheGeneratorP21CustomAttributesCache
p0b:__ZN9ShaderLab25SerializedTextureProperty8TransferI24GenerateTypeTreeTransferEEvRT_
wMk:_Comparison_1_Invoke_m2645957248_gshared
LZl:_emscripten_glIsShader__wrapper
Hxe:_tt_cmap14_char_next
Csi:__ZL69AssemblyTrademarkAttribute_t3740556705_CustomAttributesCacheGeneratorP21CustomAttributesCache
ABa:__ZN13GfxDeviceGLES28GetNativeVertexBufferPointerEP9GfxBuffer
wEd:__ZN5physx2Sc5Scene12removeStaticERNS0_10StaticCoreERNS_6shdfnd11InlineArrayIPKNS0_9ShapeCoreELj64ENS4_19ReflectionAllocatorIS8_EEEEb
B4k:__ZN15dense_hashtableINSt3__24pairIK10KeyWrapperIPK10Il2CppTypeEjEES6_N6il2cpp8metadata14Il2CppTypeHashEN14dense_hash_mapIS6_jSB_NSA_17Il2CppTypeCompareENS0_9allocatorIS8_EEE9SelectKeyESD_SF_E15insert_noresizeERKS8_
Fja:__ZN11NamedObject8TransferI18StreamedBinaryReadILb0EEEEvRT_
pKa:__ZNK17GPUSkinPoseBuffer12GetBoneCountEv
fyc:__Z32GUIStyle_Get_Custom_PropFontSizeP12Il2CppObject
rOh:_DelegatePInvokeWrapper_CallbackHandler_t362827733
fDi:__ZL59ResolveEventArgs_t1859808873_CustomAttributesCacheGeneratorP21CustomAttributesCache
aDj:_GUI_DoTextField_m368568689
e$h:_EventInfo_get_MemberType_m3337516651
pjk:_Parser_ParseHex_m4098274221
iCc:__Z18Transfer_BlittableI8JSONReadLb1EyEvRK29SerializationCommandArgumentsR31RuntimeSerializationCommandInfo
WTk:__ZNK15dense_hashtableINSt3__24pairIK10KeyWrapperIPK22Il2CppGenericParameterEP11Il2CppClassEES6_N6il2cpp5utils11PointerHashIS4_EEN14dense_hash_mapIS6_S9_SE_NS0_8equal_toIS6_EENS0_9allocatorISA_EEE9SelectKeyESH_SJ_E12test_deletedERK24dense_hashtable_iteratorISA_S6_SE_SL_SH_SJ_E
ul:_emscripten_glMatrixMode
wx:__ZN8Animator23VirtualRedirectTransferER18StreamedBinaryReadILb0EE
fsi:__ZL93TypeBuilder_t3308873219_CustomAttributesCacheGenerator_TypeBuilder_GetConstructors_m774120094P21CustomAttributesCache
H9a:__Z22CalculateTransformPathRK9TransformPS0_
cce:__ZN5physx13GuMeshFactory17createHeightFieldERNS_13PxInputStreamE
FHd:__ZN5physx2Sc10NPhaseCore25createShapeInstancePairLLERNS0_8ShapeSimES3_NS_7PxFlagsINS_10PxPairFlag4EnumEtEE
mIh:_MethodReturnDictionary__ctor_m756139344
EX:__ZN11UnityEngine15CloudWebService14DataDispatcher16PrepareDataBlockERNS0_16SessionContainerE
UAj:_CustomAnimationPlayable_AddInput_m3120035390
KId:__ZThn8_N5physx2Sc19ShapeInstancePairLL12onDeactivateEj
b_j:_InternalEnumerator_1__ctor_m967618647_gshared
Eul:__ZN6il2cpp6icalls8mscorlib6System9Threading7Monitor4ExitEP12Il2CppObject
cmj:__Z62RuntimeInvoker_ParameterModifier_t1820634920_Int32_t2071877448PK10MethodInfoPvPS2_
jUb:__ZL26Transfer_SimpleNativeClassI18StreamedBinaryReadILb0EE10RectOffsetLb0EEvRK29SerializationCommandArgumentsR31RuntimeSerializationCommandInfo
Wte:_UNITY_ft_destroy_default_module_classes
D0g:_SymmetricTransform_FinalDecrypt_m3674669784
mTf:_List_1_CheckMatch_m1772343151_gshared
n$a:__ZL12DepthPassJobPN21GfxDeviceAsyncCommand10ArgScratchEPKNS_3ArgE
u_b:__ZNSt3__26vectorIN9ShaderLab20SerializedSubProgram16TextureParameterENS_9allocatorIS3_EEE6assignINS_11__wrap_iterIPS3_EEEENS_9enable_ifIXaasr21__is_forward_iteratorIT_EE5valuesr16is_constructibleIS3_NS_15iterator_traitsISC_E9referenceEEE5valueEvE4typeESC_SC_
JJg:_IntPtr_Equals_m1214967011_AdjustorThunk
whe:__ZN9Rigidbody16ApplyConstraintsEv
HZf:_List_1_Add_m3591975577_gshared
SIe:__Z55Register_UnityEngine_CanvasGroup_get_ignoreParentGroupsv
XFg:_Guid_Equals_m2389236871
WOi:__ZL100PointerEventData_t1599784723_CustomAttributesCacheGenerator_U3CpointerPressRaycastU3Ek__BackingFieldP21CustomAttributesCache
Pvk:_Vector4_ToString_m2340321043
Fn:FUNCTION_TABLE_iiiiiiiiiiii
Kfa:__Z24InitializeIl2CppFromMainRKNSt3__212basic_stringIcNS_11char_traitsIcEENS_9allocatorIcEEEES7_iPPKc
mAd:__ZN5physx2Sc17ParticleSystemSim8setFlagsEj
knb:__ZN16GraphicsSettingsD0Ev
Wbb:__Z29StdTemplateConversionFunctionIshEbPvR14SafeBinaryRead
GXa:__ZN15LODGroupManager21CalculateLODDataArrayERK13LODParametersPK6Cameraf
m:cttz_i8
kAe:_UNITY_FT_GlyphLoader_Add
WAl:_uselocale
efe:__ZN5physx2Gu15EdgeListBuilder18CreateEdgesToFacesEjPKjPKt
v$c:__ZN5physx11PxMeshQuery5sweepERKNS_6PxVec3EfRKNS_10PxGeometryERKNS_11PxTransformEjPKNS_10PxTriangleERNS_10PxSweepHitENS_7PxFlagsINS_9PxHitFlag4EnumEtEEPKjfb
wKa:__Z26TransformVerticesInnerLoopILb0ELb0ELb0EEvPhRK10Matrix4x4fRK10Matrix3x3fjPKhiiiS8_ii25GfxTransformVerticesFlags
OZk:__ZNK15dense_hashtableINSt3__24pairIK10KeyWrapperIPK19Il2CppGenericMethodEPK26Il2CppGenericMethodIndicesEES6_N6il2cpp8metadata23Il2CppGenericMethodHashEN14dense_hash_mapIS6_SA_SE_NSD_26Il2CppGenericMethodCompareENS0_9allocatorISB_EEE9SelectKeyESG_SI_E12test_deletedERK24dense_hashtable_iteratorISB_S6_SE_SK_SG_SI_E
CCi:__ZL47Guid_t2533601593_CustomAttributesCacheGeneratorP21CustomAttributesCache
qKi:__ZL108Physics2D_t2540166467_CustomAttributesCacheGenerator_Physics2D_GetRayIntersectionAll_m253330691____distance1P21CustomAttributesCache
_vh:_Enumerator_VerifyCurrent_m2900414404_AdjustorThunk
hEg:_DateTimeFormatInfo_get_FullDateTimePattern_m2607507656
Ueh:_HttpsClientStream_RaiseServerCertificateValidation_m3356770426
koi:__ZL73Il2CppArray_CustomAttributesCacheGenerator_Array_BinarySearch_m3052238307P21CustomAttributesCache
nIf:_DelegateSerializationHolder__ctor_m3915060553
Q0e:_Array_swap_TisUIVertex_t1204258818_TisUIVertex_t1204258818_m1163375424_gshared
qm:_emscripten_glViewport
dql:__ZN6il2cpp6icalls8mscorlib6System15MonoCustomAttrs17IsDefinedInternalEP12Il2CppObjectP20Il2CppReflectionType
Jzb:__ZN4Mesh21UnswizzleVertexColorsEb
ov:__ZN18StreamedBinaryReadILb1EE21TransferSTLStyleArrayI13dynamic_arrayI11KeyframeTplI8Vector3fELj4EEEEvRT_17TransferMetaFlags
ahj:__Z81RuntimeInvoker_Il2CppObject_Int32_t2071877448_Int32_t2071877448_Color_t2020392075PK10MethodInfoPvPS2_
jeh:_TlsServerSettings_set_CertificateTypes_m264196087
B$j:_InternalEnumerator_1__ctor_m4150855019_gshared
mFf:_DateTime_ToString_m2276663647_AdjustorThunk
oCe:_cff_parse_font_bbox
Zhc:__Z35Application_Get_Custom_PropIsEditorv
J0c:__Z14raycast_sphereRKN5physx10PxGeometryERKNS_11PxTransformERKNS_6PxVec3ES8_fNS_7PxFlagsINS_9PxHitFlag4EnumEtEEjPNS_12PxRaycastHitEbPFbRSD_PvESG_
OFb:__ZN14PlayerSettings23VirtualRedirectTransferER18StreamedBinaryReadILb0EE
a9:__ZN13MonoBehaviour19RebuildMonoInstanceEP11Il2CppClassP12Il2CppObjectP10MonoScript
ePe:_Array_get_swapper_TisCustomAttributeTypedArgument_t1498197914_m2780757375_gshared
lNf:_KeyValuePair_2__ctor_m3201181706_AdjustorThunk
Oyl:__ZN6il2cpp2os5Event5ResetEv
v3a:__Z26CombineDepthNormalsTextureRK17RenderLoopContextR13dynamic_arrayI16RenderObjectDataLj4EE
RDk:_AesManaged__ctor_m2322442838
djl:__ZN6il2cpp8metadata15GenericMetadata17InflateParametersEPK13ParameterInfohPK20Il2CppGenericContextb
VIg:_Int64_System_IConvertible_ToUInt32_m850395426_AdjustorThunk
a8:__ZN18AwakeFromLoadQueue28InvokePersistentManagerAwakeEPNS_4ItemEj17AwakeFromLoadMode
HXh:_TypeBuilder_GetMethodsByName_m229541072
fY:__ZNSt3__215basic_stringbufIcNS_11char_traitsIcEENS_9allocatorIcEEE7seekposENS_4fposI11__mbstate_tEEj
x4e:_HMACSHA512__ctor_m2390736870
Q7d:__ZNK5physx2Cm12DelegateTaskINS_2Sc5SceneEXadL_ZNS3_23postIslandGenSecondPassEPNS_10PxBaseTaskEEEE7getNameEv
Mwl:__ZNSt3__26__treeINS_12__value_typeIPvxEENS_19__map_value_compareIS2_S3_NS_4lessIS2_EELb1EEENS_9allocatorIS3_EEE16__insert_node_atEPNS_16__tree_node_baseIS2_EERSD_SD_
BDb:__ZN4PPtrI6SpriteE8TransferI18StreamedBinaryReadILb0EEEEvRT_
eXa:__ZNK6Camera23CalculateShadowDistanceEv
DXh:_TypeBuilder_GetInterfaces_m1818658502
zgh:_TlsException_get_Alert_m4022765752
X4g:_BigInteger_op_Equality_m2683055762
fga:__Z25SetNeedToPerformRenderingb
aBk:_IntroMenu_ShowDevice_m713915189
O1h:_MonoMethod_GetPseudoCustomAttributes_m466965107
p1a:__ZNSt3__227__insertion_sort_incompleteIR23CompareReflectionProbesP31RuntimeReflectionProbeBlendInfoEEbT0_S5_T_
pqi:__ZL53SortedList_t3004938869_CustomAttributesCacheGeneratorP21CustomAttributesCache
cki:_ResourceRequest_t2560315377_marshal_pinvoke
Uuh:_Enumerator_System_Collections_IDictionaryEnumerator_get_Value_m3005608231_gshared
kPk:__ZL24UnresolvedVirtualCall_26P12Il2CppObjectS0_iiPK10MethodInfo
ZDj:_MaskUtilities_NotifyStencilStateChanged_m1527407683
yVd:__ZN5physxL27PxcSweepAnyShapeHeightfieldERKNS_11PxsCCDShapeES2_PKNS_12PxsRigidBodyES5_RKNS_11PxTransformES8_fRNS_6PxVec3ESA_RNS_10PxcNpCacheERNS_18PxcNpThreadContextE
RZg:_DSAManaged_GenerateKeyPair_m2711647034
r$k:__ZNSt3__214__split_bufferI6pollfdRNS_9allocatorIS1_EEED2Ev
HWe:_Array_InternalArray__ICollection_Add_TisResourceCacheItem_t333236149_m1151081240_gshared
Ydc:__ZNK4Mesh17GetPrimitiveCountEv
EQd:__ZN5physx3Scb5SceneD2Ev
KBf:_Convert_ToInt32_m2209788057
yz:__ZN17AnimationPlayable11DerivesFromEP11Il2CppClass
JMb:__ZN6HelperI14SafeBinaryRead23TransferArrayField_InfoE24SerializationFunctionForERKS1_R23StaticTransferFieldInfoPb
LLh:_SoapServices_GetXmlTypeForInteropType_m3821579913
ODa:__ZN7ApiGLES13CreateTextureEj16TextureDimensionN2gl9TexFormatEiiiii
zXl:_emscripten_glTexParameterfv__wrapper
wkk:_CaptureAssertion_IsComplex_m1433259302
H2k:_il2cpp_method_get_param_count
qQc:__ZN11Rigidbody2D8TransferI19StreamedBinaryWriteILb0EEEEvRT_
Fhe:__Z16GetDynamicsScenev
QHd:__ZThn8_N5physx2Sc18TriggerInteraction7destroyEv
Psk:_TouchScreenKeyboard_get_active_m1442597648
QEi:__ZL68Uri_t19570940_CustomAttributesCacheGenerator_U3CU3Ef__switchU24map15P21CustomAttributesCache
Gye:_ps_dimension_done
Log:_LayoutRebuilder_MarkLayoutForRebuild_m640589351
QEe:__Z46Register_UnityEngine_TextGenerator_Dispose_cppv
lmg:_PointerEventData_get_pressEventCamera_m724559964
mbf:_String_IndexOfUnchecked_m3356721554
Qsb:__ZN16LightmapSettings8TransferI14SafeBinaryReadEEvRT_
WGa:__ZN17BufferManagerGLES13ReleaseBufferEP14DataBufferGLES
l9c:__ZN5physx6shdfnd5ArrayIPvNS0_19ReflectionAllocatorINS_16NpConnectorArrayEEEE15growAndPushBackERKS2_
Ndi:_Mesh_CheckCanAccessSubmesh_m1826512193
j9:__Z64scripting_unity_engine_object_new_and_invoke_default_constructorP11Il2CppClassP6ObjectPP15Il2CppException
NGd:__ZN5physx2Sc5Scene15prepareSimulateEv
gCc:__Z18Transfer_BlittableI8JSONReadLb1EjEvRK29SerializationCommandArgumentsR31RuntimeSerializationCommandInfo
Rad:__ZN5physx6shdfnd5ArrayIPNS_2Sc11InteractionENS0_19ReflectionAllocatorIS4_EEE8recreateEj
uTi:__ZL63ScrollRect_t1199013257_CustomAttributesCacheGenerator_m_InertiaP21CustomAttributesCache
Uwk:_PKCS12_Decrypt_m1557069392
ULj:_VertexHelper_AddUIVertexQuad_m280792808
emh:_WebHeaderCollection_ToString_m1246460752
Enj:__Z37RuntimeInvoker_Enumerator_t2983962278PK10MethodInfoPvPS2_
RBj:_Font_get_fontSize_m1732593415
zq:stackSave
xii:_RectOffset_INTERNAL_CALL_Remove_m1194095901
aze:_ps_dimension_end
LL:__ZN8Animator10SetIntegerEii
Znc:__Z41Register_UnityEngine_Mesh_Internal_Createv
Gdb:__ZN16MemoryFileSystem5TouchER13FileEntryData
$Cb:__ZN14SpriteRenderer23VirtualRedirectTransferER24GenerateTypeTreeTransfer
y6e:_RIPEMD160Managed_JJ_m2933451431
Cpe:__Z63Register_UnityEngine_Physics_INTERNAL_CALL_Internal_RaycastTestv
_4e:_MACTripleDES_Initialize_m1318099802
O7g:_MD5SHA1_VerifySignature_m507888141
dpf:_Byte_System_IConvertible_ToChar_m4188836679
RDg:_NumberFormatter_InitDecHexDigits_m2036076025
xvh:_Enumerator_get_CurrentKey_m3839846791_AdjustorThunk
ECc:__ZN8JSONRead21TransferSTLStyleArrayI13dynamic_arrayIaLj1EEEEvRT_18MemLabelIdentifier17TransferMetaFlags
w6a:__ZN6Camera9SetAspectEf
org:_ColorTween_get_ignoreTimeScale_m641454126_AdjustorThunk
Aa:invoke_viiffiii
i3k:__ZN15dense_hashtableINSt3__24pairIK10KeyWrapperINS1_IPK14Il2CppAssemblyP11Il2CppClassEEEjEES9_17ReflectionMapHashIS8_EN14dense_hash_mapIS9_jSD_19ReflectionMapEqualsIS8_ENS0_9allocatorISB_EEE9SelectKeyESG_SI_E4findERSA_
i5g:_Kernel_modInverse_m3230829577
rbg:_ReadOnlyCollection_1_Contains_m1800950533_gshared
crb:__ZN12CubemapArray8TransferI18StreamedBinaryReadILb1EEEEvRT_
hQi:__ZL79TouchInputModule_t2561058385_CustomAttributesCacheGenerator_m_ForceModuleActiveP21CustomAttributesCache
aZl:_emscripten_glBindVertexArray__wrapper
q7g:_MD4__ctor_m2366413460
Swj:_Display__ctor_m563295973
iCh:_Dictionary_2_InitArrays_m435313205_gshared
kM:__ZN10ObjectPoolIN4FMOD3DSPENS0_4DSPIEE7GetFreeEi
p7a:__ZN9Transform37InitializeTransformHierarchyRecursiveER18TransformHierarchyRii
omi:__ZL80Decimal_t724701077_CustomAttributesCacheGenerator_Decimal_op_Implicit_m233687092P21CustomAttributesCache
Gug:_Graphic_get_useLegacyMeshGeneration_m1366444625
Rlh:_ServicePointManager_get_CheckCertificateRevocationList_m4009410230
dSi:__ZL65InputField_t1631627530_CustomAttributesCacheGenerator_m_InputTypeP21CustomAttributesCache
iQk:__ZL24UnresolvedVirtualCall_78P12Il2CppObjectPK10MethodInfo
aYg:_ModulusRing_Pow_m1137250399
uBl:_fscanf
V6j:_InternalEnumerator_1_MoveNext_m2410670600_AdjustorThunk
YYa:__ZN17MeshRenderingData4InitEP4MeshS1_iP15SharedGfxBufferS3_
x9g:_CipherSuite_get_HashAlgorithmType_m3902365773
zFk:_InvokableCall_2_Find_m1763382885_gshared
ydg:_ReadOnlyCollection_1_System_Collections_ICollection_get_SyncRoot_m2779904122_gshared
V3k:__ZN15dense_hashtableINSt3__24pairIK10KeyWrapperINS1_IPK9FieldInfoP11Il2CppClassEEEjEES9_17ReflectionMapHashIS8_EN14dense_hash_mapIS9_jSD_19ReflectionMapEqualsIS8_ENS0_9allocatorISB_EEE9SelectKeyESG_SI_E12resize_deltaEjj
Qka:__ZN19ShaderPropertySheet38CopyTextureWithAuxiliaryPropertiesFromERKN9ShaderLab16FastPropertyNameERKS_
qqh:_X509ChainStatus__ctor_m3628359961_AdjustorThunk
Dpb:__ZN14DirectorPlayer23VirtualRedirectTransferER19StreamedBinaryWriteILb0EE
EVi:__ZL77LayoutUtility_t4076838048_CustomAttributesCacheGenerator_U3CU3Ef__amU24cache4P21CustomAttributesCache
Fbf:_Evidence_get_HostEvidenceList_m2095478124
Osc:__Z57Register_UnityEngine_Transform_INTERNAL_set_localPositionv
Uah:_Context_Clear_m4000337070
NBa:__ZN13GfxDeviceGLES26SetRandomWriteTargetBufferEi15ComputeBufferID
TCk:_ShieldController_OnTriggerEnter2D_m718778480
Y2a:__ZN18BlockRangeInternal16PopLastNodeIndexEP10BlockRangeji
Sld:__ZN5physx6shdfnd4sortIPvNS0_4LessIS2_EENS0_19ReflectionAllocatorINS_2Cm5BlockIhLj256EEEEEEEvPT_jRKT0_RKT1_j
Usk:_TrackedReference_op_Equality_m3491334086
xug:_FontUpdateTracker_UntrackText_m3827316510
wgb:__ZN18AssetBundleManager19RegisterAssetBundleEP11AssetBundle
Tce:__ZN5physx20InternalTriangleMesh7releaseEv
dUd:__ZN5physx6shdfnd5ArrayINS_16PxsCCDBlockArrayINS_13PxsCCDOverlapELi128EE9BlockInfoENS0_19ReflectionAllocatorIS5_EEE15growAndPushBackERKS5_
ecd:__ZNK5physx7NpShape8getFlagsEv
_cc:__ZNK11ICallString6ToUTF8Ev
ukk:_CaptureAssertion_get_Alternate_m2729005740
frl:_GC_number_stack_black_listed
TGl:__ZNKSt3__220__time_get_c_storageIwE3__cEv
nUh:_Default_SelectMethod_m3081239996
Jma:__ZN18UnityPropertySheet11UnityTexEnvC2Ev
Fvd:__ZNK5physx7NpCloth16getContactOffsetEv
whc:__ZNSt3__214__split_bufferIPN9BlobWrite11TypeContextENS_9allocatorIS3_EEE10push_frontERKS3_
lba:__ZN12FileAccessor4ReadEyyPvPy
ola:__ZN13dynamic_arrayI16ShaderKeywordSetLj4EE6insertEPS0_PKS0_S4_
HVb:__Z29Transfer_Blittable_ArrayFieldI18StreamedBinaryReadILb0EE11QuaternionfEvRT_R9ArrayInfoRK23StaticTransferFieldInfo
pgk:_MethodDictionary_IsOverridenKey_m3922224650
fxf:_SyncHashtable_Contains_m3042906549
ECk:_RiftController_SetActive_m1457606296
aNc:__ZN14dense_hash_mapINSt3__24pairIPK10Collider2DS4_EE11Collision2DNS2_23ColliderPairHashFunctorENS0_8equal_toIS5_EE13stl_allocatorINS1_IKS5_S6_EEL18MemLabelIdentifier65ELi16EEE4findERSB_
tfc:__Z21GetSceneHierarchyPathPK6Object
x0f:_List_1_System_Collections_IList_set_Item_m4016273526_gshared
Trc:__Z63Register_UnityEngine_RenderTexture_Internal_CreateRenderTexturev
Kqh:_X509KeyUsageExtension_CopyFrom_m931530012
U5a:__ZN13RenderTexture9SetHeightEi
yEj:__ZN21InterfaceFuncInvoker0IP25RectTransform_t3349966182E6InvokeEjP11Il2CppClassPv
_Dl:__ZNKSt3__27collateIcE7do_hashEPKcS3_
Voh:_X509Chain_get_CertificateAuthorities_m3325663784
Iob:__ZN16LevelGameManager8TransferI24GenerateTypeTreeTransferEEvRT_
Zcj:__Z102RuntimeInvoker_Int32_t2071877448_Int32_t2071877448_Il2CppObject_Il2CppObject_Il2CppObject_Il2CppObjectPK10MethodInfoPvPS2_
_uj:_Color32__ctor_m1932627809_AdjustorThunk
Lhh:_SslStreamBase_Read_m1036897444
ljl:__ZN15dense_hashtableI10KeyWrapperIP18Il2CppGenericClassES3_N6il2cpp8metadata22Il2CppGenericClassHashEN14dense_hash_setIS3_S6_NS5_25Il2CppGenericClassCompareENSt3__29allocatorIS3_EEE8IdentityES8_SB_E12resize_deltaEjj
KMe:__ZNSt3__24pairIKN4core12basic_stringIcNS1_20StringStorageDefaultIcEEEEN11UnityEngine7Connect19RemoteSettingsValueEEC2ERKSA_
nkl:__ZNK15dense_hashtableINSt3__24pairIK10KeyWrapperIP12Il2CppObjectEN6il2cpp2gc9CachedCCWEEES5_NS7_5utils11PointerHashIS3_EEN14dense_hash_mapIS5_S9_SD_NS0_8equal_toIS5_EENS0_9allocatorISA_EEE9SelectKeyESG_SI_E12test_deletedERK24dense_hashtable_iteratorISA_S5_SD_SK_SG_SI_E
MFj:_RectMask2D_PerformClipping_m1232012832
Rfl:__ZN6il2cpp6icalls8mscorlib6System2IO6MonoIO17GetFileAttributesEP12Il2CppStringPi
Kwh:_Transform_1_Invoke_m4020530914_gshared
mxe:_tt_cmap8_char_index
n6h:_GUILayoutGroup_ResetCursor_m3160916532
zNb:__Z29Transfer_Blittable_ArrayFieldI14SafeBinaryReadjEvRT_R9ArrayInfoRK23StaticTransferFieldInfo
Psj:_Camera_FireOnPostRender_m94860165
JIb:__ZN23PreloadManagerOperationD0Ev
Re:_emscripten_set_keydown_callback
Cwf:_Enumerator_get_Value_m3684748062
rlb:__ZN19StreamedBinaryWriteILb0EE21TransferSTLStyleArrayINSt3__26vectorI17SortingLayerEntryNS2_9allocatorIS4_EEEEEEvRT_17TransferMetaFlags
QTj:_UInt32_Parse_m3371984903
tba:__ZN12FileAccessorC2Ev
xyk:_X509CertificateCollection_Compare_m1014334435
h7a:__ZN9Transform35SetLocalPositionWithoutNotificationERKN4math7_float3E
Jgd:__ZN5physx2Sc15ArticulationSim12applyImpulseERNS0_8BodyCoreERKNS_9PxcFsDataERKNS_6PxVec3ES9_
OCd:__ZNK5physx22NpParticleBaseTemplateINS_16PxParticleSystemENS_16NpParticleSystemEE7getTypeEv
vBj:_Playable_get_duration_m4155589845_AdjustorThunk
gik:_PatternLinkStack_GetCurrent_m2994645935
GIc:__ZNK11b2GearJoint16GetReactionForceEf
kig:_Comparison_1__ctor_m2929820459_gshared
a6e:__ZN16VirtFuncInvoker5IiP22ByteU5BU5D_t3397334013iiS1_iE6InvokeEjPvS1_iiS1_i
Rek:_AsyncResult__ctor_m1183194429
ZI:__ZN4PPtrI13MonoBehaviourE8TransferI18StreamedBinaryReadILb0EEEEvRT_
rgk:_MethodDictionary_set_Item_m3475146889
eV:__ZN12AudioManager9SetVolumeEf
cgd:__ZNK5physx14NpArticulation26getInternalDriveIterationsEv
qkj:__Z54RuntimeInvoker_Void_t1841601450_LabelFixup_t4090909514PK10MethodInfoPvPS2_
iwi:__ZL62WellKnownObjectMode_t2630225581_CustomAttributesCacheGeneratorP21CustomAttributesCache
iMj:_Toggle_PlayEffect_m3950629415
PRg:_MonoCustomAttrs_GetCustomAttribute_m100274015
kta:__ZN13RenderManager18UpdateAllRenderersEv
SI:__ZN18AnimatorController19TransferRuntimeDataI18StreamedBinaryReadILb0EEEEvRT_
mje:__ZThn24_N14PhysicsManagerD1Ev
FKe:__ZN22BaseUnityConnectClient30OnEnteringStatePausedOrStoppedEv
l8f:_Collection_1_System_Collections_ICollection_get_SyncRoot_m2157752542_gshared
xYk:__ZN13dynamic_arrayIPK10Il2CppTypeLj4EE6assignEPKS2_S5_
iz:__ZN7mecanim5human12HumanPoseAddERNS0_9HumanPoseERKS1_S4_
qdj:__Z95RuntimeInvoker_Rect_t3681755626_Single_t2076509932_Single_t2076509932_Il2CppObject_Il2CppObjectPK10MethodInfoPvPS2_
OFk:_UnityAction_1__ctor_m2836997866_gshared
Ppj:_Animator_ResetTrigger_m865269317
nu:__Z14resize_trimmedINSt3__26vectorI24CompressedAnimationCurve13stl_allocatorIS2_L18MemLabelIdentifier25ELi16EEEEEvRT_j
sAi:__ZL64AssemblyLoadEventArgs_t4233815743_CustomAttributesCacheGeneratorP21CustomAttributesCache
o7f:_Collection_1_IsFixedSize_m218241296_gshared
N5b:__Z17BuildSmoothCornerjRP10LineVertexRKN4math8float4x4EPK15LineBuilderDataRKfSA_RK11ColorRGBA32
BBk:_PauseMenu_InitStyles_m3468426782
jfa:__ZN15dense_hashtableINSt3__24pairIKNS0_12basic_stringIcNS0_11char_traitsIcEE13stl_allocatorIcL18MemLabelIdentifier54ELi16EEEEP11AssetBundleEES8_11djb2_hash_tIS8_EN14dense_hash_mapIS8_SB_SE_NS0_8equal_toIS8_EENS0_9allocatorISC_EEE9SelectKeyESH_SJ_EC2ERKSM_j
Z6a:__Z24MergeTransformComponentsR9TransformS0_b
Jbd:__ZThn24_N5physx2Sc20ArticulationJointSimD0Ev
vrj:_DelegatePInvokeWrapper_AudioConfigurationChangeHandler_t3743753033
$Ng:_MonoIO_get_PathSeparator_m2635828107
XLh:_TypeInfo_get_TypeName_m1722081275
YHc:__ZN15b2CircleContactD0Ev
sTg:_MonoType_get_Name_m865859211
IMf:_CultureInfo__cctor_m2290268677
_Xj:_ArrayReadOnlyList_1_System_Collections_IEnumerable_GetEnumerator_m3039869667_gshared
tff:_String_Trim_m3982520224
P5c:__ZN5physx14PxsAABBManager12createBPElemEv
SKh:_RemotingConfiguration__cctor_m2129988840
T4f:_Collection_1_Insert_m44548038_gshared
Fsd:__ZThn12_N5physx7NpShape14onRefCountZeroEv
XTc:__ZL26GeomMTDCallback_ConvexMeshRN5physx6PxVec3ERfRKNS_10PxGeometryERKNS_11PxTransformES5_S8_
eni:__ZL42Il2CppArray_CustomAttributesCacheGeneratorP21CustomAttributesCache
AKb:__ZNK13MonoBehaviour25GetNeedsPerObjectTypeTreeEv
imd:__ZN5physx15NpActorTemplateINS_18PxArticulationLinkEE22setClientBehaviorFlagsENS_7PxFlagsINS_25PxActorClientBehaviorFlag4EnumEhEE
yk:_emscripten_glVertexAttribPointer
sCk:_PlayerController_ScoreLvl_m4019536602
pra:__ZN14PreloadManager26UpdatePreloadingSingleStepENS_21UpdatePreloadingFlagsEi
Aci:_Material__ctor_m1440882780
U8e:_SHA512Managed_Initialize_m891287980
g8d:__ZN18ScBeforeSolverTask11runInternalEv
gxa:__Z19InitializeGfxDevicej
Vbf:_SecurityException__ctor_m1484114982
vck:_SinkProviderData_get_Children_m100594762
czk:_X509Crl_GetHashName_m183504634
Rlf:_Array_GetValue_m1507415734
fqc:__Z57Register_UnityEngine_RectTransform_INTERNAL_set_anchorMinv
FCg:_Object_MemberwiseClone_m2655589444
r8c:__ZL33GeomOverlapCallback_CapsuleConvexRKN5physx10PxGeometryERKNS_11PxTransformES2_S5_PNS_2Gu12TriggerCacheE
vcg:_ReadOnlyCollection_1_System_Collections_IList_get_Item_m375043207_gshared
Ooa:__ZN6prcoreL25inner_stretch_i8_bilinearEPKNS_9InnerInfoE
VY:__ZN11UnityEngine15CloudWebService13WWWRestClient17GetResponseStatusEv
wLg:_DirectoryInfo_ToString_m4208086799
juj:_Collision_get_transform_m4132935520
X1h:_MonoMethod_get_IsGenericMethod_m4276550811
Xwh:_Transform_1_BeginInvoke_m3826027984_gshared
rpj:_AnimationEvent_set_time_m2162176572
MAf:_Decimal_op_Implicit_m2149927308
Ppk:_TextEditor_OnLostFocus_m1193078298
_ce:__ZN5physx20InternalTriangleMesh9loadRTreeERNS_13PxInputStreamEj
LEd:__ZN5physx19NpRigidBodyTemplateINS_14PxRigidDynamicEE25setCMassLocalPoseInternalERKNS_11PxTransformE
DTf:_List_1_set_Capacity_m895816763_gshared
zFd:__ZNK5physx15NpActorTemplateINS_13PxRigidStaticEE14getOwnerClientEv
wMl:__ZNSt3__212basic_stringIwNS_11char_traitsIwEENS_9allocatorIwEEE9__grow_byEjjjjjj
Dll:__ZN6il2cpp6icalls8mscorlib6System9AppDomain22InternalGetProcessGuidEP12Il2CppString
LG:__ZNK25RuntimeAnimatorController30GetAnimationClipOverrideVectorEv
UAd:__ZN5physx2Sc18ParticleSystemCore16releaseParticlesEv
n_g:_KeyPairPersistence_get_UseMachineKeyStore_m560802076
xVd:__ZNK5physx2Gu29EPASupportMapPairRelativeImplINS0_8CapsuleVENS0_4BoxVEE6getDirEv
T1f:_Collection_1_CopyTo_m1840908033_gshared
x0c:__ZN5physx2Gu20intersectTriangleBoxERKNS_6shdfnd3aos5Vec3VES5_S5_S5_S5_
Sth:_Enumerator_System_Collections_IDictionaryEnumerator_get_Entry_m345330700_AdjustorThunk
x0k:__ZNSt3__214__split_bufferIP9FieldInfoRNS_9allocatorIS2_EEEC2EjjS5_
sig:_AbstractEventData__ctor_m3586111519
ERb:__Z18Transfer_BlittableI24GenerateTypeTreeTransferLb1EjEvRK29SerializationCommandArgumentsR31RuntimeSerializationCommandInfo
l7g:_MD2Managed_Padding_m410163267
EMj:_Toggle_UnityEngine_UI_ICanvasElement_get_transform_m4177274032
aob:__ZN11ColorRGBA328TransferI14SafeBinaryReadEEvRT_
eme:__ZN5physx6shdfnd5ArrayIPvNS0_19ReflectionAllocatorINS_24NpPtrTableStorageManager8PtrBlockILi4EEEEEE15growAndPushBackERKS2_
xJb:__ZN24RingBufferMemoryFileData4LockEPPv
c0f:_List_1_set_Capacity_m1734764639_gshared
c8j:_DefaultComparer__ctor_m76117625_gshared
Fua:__Z11IsHDRFormat13TextureFormat
Frj:_Bounds__ctor_m1202659404_AdjustorThunk
mki:_Rigidbody2D_INTERNAL_get_velocity_m3018296454
vg:_emscripten_glClearDepth
eqb:__ZN8Playable12SetPlayStateE9PlayState
Cnj:__Z70RuntimeInvoker_Boolean_t3825574718_Il2CppObject_BooleanU26_t3168250738PK10MethodInfoPvPS2_
Rvb:__ZN14SafeBinaryRead21TransferSTLStyleArrayINSt3__26vectorIN15QualitySettings14QualitySettingENS1_9allocatorIS4_EEEEEEvRT_17TransferMetaFlags
T0e:_Array_swap_TisVector2_t2243707579_m3359959735_gshared
hoe:__Z13RegisterClassI12MeshColliderEvv
MLg:_File_OpenText_m4058508963
ruj:_Collision_get_frictionForceSum_m3438602686
v7i:__Z54RuntimeInvoker_Double_t4078015681_Interval_t2354235237PK10MethodInfoPvPS2_
vFb:__ZNSt3__26vectorINS_4pairIPKN5Unity4TypeE7Hash128EENS_9allocatorIS7_EEE8__appendEj
YLh:_WellKnownClientTypeEntry__ctor_m670594074
qRi:__ZL61FontData_t2614388407_CustomAttributesCacheGenerator_m_MinSizeP21CustomAttributesCache
hv:__ZN18StreamedBinaryReadILb1EE8TransferIN7mecanim13ValueConstantEEEvRT_PKc17TransferMetaFlags
iEf:_DateTime_System_IConvertible_ToSingle_m3927769066_AdjustorThunk
ABe:_cff_font_load
auk:_Enumerator_Reset_m950879083
afh:_RecordProtocol_SendRecord_m2977889250
TXd:__ZN5physx35solveContactPreBlock_ConcludeStaticEPKNS_23PxcSolverConstraintDescEjRNS_16PxcSolverContextE
aAk:_BatController_DisableCollision_m3478726040
Pua:__ZL22stbir__encode_scanlineP11stbir__infoiPvPfiii
aNh:_ObjectReader_ReadObjectInstance_m571922473
F7i:__Z84RuntimeInvoker_Void_t1841601450_Int32_t2071877448_Int32_t2071877448_SByte_t454417549PK10MethodInfoPvPS2_
Hpe:__ZN20QuadTreeNodeRenderer13StaticDestroyEPv
hU:__ZN14AudioBehaviourD2Ev
A5b:__ZN9Transform12CleanupClassEv
Xjj:__Z49RuntimeInvoker_Int32_t2071877448_Rect_t3681755626PK10MethodInfoPvPS2_
Sah:_ClientContext_set_ClientHelloProtocol_m2246603449
Fad:__ZN5physx6shdfnd5ArrayIPvNS0_15InlineAllocatorILj256ENS0_19ReflectionAllocatorINS_2Cm5BlockIS2_Lj32EEEEEEEE15growAndPushBackERKS2_
g7d:__ZN5physx18PxsSolverStartTask13setupDescTaskEv
jte:_UNITY_FT_Set_Pixel_Sizes
YAg:_U3CMouseDragOutsideRectU3Ec__Iterator1_MoveNext_m2845491958
k$b:__ZNSt3__26vectorIN9ShaderLab19SerializedSubShaderENS_9allocatorIS2_EEE26__swap_out_circular_bufferERNS_14__split_bufferIS2_RS4_EE
m5k:__ZNK15dense_hashtableINSt3__24pairIK10KeyWrapperINS1_IPK10MethodInfoP11Il2CppClassEEEjEES9_17ReflectionMapHashIS8_EN14dense_hash_mapIS9_jSD_19ReflectionMapEqualsIS8_ENS0_9allocatorISB_EEE9SelectKeyESG_SI_E10test_emptyEj
Av:__ZN11UnityEngine9Animation28AnimationClipBindingConstant8TransferI24GenerateTypeTreeTransferEEvRT_
Sui:__ZL59IChannelReceiver_t2788889625_CustomAttributesCacheGeneratorP21CustomAttributesCache
yng:_StandaloneInputModule_IsModuleSupported_m623598506
xSc:__ZN5physx3Cct13BoxController6resizeEf
$$i:__Z31RuntimeInvoker_Byte_t3683104436PK10MethodInfoPvPS2_
P3h:_ResourceReader_Close_m3256966401
vQh:_SByte_ToString_m4105923225_AdjustorThunk
_ib:_LZ4_compress_generic
tOh:_StreamingContext_t1417235061_marshal_pinvoke_cleanup
MMf:_CultureInfo_ConstructCurrentUICulture_m3363349599
uGi:__ZL87Component_t3819376471_CustomAttributesCacheGenerator_Component_GetComponent_m3720754210P21CustomAttributesCache
Lnf:__ZN21InterfaceFuncInvoker1IxP12Il2CppObjectE6InvokeEjP11Il2CppClassPvS1_
MSg:_MonoType_GetEvent_m4160342003
wFj:_RawImage_set_texture_m2400157626
M8d:__ZN5physx6shdfnd5ArrayINS_2Cm12DelegateTaskINS_2Sc5SceneEXadL_ZNS5_19updateCCDSinglePassEPNS_10PxBaseTaskEEEEENS0_19ReflectionAllocatorIS8_EEE8recreateEj
ELk:_PrimeHelper_ToPrime_m1606935350_gshared
vDe:_Dual_Project
PHh:_EqualityComparer_1__ctor_m81618677_gshared
X4a:__ZNSt3__27__sort4IRNS_6__lessI11CulledLightS2_EEPS2_EEjT0_S6_S6_S6_T_
mal:__ZN6il2cpp2vm14TypeNameParser26ParseArrayModifierOptionalEv
wVg:_MSCompatUnicodeTable_Level3_m260824928
xBg:_LayoutElement_OnEnable_m3478706401
AVh:_ConstructorBuilder_get_CallingConvention_m443074051
Gdl:__ZN6il2cpp6icalls8mscorlib6System10Reflection8Assembly13get_code_baseEP24Il2CppReflectionAssemblyb
Puh:_Enumerator_System_Collections_IDictionaryEnumerator_get_Entry_m487599172_gshared
Gmd:__ZN5physx34NpShapeGetScRigidObjectFromScbSLOWERKNS_3Scb5ShapeE
X9h:_GUIStyle_CalcMinMaxWidth_m2027503105
Qbj:__Z135RuntimeInvoker_RaycastHit2D_t4063908774_Vector2_t2243707579_Vector2_t2243707579_Single_t2076509932_Int32_t2071877448_Single_t2076509932PK10MethodInfoPvPS2_
Naf:_X509Certificate_Reset_m1676863543
A_g:_KeyPairPersistence_Load_m1355205585
UHj:_ScrollRect_get_horizontalScrollbarVisibility_m4152068235
mIg:_Int32_ToString_m2960866144_AdjustorThunk
ZYk:__ZN15dense_hashtableI10KeyWrapperIPK19Il2CppGenericMethodES4_N6il2cpp8metadata23Il2CppGenericMethodHashEN14dense_hash_setIS4_S7_NS6_26Il2CppGenericMethodCompareENSt3__29allocatorIS4_EEE8IdentityES9_SC_E12maybe_shrinkEv
eOk:_Predicate_1_Invoke_m3539717340_gshared
Bvi:__ZL83MethodDictionary_t1742974787_CustomAttributesCacheGenerator_U3CU3Ef__switchU24map21P21CustomAttributesCache
xed:__ZNK5physx21PxsBodyTransformVault12getTransformERKNS_11PxsBodyCoreE
BCk:_RiftController_Awake_m2610619319
Wjj:__Z57RuntimeInvoker_Int32_t2071877448_RaycastHit2D_t4063908774PK10MethodInfoPvPS2_
gol:__ZN6il2cpp6icalls8mscorlib6System11Environment15internalGetHomeEv
uZb:__ZN9ShaderLab26SerializedShaderDependencyC2ERKS0_
xxk:_PKCS12_get_Keys_m288413492
vYk:__ZN13dynamic_arrayIPK10Il2CppTypeLj4EE4backEv
ekb:__ZNK5Unity9Component7GetNameEv
Ylj:__Z49RuntimeInvoker_Slot_t2267560602_Int32_t2071877448PK10MethodInfoPvPS2_
a1k:__ZNSt3__214__split_bufferIN6il2cpp6icalls8mscorlib6System12PropertyPairERNS_9allocatorIS5_EEEC2EjjS8_
Zxa:__ZN13RenderTexture9SetActiveEPS_i11CubemapFaceij
IBi:__ZL79Convert_t2607082565_CustomAttributesCacheGenerator_Convert_ToUInt16_m2130758075P21CustomAttributesCache
sUc:__ZN44ConvexVsHeightfieldContactGenerationCallback7onEventEjPj
ttg:__ZN18VirtActionInvoker1IP22GameObject_t1756533147E6InvokeEjPvS1_
ECi:__ZL58IFormatProvider_t2849799027_CustomAttributesCacheGeneratorP21CustomAttributesCache
UIk:_ObjectPool_1_Get_m3724675538_gshared
j6:__Z27LogRepeatingStringWithFlagsRKNSt3__212basic_stringIcNS_11char_traitsIcEENS_9allocatorIcEEEE15LogMessageFlagsi
cab:__ZN13ScreenManagerD0Ev
wVa:_UNITY_png_set_error_fn
$o:FUNCTION_TABLE_diiii
tJl:__ZNKSt3__27codecvtIwc11__mbstate_tE5do_inERS1_PKcS5_RS5_PwS7_RS7_
KJc:__ZNK11b2RopeJoint16GetReactionForceEf
EE:__ZN7mecanim8skeleton26SkeletonPoseComputeGlobalQEPKNS0_8SkeletonEPKNS0_13SkeletonPoseTIN4math4trsXEEEPS7_ii
Jvg:_Graphic_UnregisterDirtyMaterialCallback_m819829270
oCc:__ZN8JSONRead21TransferSTLStyleArrayI13dynamic_arrayIfLj4EEEEvRT_18MemLabelIdentifier17TransferMetaFlags
ZVd:__ZN5physx2Gu19_gjkRelativeRayCastINS0_9TriangleVENS0_8CapsuleVEEEbRT_RT0_RKNS_6shdfnd3aos15PsMatTransformVERKNS9_6FloatVERKNS9_5Vec3VESI_RSD_RSG_SK_f
Zvc:__ZN11IMGUIModule18MonoBehaviourDoGUIEiR14ObjectGUIStateN13MonoBehaviour13GUILayoutTypeEi21ScriptingMethodIl2Cpp4PPtrIS2_E
fWf:_List_1_GetEnumerator_m2672519407_gshared
bE:__ZN9BlobWrite8TransferI22OffsetPtrArrayTransferIiEEEvRT_PKc17TransferMetaFlags
hVg:_ContractionComparer_Compare_m314873025
H3f:_Collection_1_IsFixedSize_m1690655146_gshared
iQb:__Z18Transfer_BlittableI17RemapPPtrTransferLb1EjEvRK29SerializationCommandArgumentsR31RuntimeSerializationCommandInfo
Wai:_GUIUtility_EndGUIFromException_m2091524531
gfd:__ZN5physx6shdfnd5ArrayIPvNS0_15InlineAllocatorILj256ENS0_19ReflectionAllocatorINS_11NpAggregateEEEEEE15growAndPushBackERKS2_
EIg:_Int64_System_IConvertible_ToDouble_m638786774
aEd:__ZNK5physx14NpRigidDynamic21getMaxAngularVelocityEv
MQ:__ZN4FMOD6System7releaseEv
ZRd:__ZN5physx6shdfnd8PoolBaseINS_2Sc18TriggerInteractionENS0_19ReflectionAllocatorIS3_EEE15disposeElementsEv
Gwf:_HashKeys_get_IsSynchronized_m4207641174
hTb:__Z18Transfer_BlittableI19StreamedBinaryWriteILb0EELb1E8BitFieldEvRK29SerializationCommandArgumentsR31RuntimeSerializationCommandInfo
rmj:__Z55RuntimeInvoker_TextEditOp_t3138797698_Int32_t2071877448PK10MethodInfoPvPS2_
qOf:_Enumerator_MoveNext_m3078170540_AdjustorThunk
jne:__ZN5physx28PxcContactCapsuleHeightFieldERKNS_2Gu13GeometryUnionES3_RKNS_11PxTransformES6_RKfRNS_10PxcNpCacheERNS0_13ContactBufferE
w9e:_SymmetricAlgorithm_get_Padding_m718051685
O4:__ZN26RecursivePlayableTraverser8TraverseER9FrameDataP8PlayableS3_P14DirectorPlayeriPvf
jag:_Collection_1_IsFixedSize_m1280898648_gshared
Vpb:__ZN15DirectorManager18ScheduleForRemovalEP18PlayableController
nUc:__ZL31PointInConvexPolygon2D_OutCodesPKfjffffRh
lCd:__ZN5physx22NpParticleBaseTemplateINS_16PxParticleSystemENS_16NpParticleSystemEE18setDynamicFrictionEf
Tnc:__Z22Mesh_CUSTOM_HasChannelP12Il2CppObject30InternalScriptingShaderChannel
aqa:__ZN6prcoreL17RemapGenericFloatI18TexFormatRGBAFloat17TexFormatRGBFloatEEvPKNS_9InnerInfoE
cqb:__ZN8Playable11SetDurationEd
Fxh:_Transform_1_BeginInvoke_m2296443620_gshared
tid:__ZN5physx2Sc21ArticulationJointCore21setInternalComplianceEf
FAi:__ZL76Convert_t2607082565_CustomAttributesCacheGenerator_Convert_ToChar_m541258017P21CustomAttributesCache
Qge:__ZNK5physx6shdfnd10Foundation13getErrorLevelEv
OO:__ZN11AudioSource31UpdateEffectVirtualizationStateEb
J9h:_GUIUtility_Internal_GetHotControl_m2510727642
NO:__ZN12AudioManager29ShutdownReinitializeAndReloadEv
Ewk:_NetscapeCertTypeExtension_Decode_m2210025005
jDi:__ZL59StringComparison_t2376310518_CustomAttributesCacheGeneratorP21CustomAttributesCache
W9d:__ZN5physx2Cm12DelegateTaskINS_2Sc5SceneEXadL_ZNS3_15postNarrowPhaseEPNS_10PxBaseTaskEEEE11runInternalEv
koe:__Z20ConvertContactToMonoP9Collision
yrj:_AudioSource_PlayOneShot_m4118899740
oRc:__ZN17PhysicsMaterial2D7PRODUCEE18MemLabelIdentifier18ObjectCreationMode
bji:_RectTransform_GetLocalCorners_m1836626405
fMh:_BaseFixupRecord_DoFixup_m1821597450
RLg:_FileLoadException__ctor_m1356374414
Y9g:_TlsStream_Reset_m1504601050
i5j:_InternalEnumerator_1_System_Collections_IEnumerator_get_Current_m1810411564_AdjustorThunk
Bhc:__Z29GetGlobalAllowNameConversionsv
mUc:__ZL17transformVerticesRfS_S_S_PfjPKN5physx6PxVec3EPKhRKNS1_7PxMat33E
one:__ZNK5physx2Gu15HeightFieldUtil31getFaceIndexAtShapePointNoTest2Ejff
IU:__ZN9AudioClip27IsFormatSupportedByPlatformERKNSt3__212basic_stringIcNS0_11char_traitsIcEENS0_9allocatorIcEEEE
r3d:__ZN5physx6shdfnd5ArrayIPNS_14PxLightCpuTaskENS0_13TempAllocatorEE6resizeEjRKS3_
RCh:_Dictionary_2_System_Collections_ICollection_CopyTo_m3578539931_gshared
zoi:__ZL67Type_t_CustomAttributesCacheGenerator_Type_IsSubclassOf_m2450899481P21CustomAttributesCache
HS:__ZN11AudioSource23VirtualRedirectTransferER18StreamedBinaryReadILb0EE
_d:___syscall91
Wel:__ZN13dynamic_arrayIP12Il2CppObjectLj4EE20resize_uninitializedEjb
_Sd:__ZNK5physx2Sq10AABBPruner5sweepERKNS0_9ShapeDataERKNS_6PxVec3ERfRNS0_14PrunerCallbackE
OSb:__ZN10RectOffset8TransferI19StreamedBinaryWriteILb0EEEEvRT_
z7:__ZL41AssemblyNameMatchesWithOrWithoutExtensionPKcS0_
Kib:__ZN21ArchiveStorageCreatorC2Ev
YNd:__ZN5physx2Sc5Scene21fireCallBacksPostSyncEv
Dqj:_AssemblyIsEditorAssembly__ctor_m2639706522
vIa:__ZN14GfxContextGLES43AddRenderSurfaceToDeferredFBOInvalidateListEPK17RenderSurfaceGLES
cXk:__ZN15dense_hashtableINSt3__24pairIK10KeyWrapperINS0_12basic_stringIcNS0_11char_traitsIcEENS0_9allocatorIcEEEEEP11Il2CppClassEES9_N6il2cpp5utils11StringUtils12StringHasherIS8_EEN14dense_hash_mapIS9_SC_SI_NS0_8equal_toIS9_EENS6_ISD_EEE9SelectKeyESL_SM_EC2EjRKSI_RKSL_RKSO_
EUd:__ZN5physx17PxsCCDAdvanceTask11runInternalEv
yka:__ZN11NamedObject23VirtualRedirectTransferER14SafeBinaryRead
VYk:__ZN15dense_hashtableI10KeyWrapperIPK19Il2CppGenericMethodES4_N6il2cpp8metadata23Il2CppGenericMethodHashEN14dense_hash_setIS4_S7_NS6_26Il2CppGenericMethodCompareENSt3__29allocatorIS4_EEE8IdentityES9_SC_E15insert_noresizeERKS4_
Yse:__ZNSt3__26vectorIN20TextRenderingPrivate8FontImpl13CharacterInfoE13stl_allocatorIS3_L18MemLabelIdentifier1ELi16EEE6insertENS_11__wrap_iterIPKS3_EERS9_
Cra:__ZN23PreloadManagerOperation6IsDoneEv
cgb:__ZN15SerializeTraitsINSt3__24pairI8UnityStrN11AssetBundle9AssetInfoEEEE8TransferI19StreamedBinaryWriteILb0EEEEvRS5_RT_
i2g:_X509Certificate_get_RawData_m3000055075
rUk:__ZNSt3__26vectorIPK10Il2CppTypeNS_9allocatorIS3_EEE21__push_back_slow_pathIRKS3_EEvOT_
Fbc:__Z33GetHasChangedDeprecatedSystemMaskv
Xkl:__ZN6il2cpp5utils11StringUtils11Utf16ToUtf8ERKNSt3__212basic_stringIDsNS2_11char_traitsIDsEENS2_9allocatorIDsEEEE
cLg:_MonoIO_GetException_m2577367044
F2c:__ZN5physx3Cct26CharacterControllerManagerD2Ev
Euh:_Enumerator_VerifyState_m1165543189_AdjustorThunk
QEf:_DateTime_AddSeconds_m722082155_AdjustorThunk
Vtf:_SynchronizedArrayListWrapper_CopyTo_m956887031
q8j:_Comparer_1__ctor_m1202126643_gshared
Ava:__ZN21LightProbeProxyVolume18HasHardwareSupportEv
O0a:__ZN26LightProbeProxyVolumeCacheC2ER13BatchRendererR15RenderLoopStats
Joa:__ZN6prcoreL31inner_stretch_argb8888_bilinearEPKNS_9InnerInfoE
RWb:__Z18Transfer_BlittableI18StreamedBinaryReadILb1EELb1E8BitFieldEvRK29SerializationCommandArgumentsR31RuntimeSerializationCommandInfo
Cve:_UNITY_FT_Outline_Decompose
UOk:__ZL23UnresolvedVirtualCall_8P12Il2CppObjectS0_S0_PK10MethodInfo
edh:_TlsClientCertificate_get_ClientCertificate_m3062440489
vbf:_StrongNamePublicKeyBlob_ToString_m3721281223
FNi:__ZL80UnityEvent_t408735097_CustomAttributesCacheGenerator_UnityEvent__ctor_m588741179P21CustomAttributesCache
g$j:_InternalEnumerator_1_get_Current_m198513457_AdjustorThunk
fUd:__ZN5physx6shdfnd8internal8HashBaseINS0_4PairIKNS3_IPKNS_12PxsRigidCoreEPKNS_12PxsShapeCoreEEEPNS_11PxsCCDShapeEEESA_NS0_4HashISA_EENS1_11HashMapBaseISA_SD_SG_NS0_9AllocatorEE6GetKeyESI_Lb1EE15reserveInternalEj
c3j:_InternalEnumerator_1__ctor_m1240086835_AdjustorThunk
JY:__ZN11UnityEngine15CloudWebService10RestClientINS0_16WWWRestHeaderMapEED2Ev
Nkc:__Z31Display_CUSTOM_GetSystemExtImpl13Il2Cpp_IntPtrPiS0_
ztc:__Z58Register_UnityEngine_Object_Internal_CloneSingleWithParentv
eEh:_Dictionary_2_GetEnumerator_m2438316440_gshared
GFg:_TextInfo_ToUpper_m299550697
jwh:_ShimEnumerator_get_Entry_m2332479818_gshared
OOd:__ZN5physx2Sc5Scene21setDominanceGroupPairEhhRKNS_20PxDominanceGroupPairE
Qhg:_ReadOnlyCollection_1_System_Collections_IList_Contains_m4073811941_gshared
c3a:__ZN18ShadowMapJobHeaderD0Ev
Mug:_Graphic_OnRectTransformDimensionsChange_m1610753363
JCf:_Convert_ToUInt16_m3265369225
O:Math_exp
mSg:_MonoEnumInfo_get_Cache_m3551569711
Wp:FUNCTION_TABLE_iiifi
Mll:__ZN6il2cpp2os5posix13PosixAutoLockD2Ev
xQe:_Array_InternalArray__ICollection_Contains_TisVector3_t2243707580_m3625701788_gshared
Fxa:__ZNSt3__26vectorINS_4pairIyP17VertexDeclarationEENS_9allocatorIS4_EEE6insertENS_11__wrap_iterIPKS4_EERS9_
L2k:_il2cpp_object_get_virtual_method
BWb:__Z30TransferField_LinearCollectionI18StreamedBinaryReadILb1EEEvRK29SerializationCommandArgumentsR31RuntimeSerializationCommandInfo
yYa:__ZNK17MeshRenderingData30ExtractMeshBuffersAndDrawRangeEjiR11MeshBuffersR16DrawBuffersRangeb
Pyh:_Enumerator_get_Current_m3774065880_gshared
ive:_UNITY_FT_Create_Class_sfnt_module_class
VLj:_Text_CalculateLayoutInputHorizontal_m1578553982
QIi:__ZL87Object_t1021602117_CustomAttributesCacheGenerator_Object_DestroyObject_m282495858____t1P21CustomAttributesCache
Oml:__ZNSt3__218uninitialized_copyIPNS_4pairIK10KeyWrapperIP14Il2CppIUnknownEjEES8_EET0_T_SA_S9_
mGd:__ZN5physx7NpScene12loadFromDescERKNS_11PxSceneDescE
iHf:_Decimal_IsZero_m3557909184_AdjustorThunk
srf:_Char_ToString_m1401375624
h5e:_MD5CryptoServiceProvider__cctor_m3309191799
z2:__ZNK10FileSystem16LastErrorMessageEv
MZf:__ZN21InterfaceFuncInvoker0I20UIVertex_t1204258818E6InvokeEjP11Il2CppClassPv
Bsh:_InterpreterFactory_get_NamesMapping_m3186583301
Mck:_ConfigHandler_ReadCustomProviderData_m784203316
bQf:_Enumerator_System_Collections_IEnumerator_Reset_m3052395060_gshared
GOe:__ZN22UnityWebRequestManager10InitializeEv
tgb:__ZN17PersistentManager24GetTypeFromPathAndFileIDERKNSt3__212basic_stringIcNS0_11char_traitsIcEENS0_9allocatorIcEEEEx
q5g:_Kernel_DwordDivMod_m3728402123
vKb:__ZN13MonoBehaviour13AwakeFromLoadE17AwakeFromLoadMode
VMc:__ZN16CircleCollider2D14CreateInternalEP11Rigidbody2D
aQb:__ZL26Transfer_SimpleNativeClassI17RemapPPtrTransfer8GradientLb1EEvRK29SerializationCommandArgumentsR31RuntimeSerializationCommandInfo
Tbc:__ZN12CachedWriter9InitWriteER15CacheWriterBase
Wtc:__Z21UnsignedInt64ToStringy
oNj:_UTF7Decoder__ctor_m549434986
MOd:__ZN5physx14PxsAABBManager15createAggregateEPvb
Q5j:_InternalEnumerator_1_get_Current_m1025321669_AdjustorThunk
lfi:_Object_t1021602117_marshal_pinvoke
poc:__Z36MonoBehaviour_CUSTOM_InvokeRepeatingP12Il2CppObjectP12Il2CppStringff
Zvk:_WaitForSecondsRealtime_get_keepWaiting_m741039114
atc:__Z66Register_UnityEngine_Transform_INTERNAL_CALL_InverseTransformPointv
E0j:_InternalEnumerator_1_MoveNext_m2720582493_gshared
mUf:_List_1_IndexOf_m1434084853_gshared
jb:invoke_iiiiifiiiif
cpl:__ZN15dense_hashtableINSt3__24pairIK10KeyWrapperIPK19Il2CppGenericMethodEP10MethodInfoEES6_N6il2cpp8metadata23Il2CppGenericMethodHashEN14dense_hash_mapIS6_S9_SD_NSC_26Il2CppGenericMethodCompareENS0_9allocatorISA_EEE9SelectKeyESF_SH_E5clearEv
vrh:_Group__ctor_m4103922028
HVa:__ZN6Camera26ClearIntermediateRenderersEj
p$k:__ZNSt3__214__split_bufferI6pollfdRNS_9allocatorIS1_EEEC2EjjS4_
ZUa:_UNITY_png_write_pCAL
LYl:_glLinkProgram__wrapper
opa:__ZN6prcoreL12RemapGenericI17TexFormatARGB888815TexFormatBGR888EEvPKNS_9InnerInfoE
n5e:_MD5CryptoServiceProvider_ProcessFinalBlock_m1052610785
juf:_BitArray_Set_m2878881714
xSk:__ZL25UnresolvedVirtualCall_201P12Il2CppObjectPK10MethodInfo
E8f:_Collection_1_get_Item_m4215988522_gshared
Asd:__ZN5physx7NpShape8requiresERNS_23PxProcessPxBaseCallbackE
Cel:__ZN6il2cpp6icalls8mscorlib6System13Globalization11CultureInfo35construct_internal_locale_from_nameEP17Il2CppCultureInfoP12Il2CppString
BYi:__Z58RuntimeInvoker_Il2CppObject_Int32_t2071877448_Il2CppObjectPK10MethodInfoPvPS2_
N3f:__ZN18VirtActionInvoker2Ii40CustomAttributeTypedArgument_t1498197914E6InvokeEjPviS0_
hRb:__ZL22Transfer_ManagedObjectI24GenerateTypeTreeTransferLb1EEvRK29SerializationCommandArgumentsR31RuntimeSerializationCommandInfo
vJ:__ZN25RuntimeAnimatorController8TransferI19StreamedBinaryWriteILb0EEEEvRT_
L_j:_InternalEnumerator_1_Dispose_m1132415659_AdjustorThunk
ARk:__ZL25UnresolvedVirtualCall_150P12Il2CppObject38CustomAttributeNamedArgument_t94157543PK10MethodInfo
Mti:__ZL55COMException_t1790481504_CustomAttributesCacheGeneratorP21CustomAttributesCache
WYg:_ASN1_get_Count_m404940548
fek:_ContextAttribute_Equals_m53324298
aAg:_InputField_MoveLeft_m688575903
Jk:_emscripten_set_main_loop_timing
Okc:__Z34Display_CUSTOM_GetRenderingExtImpl13Il2Cpp_IntPtrPiS0_
UXk:__ZN15dense_hashtableINSt3__24pairIK10KeyWrapperI13dynamic_arrayIPK10Il2CppTypeLj4EEEPFvvEEES8_N6il2cpp8metadata19Il2CppSignatureHashEN14dense_hash_mapIS8_SB_SF_NSE_22Il2CppSignatureCompareENS0_9allocatorISC_EEE9SelectKeyESH_SJ_E12resize_deltaEjj
hXj:_WeakReference_AllocateHandle_m1783929473
qid:__ZN5physx2Sc21ArticulationJointCore22setTangentialStiffnessEf
b$d:__ZNK5physx20SingleAABBUpdateTask7getNameEv
x8a:__ZN14ImageReference10FlipImageYEv
Owj:_DebugLogHandler_LogFormat_m177245518
WHl:__ZNKSt3__210moneypunctIwLb0EE11do_groupingEv
emb:__Z32TransferEnumWithNameForceIntSizeI14SafeBinaryRead13TargetEyeMaskEvRT_RT0_PKc17TransferMetaFlags
Svc:__Z14GetDefaultSkini
OMf:_CultureInfo_get_Name_m3316229893
GEf:_DateTime_get_Ticks_m310281298_AdjustorThunk
hM:__ZN4FMOD3DSP9setBypassEb
N9f:_Collection_1_System_Collections_IList_get_Item_m287847793_gshared
Yeb:__Z19NormalizeWheelInputf
hrh:_CaptureCollection_CopyTo_m1982767892
Xbb:__Z29StdTemplateConversionFunctionIsaEbPvR14SafeBinaryRead
FQe:_Array_InternalArray__ICollection_Remove_TisLink_t865133271_m1984184141_gshared
BCc:__Z29Transfer_Blittable_ArrayFieldI8JSONReadhEvRT_R9ArrayInfoRK23StaticTransferFieldInfo
eCg:_LayoutRebuilder_IsDestroyed_m3442208294
sfc:__ZN11MonoManager25GetImageFromAssemblyIndexEi
j4h:_GUIContent_get_text_m2984350578
$wd:__ZN5physx2Sc9ClothCore17addCollisionPlaneERKNS_21PxClothCollisionPlaneE
ZWi:__Z123RuntimeInvoker_Void_t1841601450_Int32U26_t455636984_Il2CppObject_Il2CppObject_BooleanU26_t3168250738_BooleanU26_t3168250738PK10MethodInfoPvPS2_
ESa:__ZZ23InitPlayerLoopCallbacksvEN43PostLateUpdateClearImmediateRenderersstruct7ForwardEv
aFc:__Z18Transfer_BlittableI9JSONWriteLb1EtEvRK29SerializationCommandArgumentsR31RuntimeSerializationCommandInfo
KOi:__ZL110ExecuteEvents_t1693084770_CustomAttributesCacheGenerator_ExecuteEvents_U3Cs_HandlerListPoolU3Em__0_m2903690915P21CustomAttributesCache
SLg:_FileLoadException__ctor_m918124939
$k:___syscall85
lce:__ZNK5physx13PxHeightField8isKindOfEPKc
Grf:__ZN18VirtActionInvoker1IP12Il2CppObjectE6InvokeEjPvS1_
rZa:__ZNSt3__26__sortIRPFbP10GUIElementS2_EPS2_EEvT0_S7_T_
_5g:_SequentialSearchPrimeGeneratorBase_GenerateSearchBase_m2930465198
ate:__Z14ValidateFormatR13dynamic_arrayIN20TextRenderingPrivate16TextFormatChangeELj4EE
FS:__ZNK11AudioSource26GetTypeInfoVirtualInternalEv
Gih:__ZN23InterfaceActionInvoker2IP12Il2CppObjectS1_E6InvokeEjP11Il2CppClassPvS1_S1_
gUk:__ZN6il2cpp2vmL21SetupInterfacesLockedEP11Il2CppClassRKNS_2os12FastAutoLockE
Ayd:__ZNK5physx15NpActorTemplateINS_15PxParticleFluidEE12getAggregateEv
O9d:__ZNK5physx2Sc18ParticleSystemCore16getInternalFlagsEv
Xqh:_Capture__ctor_m885749277
Uvh:_Enumerator_MoveNext_m2619008060_AdjustorThunk
_xg:_SubmitEvent__ctor_m222860306
k1c:__ZN16ControllerFilter9preFilterERKN5physx12PxFilterDataEPKNS0_7PxShapeEPKNS0_12PxRigidActorERNS0_7PxFlagsINS0_9PxHitFlag4EnumEtEE
XX:__ZN11UnityEngine15CloudWebService14DataDispatcher15SetupWebRequestEv
p3i:__Z94RuntimeInvoker_Int32_t2071877448_Il2CppObject_Int32_t2071877448_Il2CppObject_Int32_t2071877448PK10MethodInfoPvPS2_
fQg:_TextWriter__cctor_m4047845042
E5b:__ZN13TrailRenderer26RendererCullingOutputReadyEPP12BaseRendererjPK6CameraRK10Matrix4x4f
zfh:_ReceiveRecordAsyncResult_get_Record_m1336421357
DLe:__ZN11UnityEngine15PlatformWrapper13GetShaderCapsEv
wUe:__ZN16VirtFuncInvoker2IbP12Il2CppObjectS1_E6InvokeEjPvS1_S1_
ZZd:__ZN16MBPOS_TmpBuffers16allocateSleepingEjj
CAi:__ZL76Convert_t2607082565_CustomAttributesCacheGenerator_Convert_ToByte_m509311047P21CustomAttributesCache
F4h:_GUILayoutGroup_GetNext_m1899084055
syg:_InputField_CaretBlink_m3960486606
Mk:_emscripten_glGetProgramiv
gRb:__Z65EmitSerializationCommandsForLinearCollectionOfManagedObjectsFieldI24GenerateTypeTreeTransferEvRK23TransferArrayField_InfoR20SerializationCommandR32SerializationCommandQueueBuilderRP20AllowNameConversions
Cdk:__ZN23InterfaceActionInvoker3IP12Il2CppObjectbbE6InvokeEjP11Il2CppClassPvS1_bb
__g:_SmallXmlParser_ReadCharacters_m1966365555
hhh:_InternalAsyncResult_get_CompletedWithError_m3993955322
O9b:__ZN21FixedBehaviourManager6UpdateEv
wdc:__ZN9Transform9SetParentEPS_NS_15SetParentOptionE
Ocg:_ReadOnlyCollection_1_System_Collections_IList_Add_m527174473_gshared
hOj:_EventWaitHandle__ctor_m106135182
ese:__ZNK20TextRenderingPrivate7FontRefltERKS0_
Rsa:__ZN19RuntimeSceneManager24BeginIntegrateMainThreadEP10UnityScene
D8i:__Z42RuntimeInvoker_RuntimePlatform_t1869584967PK10MethodInfoPvPS2_
dgd:__ZN5physx14NpArticulation26setExternalDriveIterationsEj
QUc:__ZN16RayRTreeCallbackILi0ELb0EED0Ev
e8i:__Z80RuntimeInvoker_Void_t1841601450_Il2CppObject_Int32_t2071877448_Int16_t4041245914PK10MethodInfoPvPS2_
v3d:__ZN5physx20PxsParticleSystemSim23scheduleCollisionUpdateERNS_10PxBaseTaskE
lql:__ZNSt3__2plIcNS_11char_traitsIcEENS_9allocatorIcEEEENS_12basic_stringIT_T0_T1_EERKS9_S6_
J1i:__Z53RuntimeInvoker_MonoEventInfo_t2190036573_Il2CppObjectPK10MethodInfoPvPS2_
YQg:_LocalDataStoreSlot__cctor_m1192669356
Q_b:__ZN9ShaderLab20SerializedSubProgramaSERKS0_
bOl:_roundf
bhf:_String_CreateString_m2556700934
olb:__ZN18StreamedBinaryReadILb0EE21TransferSTLStyleArrayINSt3__26vectorI17SortingLayerEntryNS2_9allocatorIS4_EEEEEEvRT_17TransferMetaFlags
ZJi:__ZL80Physics_t634932869_CustomAttributesCacheGenerator_Physics_RaycastAll_m3650851272P21CustomAttributesCache
a4c:__ZN5physx15PxBoxControllerD0Ev
Jx:__ZN8Animator15SetPrepareStageEv
GKj:_Slider_get_axis_m162140813
X0h:_MonoEventInfo_t2190036573_marshal_pinvoke
hUk:__ZN6il2cpp2vmL24SetupTypeHierarchyLockedEP11Il2CppClassRKNS_2os12FastAutoLockE
w4k:__ZN15dense_hashtableINSt3__24pairIK10KeyWrapperIPK10Il2CppTypeEjEES6_N6il2cpp8metadata14Il2CppTypeHashEN14dense_hash_mapIS6_jSB_NSA_17Il2CppTypeCompareENS0_9allocatorIS8_EEE9SelectKeyESD_SF_E4findERS7_
a1a:__Z20CalculateLightMatrixRK15SharedLightDataP10Matrix4x4f
aJj:_ScrollRect_SetLayoutHorizontal_m3486408020
Ase:_destroy_face
mLk:_GenericEqualityComparer_1_GetHashCode_m116190842_gshared
B4h:_GUIWordWrapSizer__ctor_m201432832
xri:__ZL55StreamWriter_t3858580635_CustomAttributesCacheGeneratorP21CustomAttributesCache
y4c:__ZN5physx19PxAllocatorCallbackD2Ev
Pul:__ZN6il2cpp6icalls8mscorlib6System8Security12Cryptography24RNGCryptoServiceProvider13RngInitializeEP11Il2CppArray
y_f:_List_1_System_Collections_ICollection_get_IsSynchronized_m227393674_gshared
Wkh:_IPAddress__cctor_m3624830012
NBd:__ZNK5physx15NpActorTemplateINS_16PxParticleSystemEE17getDominanceGroupEv
zT:__ZN20SoundChannelInstance7setMuteEb
yKj:_Slider_Rebuild_m3442875945
qpb:__ZN4PPtrI5LightE8TransferI19StreamedBinaryWriteILb0EEEEvRT_
y2c:__ZN5physx3Cct26CharacterControllerManager21createObstacleContextEv
FKi:__ZL115AnimatorStateInfo_t2577870592_CustomAttributesCacheGenerator_AnimatorStateInfo_t2577870592____nameHash_PropertyInfoP21CustomAttributesCache
slc:__Z49Register_UnityEngine_RectOffset_INTERNAL_CALL_Addv
Qmh:_AsnEncodedData_EnhancedKeyUsageExtension_m1452131166
wHl:__ZNSt3__210moneypunctIcLb0EED2Ev
gTi:__ZL69Scrollbar_t3248359358_CustomAttributesCacheGenerator_m_OnValueChangedP21CustomAttributesCache
wXb:__Z19TransferField_ArrayI18StreamedBinaryReadILb1EE27Converter_SimpleNativeClassI17AnimationCurveTplIfEEEvRK23StaticTransferFieldInfoR31RuntimeSerializationCommandInfoRT0_
kNf:_KeyValuePair_2__ctor_m3201181706_gshared
CQc:__ZN7b2World18SetContactListenerEP17b2ContactListener
gBd:__ZN5physx15NpActorTemplateINS_15PxParticleFluidEE7releaseEv
Crh:_GroupCollection_get_IsSynchronized_m1100663675
DEa:__ZN18GfxFramebufferGLES22MakeCurrentFramebufferENS_7BuiltinE
Lul:__ZN6il2cpp2vm12MarshalAlloc4FreeEPv
bsh:_Interpreter_Close_m1500459069
yId:__ZN5physx6shdfnd5ArrayIPNS_2Sc19ShapeInstancePairLLENS0_19ReflectionAllocatorIS4_EEE15growAndPushBackERKS4_
LWf:_List_1_System_Collections_ICollection_get_SyncRoot_m690028787_gshared
tHb:__ZN30RuntimeInitializeOnLoadManager23VirtualRedirectTransferER18StreamedBinaryReadILb1EE
Jja:__ZN12CachedReader4ReadEPvj
iZd:__ZN5physx21MBPPostUpdateWorkTaskD0Ev
eAe:_cf2_blues_init
rkd:__ZN5physx2Sc8BodyCore24clearSpatialAccelerationEbb
k$j:_InternalEnumerator_1_System_Collections_IEnumerator_get_Current_m3600601141_gshared
i8e:_SHA1Internal_HashFinal_m3188468925
vvk:_Vector3_op_Inequality_m799191452
ocl:__ZN30dense_hashtable_const_iteratorINSt3__24pairIK10KeyWrapperIP11Il2CppClassES4_EES5_N6il2cpp8metadata16SZArrayClassHashEN14dense_hash_mapIS5_S4_SA_NS9_19SZArrayClassCompareENS0_9allocatorIS7_EEE9SelectKeyESC_SE_E30advance_past_empty_and_deletedEv
d1a:__Z24CalculateLightShadowFadeRK6CamerafffR8Vector4f
F7:__ZN19RuntimeSceneManagerD2Ev
BDi:__ZL55HeaderHandler_t324204131_CustomAttributesCacheGeneratorP21CustomAttributesCache
Sbk:_ChannelData_get_CustomProperties_m1470957369
D4k:__ZNK15dense_hashtableINSt3__24pairIK10KeyWrapperIPK10Il2CppTypeEjEES6_N6il2cpp8metadata14Il2CppTypeHashEN14dense_hash_mapIS6_jSB_NSA_17Il2CppTypeCompareENS0_9allocatorIS8_EEE9SelectKeyESD_SF_E12test_deletedEj
Ioa:__ZN6prcore17GetIntegerBlitterE13TextureFormatS0_N14ImageReference8BlitModeE
rId:__ZN5physx10PxsContext20createContactManagerERKNS_24PxvManagerDescRigidRigidEPNS_18PxsMaterialManagerE
nLc:__ZN13BoxCollider2DD0Ev
bvh:_Enumerator_VerifyState_m3173176371_AdjustorThunk
EGd:__ZN5physx2Cm12DelegateTaskINS_7NpSceneEXadL_ZNS2_12executeSolveEPNS_10PxBaseTaskEEEED0Ev
xVc:__ZN5physx2GuL18gPCMHullPrefetchCBEjPKNS_6PxVec3E
mad:__ZN5physx2Sc5Scene31removeActiveBreakableConstraintEPNS0_13ConstraintSimE
rJg:_Int64_ToString_m1275187741
Zjh:_TypeConverterAttribute__cctor_m506796812
Rif:_Encoding_get_IsReadOnly_m3729101432
Ahc:__ZN9BlobWrite14ReduceCopyImplERK14ReduceCopyDataj
KWj:_ValueType_t3507792607_marshal_pinvoke_back
w8j:_Comparer_1_System_Collections_IComparer_Compare_m1790257529_gshared
doj:__Z37RuntimeInvoker_Enumerator_t3220004478PK10MethodInfoPvPS2_
_$h:_MethodInfo_get_ContainsGenericParameters_m572340060
aKc:__ZNK12b2WheelJoint10GetAnchorAEv
PMd:__ZN5physx6shdfnd5ArrayINS_12PxActorShapeENS0_19ReflectionAllocatorIS2_EEE15growAndPushBackERKS2_
WPa:__ZN25MultiBlocksMemoryFileData17AdjustBlocksCountEj
qBk:_LobsterProjectile_OnTriggerEnter2D_m717516755
_ga:__ZNK22BuiltinResourceManager11GetResourceEPKN5Unity4TypeERKNSt3__212basic_stringIcNS4_11char_traitsIcEENS4_9allocatorIcEEEE
OEb:__ZNK11TimeManager26GetTypeInfoVirtualInternalEv
Zah:_TlsClientHello__ctor_m1699671541
RDh:_Dictionary_2_pick_value_m1594475014_gshared
Dqe:__ZN13TextRendering4Font8TransferI24GenerateTypeTreeTransferEEvRT_
iea:__ZN17CommonStringTableC2Ev
Adk:_Context_NotifyGlobalDynamicSinks_m2916447645
Dkc:__Z27CullingGroup_CUSTOM_DisposeP12Il2CppObject
Ygi:_Random_Range_m2884721203
rel:__ZN6il2cpp6icalls8mscorlib6SystemL23CheckWideningConversionEjjj
wkj:__Z48RuntimeInvoker_Void_t1841601450_Mark_t2724874473PK10MethodInfoPvPS2_
T5h:_GUILayoutEntry_ApplyStyleSettings_m371609721
vn:FUNCTION_TABLE_fiiffffiiiii
apd:__ZN5physx2Sc14ConstraintCore8setFlagsENS_7PxFlagsINS_16PxConstraintFlag4EnumEtEE
d7f:_Collection_1_Remove_m1798559666_gshared
kn:_glStencilMask
lml:__ZN6il2cpp2os10ThreadImpl16GetCurrentThreadEv
fbe:__ZNK5physx2Sc15ClothFabricCore20getNbParticleIndicesEv
_eb:__ZN15GUIEventManager10QueueEventERK10InputEvent
Iuh:_Enumerator_System_Collections_IEnumerator_get_Current_m2010873149_gshared
Csg:_Resources_t2975512894_marshal_pinvoke_cleanup
spj:_AnimationEvent_get_messageOptions_m3547411650
Eoi:__ZL88Type_t_CustomAttributesCacheGenerator_Type_MakeGenericType_m2765875033____typeArguments0P21CustomAttributesCache
eUi:__ZL74SpriteState_t1353336012_CustomAttributesCacheGenerator_m_HighlightedSpriteP21CustomAttributesCache
xKh:_RealProxy__ctor_m2505535530
ssl:_GC_push_conditional_with_exclusions
AUj:_UInt32_System_IConvertible_ToUInt16_m2798641702_AdjustorThunk
EMh:_BinaryFormatter_get_DefaultSurrogateSelector_m219714691
jie:__ZN8Collider23VirtualRedirectTransferER18StreamedBinaryReadILb1EE
vz:__ZN21AnimationPosePlayableD0Ev
BY:__ZN11UnityEngine15CloudWebService10RestClientINS0_16WWWRestHeaderMapEE6SetUrlERK8UnityStr
hTd:__ZN5physx2Sq8AABBTree11shiftOriginERKNS_6PxVec3E
cWh:_ILGenerator_label_fixup_m1325994348
z7g:_MD4Managed_Encode_m2097839378
L9f:_Collection_1_System_Collections_IList_get_IsFixedSize_m3252091801_gshared
Bij:__Z57RuntimeInvoker_Boolean_t3825574718_LabelFixup_t4090909514PK10MethodInfoPvPS2_
Krg:_FloatTween_get_ignoreTimeScale_m4161298485_AdjustorThunk
Zrc:__Z44Register_UnityEngine_RenderTexture_set_depthv
C3h:__ZN16VirtFuncInvoker0IP18Stream_t3255436806E6InvokeEjPv
Feg:_ReadOnlyCollection_1_System_Collections_IList_get_IsFixedSize_m993752291_gshared
TAk:_IntroMenu_mainMenu_m847070236
E9c:__ZN5physx2Sc7BodySim6wakeUpEv
xK:__ZN11UnityEngine9Animation28GenericAnimationBindingCache25RegisterIAnimationBindingE11ClassIDTypeiP17IAnimationBinding
Xvg:__ZN21InterfaceFuncInvoker1IP19Graphic_t2426225576iE6InvokeEjP11Il2CppClassPvi
cWg:_SimpleCollator_GetSortKey_m2188419329
hId:__ZN5physx6shdfnd8PoolBaseINS_2Gu30LargePersistentContactManifoldENS0_19ReflectionAllocatorIS3_EEE17releaseEmptySlabsEv
$9c:__ZN5physx2Sc21ConstraintInteraction7destroyEv
YUi:__ZL56LayoutElement_t2808691390_CustomAttributesCacheGeneratorP21CustomAttributesCache
sGj:_Scrollbar_Set_m244028386
Spc:__Z33Register_UnityEngine_Random_Rangev
ttc:__Z27Object_CUSTOM_DestroyObjectP12Il2CppObjectf
FWd:__ZN5physx13PxsSolverCoreD2Ev
PIl:__ZNSt3__211__money_putIwE8__formatEPwRS2_S3_jPKwS5_RKNS_5ctypeIwEEbRKNS_10money_base7patternEwwRKNS_12basic_stringIcNS_11char_traitsIcEENS_9allocatorIcEEEERKNSE_IwNSF_IwEENSH_IwEEEESQ_i
mdb:__ZN16MemoryFileSystem6ParentERK13FileEntryDataRNSt3__212basic_stringIcNS3_11char_traitsIcEENS3_9allocatorIcEEEE
kGb:__ZN14PlayerSettings8TransferI18StreamedBinaryReadILb0EEEEvRT_
I0k:__ZN6il2cpp6icalls8mscorlib6System8MonoType16GetMethodsByNameEP20Il2CppReflectionTypeP12Il2CppStringibS5_
izj:_AnimationPlayable_op_Implicit_m408821639
jXk:__ZN15dense_hashtableI10KeyWrapperIPK19Il2CppGenericMethodES4_N6il2cpp8metadata23Il2CppGenericMethodHashEN14dense_hash_setIS4_S7_NS6_26Il2CppGenericMethodCompareENSt3__29allocatorIS4_EEE8IdentityES9_SC_E4swapERSF_
NJd:__ZNK5physx7NpScene16getNbConstraintsEv
g2e:_LayoutGroup_SetProperty_TisAxis_t1431825778_m2174054513_gshared
Kvd:__ZN5physx7NpCloth14setWakeCounterEf
Vub:__ZN4PPtrI10GameObjectE8TransferI14SafeBinaryReadEEvRT_
bEj:_Mask_IsRaycastLocationValid_m62488857
BJi:__ZL105Physics_t634932869_CustomAttributesCacheGenerator_Physics_Raycast_m2036777053____queryTriggerInteraction5P21CustomAttributesCache
Kxa:__ZNSt3__27__sort3IRNS_4lessIN22BuiltinResourceManager8ResourceEEEPS3_EEjT0_S7_S7_T_
M7j:_DefaultComparer_Compare_m3472472212_gshared
rMg:_MonoIO_GetLength_m2812344043
Oye:_ps_hints_t2mask
_Ni:__ZL68UsedByNativeCodeAttribute_t3212052468_CustomAttributesCacheGeneratorP21CustomAttributesCache
dqk:_TextEditor_MoveTextEnd_m158107192
ook:_SliderHandler_ThumbRect_m4193953892_AdjustorThunk
QBb:__ZN10BlendShape8TransferI19StreamedBinaryWriteILb0EEEEvRT_
Yia:__ZL4WalkRK16TypeTreeIteratorR12CachedReaderPib
wce:__ZNK5physx2Gu11HeightField17getReferenceCountEv
Wtk:_Transform_IsChildOf_m10844547
PM:__Z32TransferEnumWithNameForceIntSizeI14SafeBinaryReadN10SampleClip8LoadTypeEEvRT_RT0_PKc17TransferMetaFlags
Bga:__Z19GetTimeSinceStartupv
Eka:__ZN7Texture23VirtualRedirectTransferER17RemapPPtrTransfer
rdf:_SecurityFrame_get_Assembly_m2816566490
u$h:_FieldInfo_GetPseudoCustomAttributes_m2500972355
m5c:__ZN5physx3Scb5Scene10getPxSceneEv
dEe:_TT_Load_Composite_Glyph
ewk:_NetFxCoreExtensions_CreateDelegate_m2492743074
LRk:__ZL25UnresolvedVirtualCall_161P12Il2CppObject22UILineInfo_t3621277874S1_PK10MethodInfo
y9a:__Z33MultiplyMatrixArrayWithBase4x4REFPK10Matrix4x4fS1_S1_PS_j
mXi:__Z51RuntimeInvoker_Boolean_t3825574718_Int64_t909078037PK10MethodInfoPvPS2_
pmf:_Array_Sort_m2994254654
h0f:_List_1__ctor_m593058937_gshared
_Se:_Array_InternalArray__IEnumerable_GetEnumerator_TisColor32_t874517518_m2198639025_gshared
U2a:__ZN29RenderNodeQueuePrepareContextC2Ev
i0b:__ZN9ShaderLab20SerializedSubProgram16TextureParameter8TransferI24GenerateTypeTreeTransferEEvRT_
kPj:_Thread_set_Name_m1343706609
bxl:__ZN6il2cpp2os11MutexHandle4WaitEj
Fgc:__ZL34GetComponentsImplementationRecurseILb1ELi1ELi1EEbR10GameObjectbRK17CompareParametersRK39GetComponentsImplementation_ReturnValue
axl:__ZN6il2cpp2os11MutexHandle4WaitEv
Prf:_ArrayList_set_Capacity_m592558035
xqa:__ZN6prcoreL17RemapGenericFloatI15TexFormatRGHalf18TexFormatARGBFloatEEvPKNS_9InnerInfoE
qSg:_MonoEnumInfo_t2335995564_marshal_pinvoke_cleanup
zia:__ZNK13RenderTexture13GetDataHeightEv
DIg:_Int64_System_IConvertible_ToDecimal_m3390697048_AdjustorThunk
AVa:__ZN13RenderManager23AddRemoveCamerasDelayedEv
$Ua:_UNITY_png_write_pHYs
Era:__ZN23PreloadManagerOperation11GetPriorityEv
jLf:_Exception_get_InnerException_m3722561235
_Qe:_Array_InternalArray__ICollection_Remove_TisILTokenInfo_t149559338_m1523907845_gshared
YYf:_List_1_GetEnumerator_m4053501645_gshared
YHb:__ZN30RuntimeInitializeOnLoadManager9ClassInfo8TransferI18StreamedBinaryReadILb1EEEEvRT_
Xgk:__ZN21InterfaceFuncInvoker4IP17Match_t3164245899P17Regex_t1803876613P8String_tiiE6InvokeEjP11Il2CppClassPvS3_S5_ii
fwf:_Hashtable_Rehash_m2877670513
kfl:__ZN6il2cpp2vm8Liveness3EndEPv
T5a:__ZN13RenderTexture8SetWidthEi
oAg:_InputField_Insert_m1593238693
m5b:__ZNK28RectTransformPropertyBinding12SetPPtrValueERKN11UnityEngine9Animation10BoundCurveEi
Oxh:_Transform_1_EndInvoke_m958090529_gshared
tUb:__Z18Transfer_BlittableI18StreamedBinaryReadILb0EELb0EfEvRK29SerializationCommandArgumentsR31RuntimeSerializationCommandInfo
bCb:__ZN10MeshFilterD0Ev
fEe:_UNITY_FT_GlyphLoader_CheckSubGlyphs
z3i:__Z132RuntimeInvoker_Int32_t2071877448_Il2CppObject_Int32_t2071877448_Int32_t2071877448_Il2CppObject_Int32_t2071877448_Int32U26_t455636984PK10MethodInfoPvPS2_
X_k:__ZN6il2cpp2vm21ThreadPoolCompartment20SpawnNewWorkerThreadEv
CWe:_Array_InternalArray__ICollection_Add_TisCustomAttributeTypedArgument_t1498197914_m3260005285_gshared
Wwf:_SyncHashtable_GetObjectData_m3774367030
qIg:_Int32_ToString_m1128850770
ZFg:_Guid_GetHashCode_m1401300871
GIk:_ListPool_1_U3Cs_ListPoolU3Em__0_m1243609651_gshared
mzc:__Z42Register_UnityEngine_GUIStyle_set_fontSizev
Gsi:__ZL61CallingConventions_t1097349142_CustomAttributesCacheGeneratorP21CustomAttributesCache
Jrd:__ZNK5physx9NpFactory11getNbShapesEv
Vtg:_FontData__ctor_m3822008992
pXi:__Z140RuntimeInvoker_Boolean_t3825574718_Il2CppObject_Int32_t2071877448_Il2CppObject_SByte_t454417549_Int64U26_t763825331_ExceptionU26_t1467204777PK10MethodInfoPvPS2_
ROk:__ZL23UnresolvedVirtualCall_5P12Il2CppObjectsPK10MethodInfo
dG:__ZN4PPtrI6AvatarE8TransferI19StreamedBinaryWriteILb0EEEEvRT_
Fgj:__Z42RuntimeInvoker_ScreenMatchMode_t1916789528PK10MethodInfoPvPS2_
k5:__ZN9ShaderLab16FastPropertyName4InitEPKc
JIc:__ZN11b2GearJointD0Ev
ECj:_GUI_Label_m2412846501
Xaa:__Z18PathToAbsolutePathRKNSt3__212basic_stringIcNS_11char_traitsIcEENS_9allocatorIcEEEE
x6k:__ZN15dense_hashtableINSt3__24pairIK10KeyWrapperINS1_IPK12PropertyInfoP11Il2CppClassEEEjEES9_17ReflectionMapHashIS8_EN14dense_hash_mapIS9_jSD_19ReflectionMapEqualsIS8_ENS0_9allocatorISB_EEE9SelectKeyESG_SI_E13clear_deletedER30dense_hashtable_const_iteratorISB_S9_SD_SK_SG_SI_E
y4b:__Z13RegisterClassIN2UI13RectTransformEEvv
AVg:_MSCompatUnicodeTable_ToWidthCompat_m2299599532
gUg:_NumberFormatter_get_IsFloatingSource_m2830957202
jBb:__ZN10VertexData8TransferI17RemapPPtrTransferEEvRT_
X5a:__ZN13RenderTexture9SetMipMapEb
aFl:__ZNKSt3__27num_getIwNS_19istreambuf_iteratorIwNS_11char_traitsIwEEEEE6do_getES4_S4_RNS_8ios_baseERjRl
eFl:__ZNKSt3__27num_getIwNS_19istreambuf_iteratorIwNS_11char_traitsIwEEEEE6do_getES4_S4_RNS_8ios_baseERjRm
aIj:_ScrollRect_set_verticalScrollbarSpacing_m2356851539
$El:__ZNKSt3__27num_getIwNS_19istreambuf_iteratorIwNS_11char_traitsIwEEEEE6do_getES4_S4_RNS_8ios_baseERjRb
Upb:__Z18GetDirectorManagerv
iFl:__ZNKSt3__27num_getIwNS_19istreambuf_iteratorIwNS_11char_traitsIwEEEEE6do_getES4_S4_RNS_8ios_baseERjRe
PUg:_OperatingSystem_GetObjectData_m2276196875
ykb:__ZNK10TagManager26GetTypeInfoVirtualInternalEv
bFl:__ZNKSt3__27num_getIwNS_19istreambuf_iteratorIwNS_11char_traitsIwEEEEE6do_getES4_S4_RNS_8ios_baseERjRx
fFl:__ZNKSt3__27num_getIwNS_19istreambuf_iteratorIwNS_11char_traitsIwEEEEE6do_getES4_S4_RNS_8ios_baseERjRy
dki:_ResourceRequest_t2560315377_marshal_pinvoke_back
UOi:__ZL92PointerEventData_t1599784723_CustomAttributesCacheGenerator_U3CpointerDragU3Ek__BackingFieldP21CustomAttributesCache
tsc:__Z38Transform_CUSTOM_INTERNAL_get_rotationP12Il2CppObjectP11Quaternionf
cFl:__ZNKSt3__27num_getIwNS_19istreambuf_iteratorIwNS_11char_traitsIwEEEEE6do_getES4_S4_RNS_8ios_baseERjRt
Qal:__ZNSt3__26vectorIN6il2cpp2vm17TypeNameParseInfoENS_9allocatorIS3_EEE8allocateEj
ePc:__ZN16b2StackAllocator4FreeEPv
Hti:__ZL66CriticalFinalizerObject_t1920899984_CustomAttributesCacheGeneratorP21CustomAttributesCache
VGa:__ZN7ApiGLES19UploadBufferSubDataEjN2gl12BufferTargetEllPKv
QTd:__ZN5physx2Sc5Scene17createClothSolverEv
Sef:_String_System_IConvertible_ToInt32_m1927223638
yRe:_Array_InternalArray__ICollection_Remove_TisContentType_t1028629049_m3085152315_gshared
Qzd:__ZNK5physx15PxsParticleData16getMaxParticlesVEv
aRh:_CryptographicException__ctor_m406825529
kH:__ZN7mecanim12statemachine20StateMachineConstant8TransferI14SafeBinaryReadEEvRT_
itj:_Canvas_set_sortingOrder_m2922819993
Tke:__ZThn116_N5physx7profile8ZoneImplINS_28PxProfileNameProviderForwardEE12removeClientERNS_19PxProfileZoneClientE
mZd:__ZN15MBP_PairManager17removeMarkedPairsEPK10MBP_ObjectPN5physx16PxsBroadPhaseMBPERK8BitArrayS8_
EZk:__ZNSt3__26__treeINS_12__value_typeIP11Il2CppClassS3_EENS_19__map_value_compareIS3_S4_NS_4lessIS3_EELb1EEENS_9allocatorIS4_EEE25__emplace_unique_key_argsIS3_JNS_4pairIS3_S3_EEEEENSD_INS_15__tree_iteratorIS4_PNS_11__tree_nodeIS4_PvEEiEEbEERKT_DpOT0_
Xgf:_ASCIIEncoding__ctor_m4127831672
GOb:__Z19TransferField_ArrayI14SafeBinaryRead27Converter_SimpleNativeClassI8GUIStyleEEvRK23StaticTransferFieldInfoR31RuntimeSerializationCommandInfoRT0_
hKb:__ZN9TextAsset23VirtualRedirectTransferER19StreamedBinaryWriteILb0EE
xNj:_UTF8Encoding__ctor_m3336862259
OAk:_HazardCollision_OnTriggerEnter2D_m3106441549
rej:__Z54RuntimeInvoker_Boolean_t3825574718_HitInfo_t1761367055PK10MethodInfoPvPS2_
kph:_X509Chain_GetAuthorityKeyIdentifier_m2607407678
Rul:__ZN6il2cpp5utils10MemoryPoolC2Ev
cVd:__ZN5physx21PxcUnimplementedSweepERKNS_11PxsCCDShapeES2_PKNS_12PxsRigidBodyES5_RKNS_11PxTransformES8_S8_S8_fRNS_6PxVec3ESA_RNS_10PxcNpCacheERNS_18PxcNpThreadContextEf
grd:__ZN5physx9NpPhysics33unregisterDeletionListenerObjectsERNS_18PxDeletionListenerEPKPKNS_6PxBaseEj
Ixd:__ZNK5physx2Sc9ClothCore22getAngularInertiaScaleEv
CGl:__ZNKSt3__28time_getIcNS_19istreambuf_iteratorIcNS_11char_traitsIcEEEEE13__get_weekdayERiRS4_S4_RjRKNS_5ctypeIcEE
Zmg:_RaycastResult_set_gameObject_m1138581891_AdjustorThunk
I8k:__ZN14dense_hash_mapI10KeyWrapperINSt3__24pairIPK12PropertyInfoP11Il2CppClassEEEj17ReflectionMapHashIS8_E19ReflectionMapEqualsIS8_ENS1_9allocatorINS2_IKS9_jEEEEE15set_deleted_keyERSF_
Srj:_Bounds_get_extents_m4077324178_AdjustorThunk
o$i:__Z117RuntimeInvoker_Int32_t2071877448_Il2CppObject_Il2CppObject_Int32_t2071877448_Int32_t2071877448_BooleanU26_t3168250738PK10MethodInfoPvPS2_
uec:__ZN12InputManager10GetAxisRawERKNSt3__212basic_stringIcNS0_11char_traitsIcEENS0_9allocatorIcEEEE
SJ:__ZN19StreamedBinaryWriteILb0EE21TransferSTLStyleArrayI22OffsetPtrArrayTransferIN7mecanim8skeleton19SkeletonMaskElementEEEEvRT_17TransferMetaFlags
Qid:__ZN5physx20NpRigidActorTemplateINS_18PxArticulationLinkEE12setActorFlagENS_11PxActorFlag4EnumEb
r1e:_Dictionary_2_Do_ICollectionCopyTo_TisKeyValuePair_2_t3716250094_m1740410536_gshared
Xll:__ZN6il2cpp2os10ThreadImplD2Ev
e0g:_RSAManaged_Dispose_m3018788098
bJc:__ZN12b2MouseJoint23InitVelocityConstraintsERK12b2SolverData
dEc:__ZN8Gradient8TransferI9JSONWriteEEvRT_
vch:_Context_get_ReceivedConnectionEnd_m3369356276
nxk:_X509CertificateEnumerator_MoveNext_m1422952050
vjh:_NameObjectCollectionBase_get_Count_m2353593692
gcl:__ZN15dense_hashtableINSt3__24pairIK10KeyWrapperIP11Il2CppClassES4_EES5_N6il2cpp8metadata16SZArrayClassHashEN14dense_hash_mapIS5_S4_SA_NS9_19SZArrayClassCompareENS0_9allocatorIS7_EEE9SelectKeyESC_SE_E9copy_fromERKSH_j
DQi:__ZL73U3COnFinishSubmitU3Ec__Iterator0_t99135383_CustomAttributesCacheGeneratorP21CustomAttributesCache
geb:__ZNK12TLSAllocatorI14StackAllocatorE22GetAllocatedMemorySizeEv
mx:__ZN7mecanim6memory16ChainedAllocator8AllocateEjj
WCf:_Convert_ToUInt32_m3394039268
wfc:__Z32GetSceneHierarchyPathDescriptivePK6Object
FAb:__ZNSt3__26vectorI7SubMesh13stl_allocatorIS1_L18MemLabelIdentifier16ELi16EEEC2ERKS5_
bT:__ZNK7WeakPtrI20SoundChannelInstanceE10SharedData9GetRawPtrEv
gOa:__ZN12HandlerChain4NameEv
qAk:_BoblinController_DestroySelf_m1005996901
yn:FUNCTION_TABLE_fiiiiiifiiiiiif
CEb:__ZNSt3__26vectorI9InputAxisNS_9allocatorIS1_EEE10deallocateEv
B6d:__ZN5physx37setupFinalizeSolverConstraintsCoulombERNS_13PxcNpWorkUnitERKNS_2Gu13ContactBufferERKNS_27PxcCorrelationBufferCoulombERKNS_11PxTransformESB_bPhRKNS_13PxcSolverBodyESF_RKNS_17PxcSolverBodyDataESI_ffjffff
VGg:_Int16_Equals_m3925135434_AdjustorThunk
IO:__ZN12AudioManager8TransferI18StreamedBinaryReadILb1EEEEvRT_
DJe:__Z44Register_UnityEngine_CanvasRenderer_get_cullv
qyh:_Enumerator_Dispose_m2532362830_AdjustorThunk
oqi:__ZL60IHashCodeProvider_t1980576455_CustomAttributesCacheGeneratorP21CustomAttributesCache
jWi:__ZL68PixelCamera2D_t2016158893_CustomAttributesCacheGenerator_pixelHeightP21CustomAttributesCache
gPf:_Enumerator_VerifyState_m1677639504_AdjustorThunk
xcb:__Z29StdTemplateConversionFunctionIbbEbPvR14SafeBinaryRead
hah:_CipherSuiteCollection_get_Item_m280627160
Jzf:_DateTime__ParseString_m2623687350
PJh:_SerializationInfoEnumerator_MoveNext_m1876990879
RQj:_TimeSpan_Duration_m4205681645
Q9a:__ZN14UnityWebStream24UpdateAllUnityWebStreamsEv
W3f:_Collection_1_System_Collections_IList_get_IsReadOnly_m2329986891_gshared
bH:__ZN15SerializeTraitsINSt3__24pairIj8UnityStrEEE8TransferI14SafeBinaryReadEEvRS3_RT_
Soi:__ZL60ObsoleteAttribute_t3878847927_CustomAttributesCacheGeneratorP21CustomAttributesCache
pth:_CostDelegate_BeginInvoke_m1628968398
fYe:_Array_InternalArray__ICollection_CopyTo_TisRaycastHit2D_t4063908774_m3837098618_gshared
nYd:__ZN5physx31ComputeCreatedDeletedPairsListsEPKjS1_jRPNS_17PxcBroadPhasePairERjS5_S4_S5_S5_RNS_14SapPairManagerE
Osa:__ZN18LoadSceneOperation21MustCompleteNextFrameEv
pR:__ZNK12AudioManager16GetAudioListenerEv
b1h:_MonoField_get_FieldType_m598011426
vfc:__ZNSt3__2plIcNS_11char_traitsIcEE13stl_allocatorIcL18MemLabelIdentifier1ELi16EEEENS_12basic_stringIT_T0_T1_EERKSA_SC_
V3f:_Collection_1_System_Collections_IList_get_IsFixedSize_m1624702704_gshared
egb:__ZN18AssetBundleManager30CollectPreloadDataDependenciesER4PPtrI11AssetBundleEbR13dynamic_arrayIiLj4EE
nGi:__ZL48Camera_t189460977_CustomAttributesCacheGeneratorP21CustomAttributesCache
ilj:__Z73RuntimeInvoker_Void_t1841601450_Int32_t2071877448_RaycastResult_t21186376PK10MethodInfoPvPS2_
Ndl:__ZNSt3__212basic_stringIcNS_11char_traitsIcEENS_9allocatorIcEEE6__initINS_11__wrap_iterIPcEEEENS_9enable_ifIXsr21__is_forward_iteratorIT_EE5valueEvE4typeESB_SB_
dLc:__ZNK11Rigidbody2D20GetAttachedCollidersER13dynamic_arrayIP10Collider2DLj4EE
p1d:__ZN5physx2Gu16pcmContactBoxBoxERKNS0_13GeometryUnionES3_RKNS_11PxTransformES6_RKfRNS0_5CacheERNS0_13ContactBufferE
xzg:_InputField_OnDisable_m1865339380
xUj:_UInt32_System_IConvertible_ToType_m747769316
Ry:__ZN7mecanim9animation12GetHumanPoseERKNS0_18ClipMuscleConstantEPKNS0_10ValueDeltaERNS_5human9HumanPoseE
m6k:__ZN6il2cpp2vm10Reflection17GetPropertyObjectEP11Il2CppClassPK12PropertyInfo
XUl:_glDeleteVertexArrays__wrapper
ATb:__Z29Transfer_Blittable_ArrayFieldI19StreamedBinaryWriteILb0EEjEvRT_R9ArrayInfoRK23StaticTransferFieldInfo
n2:__Z13GetFileSystemv
$Dh:_Dictionary_2_TryGetValue_m2001075715_gshared
Swa:__ZNK5Unity4Type21FindAllDerivedClassesER13dynamic_arrayIPKS0_Lj4EENS0_17TypeFilterOptionsE
wDb:__ZN14SafeBinaryRead8TransferIfEEvRT_PKc17TransferMetaFlags
RTb:__ZL12InvokeMethodI18StreamedBinaryReadILb0EEEvRK29SerializationCommandArgumentsR31RuntimeSerializationCommandInfo
AEg:_DaylightTime_get_Delta_m2316831491
nOc:__ZNSt3__27__sort5IR24RayHitsByDepthComparitorP12RaycastHit2DEEjT0_S5_S5_S5_S5_T_
uQe:_Array_InternalArray__ICollection_Contains_TisUILineInfo_t3621277874_m1175659630_gshared
fQj:_WaitHandle_WaitOne_m370363697
rPi:__ZL114PointerEventData_t1599784723_CustomAttributesCacheGenerator_PointerEventData_set_pointerCurrentRaycast_m2431897513P21CustomAttributesCache
qrh:_FactoryCache_Lookup_m1681894361
_Cl:__ZNSt3__215basic_streambufIcNS_11char_traitsIcEEED2Ev
iFf:_DateTime_Subtract_m698282245_AdjustorThunk
e8j:_DefaultComparer__ctor_m2470932885_gshared
Jde:__ZN5physx2Gu5RTree15exportExtraDataERNS_22PxSerializationContextE
Uja:__Z23scripting_gchandle_freej
GXb:__Z29Transfer_Blittable_ArrayFieldI18StreamedBinaryReadILb1EE5RectTIfEEvRT_R9ArrayInfoRK23StaticTransferFieldInfo
kCi:__ZL79Convert_t2607082565_CustomAttributesCacheGenerator_Convert_ToUInt64_m1896191125P21CustomAttributesCache
n6e:_RIPEMD160Managed_Initialize_m3365407578
vcc:__Z29GetTextureSizeAllowedMultiple13TextureFormat
OIl:__ZNSt3__211__money_putIwE13__gather_infoEbbRKNS_6localeERNS_10money_base7patternERwS8_RNS_12basic_stringIcNS_11char_traitsIcEENS_9allocatorIcEEEERNS9_IwNSA_IwEENSC_IwEEEESJ_Ri
Vkh:_IPAddress_HostToNetworkOrder_m1092199707
ZSd:__ZNK5physx2Sq10AABBPruner7overlapERKNS0_9ShapeDataERNS0_14PrunerCallbackE
hSe:_SetPropertyUtility_SetStruct_TisSpriteState_t1353336012_m2898060836_gshared
Zaf:_SecurityAttribute__ctor_m3425755778
oac:__ZN21IntermediateRenderers3AddEP20IntermediateRenderer
Yob:__ZN14RenderSettings23VirtualRedirectTransferER18StreamedBinaryReadILb1EE
iId:__ZN5physx6shdfnd5ArrayIPvNS0_19ReflectionAllocatorINS_2Gu30LargePersistentContactManifoldEEEE4copyINS0_15InlineAllocatorILj256ES6_EEEEvRKNS1_IS2_T_EE
XEk:_InvokableCall_1_add_Delegate_m3068046591_gshared
Ig:_glCheckFramebufferStatus
QKi:__ZL55TextGenerator_t647235000_CustomAttributesCacheGeneratorP21CustomAttributesCache
NTe:_Array_compare_TisInt32_t2071877448_m840310202_gshared
K2i:__Z57RuntimeInvoker_Il2CppObject_Il2CppObject_Byte_t3683104436PK10MethodInfoPvPS2_
k7j:_InternalEnumerator_1_System_Collections_IEnumerator_get_Current_m442726479_AdjustorThunk
FRh:_DESTransform_ECB_m2629024873
s5j:_InternalEnumerator_1_System_Collections_IEnumerator_get_Current_m790514740_AdjustorThunk
$8d:__ZN5physx2Cm12DelegateTaskINS_2Sc5SceneEXadL_ZNS3_19updateCCDSinglePassEPNS_10PxBaseTaskEEEE11runInternalEv
o4c:__ZN5physx6string9sprintf_sEPcjPKcz
yu:__ZNSt3__26vectorI24CompressedAnimationCurve13stl_allocatorIS1_L18MemLabelIdentifier25ELi16EEE6resizeEj
Dge:__ZThn8_N5physx19TriangleMeshBuilderD1Ev
zAl:_sift
Stc:__Z19ConcatWithSeparatorRKNSt3__212basic_stringIcNS_11char_traitsIcEE13stl_allocatorIcL18MemLabelIdentifier1ELi16EEEES8_S8_
c6g:__ZN16VirtFuncInvoker2IbP21BigInteger_t925946153P12Il2CppObjectE6InvokeEjPvS1_S3_
tZc:__ZN5physx2Gu16intersectRayAABBERKNS_6PxVec3ES3_S3_S3_RfS4_
qxb:__ZN9Transform23VirtualRedirectTransferER17RemapPPtrTransfer
_ij:__Z87RuntimeInvoker_Int32_t2071877448_Playable_t3667545548_Playable_t3667545548_Il2CppObjectPK10MethodInfoPvPS2_
PXf:_List_1_AddCollection_m2221063383_gshared
gy:__ZN21AnimationClipPlayable7SetTimeEd
hxf:_SyncHashtable_Remove_m694556812
S5e:_RijndaelManaged_CreateDecryptor_m3253408643
RUe:_Array_InternalArray__IndexOf_TisByte_t3683104436_m3605266236_gshared
pai:_GUIStyle_set_richText_m1853532836
rag:_Collection_1_System_Collections_IList_Insert_m435904526_gshared
g5j:_InternalEnumerator_1_System_Collections_IEnumerator_get_Current_m1810411564_gshared
V7h:_GUISkin_get_horizontalScrollbarThumb_m4062590908
dGj:_RaycastAllCallback_Invoke_m981876639
xEl:__ZNKSt3__26locale5__imp9use_facetEl
gdf:_UnicodeEncoding__ctor_m72484327
J6d:__ZN5physx30setupFinalizeSolverConstraintsERNS_13PxcNpWorkUnitERKNS_2Gu13ContactBufferERKNS_20PxcCorrelationBufferERKNS_11PxTransformESB_bPhRKNS_13PxcSolverBodyESF_RKNS_17PxcSolverBodyDataESI_ffffff
nni:__ZL74Il2CppArray_CustomAttributesCacheGenerator_Array_GetUpperBound_m1352329707P21CustomAttributesCache
Eca:__ZN22BuiltinResourceManager16StaticInitializeEPv
lDk:_SwitchController_OnCollisionEnter2D_m136698547
Uw:__ZN7mecanim4hand8HandPose8TransferI19StreamedBinaryWriteILb0EEEEvRT_
Wnd:__ZN5physx7NpScene17releaseBatchQueryEPNS_12PxBatchQueryE
H9k:__ZN6il2cpp2gc9AllocatorIP12Il2CppThreadE10deallocateEPvj
yeg:_ReadOnlyCollection_1_System_Collections_IList_Contains_m1838328308_gshared
GFd:__ZN5physx20NpRigidActorTemplateINS_13PxRigidStaticEE11attachShapeERNS_7PxShapeE
eHk:_UnityEvent_1_GetDelegate_m2720691419_gshared
a6d:__ZN5physx26solveVBlockDefaultFrictionEPNS_13PxsSolverCoreEfjjPNS_13PxcSolverBodyEPNS_17PxcSolverBodyDataEjjPNS_25PxcArticulationSolverDescEjPNS_23PxcSolverConstraintDescEjS9_jRNS_6shdfnd5ArrayINS_24PxsConstraintBatchHeaderENSA_19ReflectionAllocatorISC_EEEESG_PNS_2Cm13SpatialVectorEPNS_25PxcThresholdStreamElementEjRj
iRk:__ZL25UnresolvedVirtualCall_132P12Il2CppObjectiPK10MethodInfo
Fjk:_Alternation_get_Alternatives_m1445219249
ech:_ClientSessionInfo_SetContext_m2649357891
Vcb:__ZNSt3__26__treeINS_12__value_typeINS_12basic_stringIcNS_11char_traitsIcEE13stl_allocatorIcL18MemLabelIdentifier54ELi16EEEEPN16MemoryFileSystem4NodeEEENS_19__map_value_compareIS8_SC_NS_4lessIS8_EELb1EEES5_ISC_LS6_54ELi16EEE12__find_equalIS8_EERPNS_16__tree_node_baseIPvEESO_RKT_
kmd:__ZN5physx15NpActorTemplateINS_18PxArticulationLinkEE17resolveReferencesERNS_24PxDeserializationContextE
TYi:__Z69RuntimeInvoker_Boolean_t3825574718_Il2CppObject_DoubleU26_t1208767207PK10MethodInfoPvPS2_
Ws:__ZN14AnimationEvent8TransferI14SafeBinaryReadEEvRT_
Yjg:_RaycasterManager_GetRaycasters_m1154876874
Ahh:_SslStreamBase_InternalReadCallback_m2524917586
Oba:__ZN8Remapper6RemoveEi
qUf:_List_1_CheckCollection_m2608305187_gshared
EPd:__ZN5physx19NpRigidBodyTemplateINS_18PxArticulationLinkEE9visualizeERNS_2Cm12RenderOutputEPNS_7NpSceneE
iXd:__ZN5physx11writeBack1DERKNS_23PxcSolverConstraintDescERNS_16PxcSolverContextERNS_17PxcSolverBodyDataES6_
KSj:_Type_get_ContainsGenericParameters_m505913180
ete:__ZL36CleanupTextRenderingScriptingClassesv
VUc:__ZThn4_N16RayRTreeCallbackILi0ELb0EED0Ev
J5a:__ZN15ReflectionProbe17UseRendererResultEP13ProbeRenderer
Xlf:_Array_BinarySearch_m3270245097
Rnc:__Z34Mesh_CUSTOM_SetArrayForChannelImplP12Il2CppObject30InternalScriptingShaderChannel34InternalScriptingVertexChannelTypeiP11Il2CppArrayi
CLg:_MonoIO_DeleteFile_m3273821223
nsg:__ZN16VirtFuncInvoker0I17Color_t2020392075E6InvokeEjPv
kXg:_BigInteger_GenerateRandom_m2507308768
_Df:_DateTime_System_IConvertible_ToDouble_m1431748426_AdjustorThunk
tNh:__ZN16VirtFuncInvoker0IdE6InvokeEjPv
hlj:__Z76RuntimeInvoker_Void_t1841601450_Int32_t2071877448_ContactPoint2D_t3659330976PK10MethodInfoPvPS2_
cQe:_Array_InternalArray__ICollection_Contains_TisUInt16_t986882611_m510319131_gshared
wOd:__ZNK5physx2Sc5Scene20getNbParticleSystemsEv
yHf:_Decimal_ToString_m541380585
dsh:_RepeatContext_get_Previous_m808449037
e4i:__Z60RuntimeInvoker_DateTime_t693205669_Il2CppObject_Il2CppObjectPK10MethodInfoPvPS2_
w$h:_MemberFilter__ctor_m1775909550
X1k:_il2cpp_class_is_valuetype
E1e:_Dictionary_2_Do_ICollectionCopyTo_TisKeyValuePair_2_t488203048_m2668228264_gshared
dSd:__ZN5physx2Gu17GetGeomSweepFuncsEv
Tbd:__ZN5physx6shdfnd8PoolBaseINS_15PxsArticulationENS0_16AlignedAllocatorILj64ENS0_9AllocatorEEEE17releaseEmptySlabsEv
EKf:_Enum_ToObject_m2601523252
LOl:dynCall_viiffiii
_gh:_InternalAsyncResult_get_FromWrite_m2893408424
_Tk:__ZN6il2cpp2vm5Class15GetElementClassEP11Il2CppClass
XBg:_U3CDelayedSetDirtyU3Ec__Iterator0_System_Collections_IEnumerator_get_Current_m851854792
WHf:_Delegate_CreateDelegate_m1706525923
wKl:__ZNKSt3__25ctypeIwE10do_tolowerEPwPKw
lzd:__ZN5physx22NpParticleBaseTemplateINS_15PxParticleFluidENS_15NpParticleFluidEE23setParticleReadDataFlagENS_22PxParticleReadDataFlag4EnumEb
rNj:_UTF7Encoding_GetBytes_m3015176946
Rnb:__ZN16GraphicsSettings8TransferI17RemapPPtrTransferEEvRT_
T5g:_BigInteger_op_LessThanOrEqual_m3528380540
OOg:_StreamReader__ctor_m2654332332
fHe:__ZN2UI6Canvas13UpdateBatchesEb
A9:__Z28scripting_method_is_instance21ScriptingMethodIl2Cpp
e_b:__ZNSt3__26vectorIN9ShaderLab20SerializedSubProgram14ConstantBufferENS_9allocatorIS3_EEE18__construct_at_endINS_11__wrap_iterIPS3_EEEENS_9enable_ifIXsr21__is_forward_iteratorIT_EE5valueEvE4typeESC_SC_j
jPi:__ZL105PointerEventData_t1599784723_CustomAttributesCacheGenerator_PointerEventData_set_pointerEnter_m1440587006P21CustomAttributesCache
wSf:_List_1_CheckCollection_m3968030679_gshared
JNk:_Predicate_1_BeginInvoke_m3556950370_gshared
Psd:__ZN5physx2Gu5Debug9visualizeERKNS_13PxBoxGeometryERNS_2Cm12RenderOutputERKNS5_8Matrix34ERKNS_9PxBounds3Eyfj
Rjf:_StringBuilder_ToString_m617673931
Rya:__ZNK13GfxDeviceGLES12GetWireframeEv
JZk:__ZN15dense_hashtableINSt3__24pairIK10KeyWrapperIPK19Il2CppGenericMethodEPK26Il2CppGenericMethodIndicesEES6_N6il2cpp8metadata23Il2CppGenericMethodHashEN14dense_hash_mapIS6_SA_SE_NSD_26Il2CppGenericMethodCompareENS0_9allocatorISB_EEE9SelectKeyESG_SI_E4findERS7_
qTc:__ZN5physx6shdfnd5ArrayIPKvNS0_19ReflectionAllocatorIS3_EEE6resizeEjRKS3_
ffg:_ReadOnlyCollection_1_System_Collections_ICollection_get_IsSynchronized_m3127987432_gshared
fAa:__ZN9GfxDevice18AllocRenderSurfaceEb
P6d:__ZN5physx31setupFinalizeSolverConstraints4EPNS_21PxcSolverContact4DescERNS_18PxcNpThreadContextEPhffRKNS_6shdfnd3aos5Vec4VES9_S9_S9_
wKd:__ZN5physx7NpScene5flushEb
Vjk:_AnchorInfo_get_IsComplete_m1247624133
itg:_Dropdown_Show_m324374589
j7:__ZL27CleanupCoreScriptingClassesv
UGh:__ZN16VirtFuncInvoker1Ii38CustomAttributeNamedArgument_t94157543E6InvokeEjPvS0_
q4j:_InternalEnumerator_1_get_Current_m4290564662_AdjustorThunk
ZTc:__ZN5physx2Gu13GeometryUnion3setERKNS_10PxGeometryE
i2c:__ZThn8_N5physx3Cct17CapsuleController15getPxControllerEv
yKk:_GenericComparer_1__ctor_m3575096182_gshared
qmg:_RaycastResult_get_isValid_m2482925612
Fnc:__Z26AnimationCurve_CUSTOM_InitP12Il2CppObjectP11Il2CppArray
_Gc:__ZNK14b2PolygonShape5CloneEP16b2BlockAllocator
N7k:__ZN6il2cpp2vm10Reflection7IsEventEP12Il2CppObject
uZk:__ZNSt3__26__treeINS_12__value_typeIPFvvEPK10MethodInfoEENS_19__map_value_compareIS3_S7_NS_4lessIS3_EELb1EEENS_9allocatorIS7_EEE16__insert_node_atEPNS_16__tree_node_baseIPvEERSI_SI_
p8:__ZN17PersistentManager26GetStreamNameSpaceInternalEi
PRc:__Z40Rigidbody2D_CUSTOM_INTERNAL_get_positionP12Il2CppObjectP13Vector2fIcall
YM:__ZN4FMOD6System11createSoundEPKcjP22FMOD_CREATESOUNDEXINFOPPNS_5SoundE
Deg:_ReadOnlyCollection_1_System_Collections_ICollection_get_IsSynchronized_m4056631538_gshared
ap:FUNCTION_TABLE_iiifiiii
F5g:__ZN16VirtFuncInvoker1IP21BigInteger_t925946153iE6InvokeEjPvi
udj:__Z66RuntimeInvoker_Void_t1841601450_Int32_t2071877448_Rect_t3681755626PK10MethodInfoPvPS2_
Lei:_Object_Destroy_m4145850038
Kea:__ZNSt3__26__treeINS_12__value_typeINS_12basic_stringIcNS_11char_traitsIcEENS_9allocatorIcEEEEiEENS_19__map_value_compareIS7_S8_NS_4lessIS7_EELb1EEENS5_IS8_EEE7destroyEPNS_11__tree_nodeIS8_PvEE
qbl:__ZN6il2cpp2vm4Type14IsSystemDBNullEPK10Il2CppType
hhc:__ZN9Scripting28CreateEngineScriptableObjectEP12Il2CppObject
lle:__ZThn128_N5physx7profile8ZoneImplINS_28PxProfileNameProviderForwardEED1Ev
X5:__ZN9ShaderLab19CommonPropertyNames13StaticCleanupEPv
IWf:_List_1_System_Collections_IList_Remove_m3137919634_gshared
iIj:_ScrollRect_UpdateBounds_m3266596336
tTd:__ZN5physx2Sq17AABBTreeUpdateMap10invalidateEjjRNS0_8AABBTreeE
HUa:_unity_z_zcfree
GDj:_LayoutUtility_GetFlexibleWidth_m1731978987
c6d:__ZN5physx28solveParallelDefaultFrictionERNS_18PxsDynamicsContextEjjPNS_13PxcSolverBodyEPNS_17PxcSolverBodyDataEjjPNS_25PxcArticulationSolverDescEjPNS_23PxcSolverConstraintDescEjS9_jPiSA_SA_SA_SA_SA_PNS_25PxcThresholdStreamElementEjSA_PNS_2Cm13SpatialVectorEPKPNS_11PxsBodyCoreERNSD_10BitMapBaseINS_6shdfnd9AllocatorEEEPKPNS_15PxsArticulationEjPViRNSL_5ArrayINS_24PxsConstraintBatchHeaderENSL_19ReflectionAllocatorISW_EEEES10_RNSV_IjNSX_IjEEEES13_PPNS_12PxsRigidBodyEj
zTl:_glStencilOpSeparate__wrapper
Hcc:__ZN4Mesh5SetUvEiPKfjj
nta:__ZN7Texture13SetAnisoLimitENS_20AnisotropicFilteringE
Dta:__ZN28LightProbeProxyVolumeManager25UpdateSHCoeffsTextureDataER21LightProbeProxyVolume
KOa:__Z18CreateDecompressor15CompressionType18MemLabelIdentifier
qV:__ZN11AudioModule16SetListenerPauseEb
Iji:_Renderer_set_sortingOrder_m809829562
Bi:_emscripten_glCompressedTexSubImage2D
lIa:__ZN13GfxDeviceGLES22MemoryBarrierImmediateEyN2gl17MemoryBarrierTypeE
w6k:__ZNK15dense_hashtableINSt3__24pairIK10KeyWrapperINS1_IPK12PropertyInfoP11Il2CppClassEEEjEES9_17ReflectionMapHashIS8_EN14dense_hash_mapIS9_jSD_19ReflectionMapEqualsIS8_ENS0_9allocatorISB_EEE9SelectKeyESG_SI_E12test_deletedEj
D$c:__ZN5physx6shdfnd5ArrayIjNS0_19ReflectionAllocatorIjEEE8recreateEj
Bfl:__ZN6il2cpp6icalls8mscorlib6System4Type18internal_from_nameEP12Il2CppStringbb
Mqa:__ZN6prcoreL26RemapGenericFloatToIntegerI18TexFormatARGBFloat17TexFormatARGB8888EEvPKNS_9InnerInfoE
Lpl:__ZN6il2cpp6icalls8mscorlib6System10Reflection9MonoField16GetValueInternalEP21Il2CppReflectionFieldP12Il2CppObject
E3b:__ZN6Object27GetOffsetOfInstanceIdMemberEv
mCe:_cff_ps_has_glyph_names
rFk:_InvokableCall_1__ctor_m2837611051_gshared
Ige:__ZN5physx15writeWordBufferEPKtjbRNS_14PxOutputStreamE
mxh:_Transform_1_EndInvoke_m1025924012_gshared
lni:__ZL81Il2CppArray_CustomAttributesCacheGenerator_Array_GetValue_m3550694941____indices0P21CustomAttributesCache
bgg:_ReadOnlyCollection_1_System_Collections_Generic_ICollectionU3CTU3E_get_IsReadOnly_m2873538493_gshared
Fhk:_PatternCompiler_EmitPosition_m3013268572
Oqh:_X509SubjectKeyIdentifierExtension__ctor_m1109455121
G8f:_Collection_1_SetItem_m2707773254_gshared
DPk:__ZL24UnresolvedVirtualCall_45P12Il2CppObject19DateTime_t693205669PK10MethodInfo
Cvg:_Graphic_CreateColorFromAlpha_m2614574534
ukf:_UnicodeEncoding_GetHashCode_m2443440683
yzc:__Z44Register_UnityEngine_GUIStyle_SetDefaultFontv
vYh:_GenericTypeParameterBuilder_GetPropertyImpl_m3566422383
Ull:__GLOBAL__sub_I_ThreadImpl_cpp
_Wb:__Z18Transfer_BlittableI18StreamedBinaryReadILb1EELb1EiEvRK29SerializationCommandArgumentsR31RuntimeSerializationCommandInfo
$D:__ZN9BlobWrite8TransferI22OffsetPtrArrayTransferIKN4math7_float3EEEEvRT_PKc17TransferMetaFlags
O9e:_TripleDES_IsWeakKey_m483013953
wyh:_Enumerator__ctor_m3819430617_AdjustorThunk
G9c:__ZN5physx2Sc7BodySim37checkSleepReadinessBesidesWakeCounterEv
YWb:__Z18Transfer_BlittableI18StreamedBinaryReadILb1EELb1EsEvRK29SerializationCommandArgumentsR31RuntimeSerializationCommandInfo
d7k:__ZN15dense_hashtableINSt3__24pairIK10KeyWrapperINS1_IPK9EventInfoP11Il2CppClassEEEjEES9_17ReflectionMapHashIS8_EN14dense_hash_mapIS9_jSD_19ReflectionMapEqualsIS8_ENS0_9allocatorISB_EEE9SelectKeyESG_SI_E13clear_deletedER30dense_hashtable_const_iteratorISB_S9_SD_SK_SG_SI_E
uB:__ZN26AnimatorControllerPlayable17IsMultithreadableEv
sDf:__ZN16VirtFuncInvoker0IP27NumberFormatInfo_t104580544E6InvokeEjPv
_df:_Single_System_IConvertible_ToSByte_m3757385387
wij:__Z51RuntimeInvoker_Boolean_t3825574718_Slot_t2022531261PK10MethodInfoPvPS2_
GMg:_StreamAsyncResult_SetComplete_m2141125667
sta:__ZL21SetAnisoLimitEnumImplN7Texture20AnisotropicFilteringEb
CKe:__ZN22BaseUnityConnectClient17OnEnterStateReadyEv
tCd:__ZNK5physx22NpParticleBaseTemplateINS_16PxParticleSystemENS_16NpParticleSystemEE15getMaxParticlesEv
knd:__ZN5physx2Sc16ArticulationCore14setWakeCounterEf
GHd:__ZN5physx2Sc10NPhaseCore24createTriggerInteractionERNS0_8ShapeSimES3_NS_7PxFlagsINS_10PxPairFlag4EnumEtEE
EBc:__ZN8JSONRead18TransferStringDataI8UnityStrEEvRT_
xQa:__ZN15dense_hashtableINSt3__24pairIKNS0_12basic_stringIcNS0_11char_traitsIcEE13stl_allocatorIcL18MemLabelIdentifier54ELi16EEEEP20ArchiveStorageReaderEES8_11djb2_hash_tIS8_EN14dense_hash_mapIS8_SB_SE_NS0_8equal_toIS8_EES5_ISC_LS6_54ELi16EEE9SelectKeyESH_SI_E13set_empty_keyERKSC_
GXc:__Z19sweepConvex_BoxGeomRKN5physx10PxGeometryERKNS_11PxTransformERKNS_20PxConvexMeshGeometryES5_RKNS_6PxVec3EfRNS_10PxSweepHitENS_7PxFlagsINS_9PxHitFlag4EnumEtEEf
PHl:__ZNKSt3__210moneypunctIcLb1EE14do_frac_digitsEv
gUc:__ZN5physx2Gu9ContainerD2Ev
eci:_Keyframe_get_tangentMode_m1869200796_AdjustorThunk
Wmc:__Z29Input_CUSTOM_GetMouseButtonUpi
YVc:__ZN5physx2Gu12selectNormalEhff
g1k:__ZN6il2cpp6icalls8mscorlib6System8MonoType16InternalGetEventEP20Il2CppReflectionTypeP12Il2CppStringi
BUj:_UInt32_System_IConvertible_ToUInt32_m1257480358_AdjustorThunk
XCf:_Convert_ToUInt32_m3085255294
Xve:_UNITY_tt_face_load_maxp
Qwc:__Z39Register_UnityEngine_Event_Internal_Usev
fnc:__Z46Input_CUSTOM_INTERNAL_set_compositionCursorPosRK13Vector2fIcall
Iz:__ZN7mecanim5human12FullBodyMaskEv
VAd:__ZN5physx3Scb14ParticleSystem16releaseParticlesEjRKNS_16PxStrideIteratorIKjEE
cAi:__ZL98Activator_t1850728717_CustomAttributesCacheGenerator_Activator_CreateInstance_m1465989661____args1P21CustomAttributesCache
s5:__ZN19ShaderPropertySheet11ComputeHashEv
sci:__ZN23InterfaceActionInvoker4IiP18Object_t1021602117P8String_tP24ObjectU5BU5D_t3614634134E6InvokeEjP11Il2CppClassPviS1_S3_S5_
sok:_SliderHandler_MousePosition_m4110511062_AdjustorThunk
GNd:__ZN5physx2Sc5Scene21processLostTouchPairsEv
WHc:__ZN12b2EPCollider24ComputePolygonSeparationEv
xr:__ZN4PPtrI6ObjectE8TransferI18StreamedBinaryReadILb1EEEEvRT_
irg:_ColorTween_get_tweenMode_m2919867230_AdjustorThunk
vj:_llvm_fabs_f32
Wpg:_CanvasScaler_HandleScaleWithScreenSize_m80056230
gQh:_SByte_System_IConvertible_ToUInt64_m2174352876_AdjustorThunk
p0k:__ZNK6il2cpp5utils10functional6FilterINSt3__212basic_stringIcNS3_11char_traitsIcEENS3_9allocatorIcEEEENS0_11StringUtils21CaseSensitiveComparerEEclIPKcEEbRKT_
ft:__ZN7mecanim9animation18ClipMuscleConstant8TransferI14SafeBinaryReadEEvRT_
IYh:_GenericTypeParameterBuilder_get_AssemblyQualifiedName_m902593295
X$d:__ZN5physx22PxcContactConvexConvexERKNS_2Gu13GeometryUnionES3_RKNS_11PxTransformES6_RKfRNS_10PxcNpCacheERNS0_13ContactBufferE
fNj:_UTF7Encoding_InternalGetBytes_m2772055844
hIh:_EqualityComparer_1__ctor_m831468288_gshared
oVc:__ZNK5physx2Gu11ConvexHullV12HillClimbingERKNS_6shdfnd3aos5Vec3VE
tCk:_U3CNextSceneU3Ec__Iterator0__ctor_m4291572605
rLb:__ZL29CanTransferTypeAsNestedObjectI18TransferField_InfoEbRKT_
zHd:__ZNK5physx2Sc17ParticleSystemSim7getCoreEv
Hwc:__Z40Register_UnityEngine_Event_set_modifiersv
rHf:_Decimal_CompareTo_m2454501434_AdjustorThunk
E8:__ZN14SafeBinaryReadD2Ev
iTj:_UInt16_System_IConvertible_ToChar_m4055364664
JAd:__ZN5physx2Sc18ParticleSystemCore10setDampingEf
q4b:__Z13RegisterClassI7TextureEvv
Zkk:_ExpressionCollection_OnValidate_m1703610065
DAj:_Playable_INTERNAL_CALL_GetPlayStateInternal_m3560305748
hy:__ZNK21AnimationClipPlayable7GetTimeEv
wvb:__ZN8Gradient8TransferI18StreamedBinaryReadILb1EEEEvRT_
Wxh:_Enumerator_Dispose_m2369319718_AdjustorThunk
GBi:__ZL79Convert_t2607082565_CustomAttributesCacheGenerator_Convert_ToUInt16_m3991499696P21CustomAttributesCache
q6c:__ZN5physx2Sc10NPhaseCore16deleteFilterPairEPNS0_10FilterPairE
izc:__Z45Register_UnityEngine_GUIStyle_SetFontInternalv
YMc:__ZN19CollisionListener2DD0Ev
AMg:__ZN16VirtFuncInvoker5IP12Il2CppObjectP22ByteU5BU5D_t3397334013iiP24AsyncCallback_t163412349S1_E6InvokeEjPvS3_iiS5_S1_
j1f:_Enumerator_Dispose_m1520016780_AdjustorThunk
Khb:__ZN15dense_hashtableINSt3__24pairIKNS0_12basic_stringIcNS0_11char_traitsIcEENS0_9allocatorIcEEEES7_EES7_11djb2_hash_tIS7_EN14dense_hash_mapIS7_S7_SB_NS0_8equal_toIS7_EE13stl_allocatorIS9_L18MemLabelIdentifier54ELi16EEE9SelectKeyESE_SH_ED2Ev
Efl:__ZN6il2cpp6icalls8mscorlib6System4Type15MakeGenericTypeEP20Il2CppReflectionTypeP11Il2CppArray
Qme:_PxCreateBasePhysics
Wj:_SDL_PauseAudio
Kwc:__Z40Register_UnityEngine_Event_set_characterv
Dmf:_Array_Sort_m2323017822
fsl:_GC_clear_mark_bit
LGj:_Scrollbar_UpdateDrag_m3839695926
U6h:_GUILayoutUtility__cctor_m2957755459
Ojc:__Z48Register_UnityEngine_Camera_set_orthographicSizev
qad:__ZN5physx2Sc5Scene28addActiveBreakableConstraintEPNS0_13ConstraintSimE
W5:__ZN9ShaderLab19CommonPropertyNames16StaticInitializeEPv
ppd:__ZN5physx6shdfnd8PoolBaseINS_16NpParticleSystemENS0_19ReflectionAllocatorIS2_EEE15disposeElementsEv
Bxa:__ZN17ShaderPassContext8CopyFromERKS_
$ra:__ZN13MemoryManager31DisallowAllocationsOnThisThreadEv
Ngi:_Quaternion_Euler_m3586339259
FF:__ZN7mecanim9animation18CreateAvatarOutputEPKNS0_14AvatarConstantEbbRNS_6memory9AllocatorE
Hle:__ZN5physx7profile11EventBufferINS_24PxDefaultContextProviderENS_6shdfnd6MutexTINS0_26WrapperReflectionAllocatorIhEEEENS0_14ScopedLockImplIS7_EENS_24PxProfileNullEventFilterEE10eventValueEtyx
fRh:_CspParameters__ctor_m2546931874
JS:__ZN11AudioSource23VirtualRedirectTransferER24GenerateTypeTreeTransfer
pZc:__ZN5physx2Gu11getBoxEdgesEv
oyb:__ZN14Texture2DArray23VirtualRedirectTransferER14SafeBinaryRead
p0a:__ZNK6Camera21CalculateCanDoShadowsEv
eMd:__ZNK5physx2Sc5Scene17getBroadPhaseCapsERNS_16PxBroadPhaseCapsE
$Ch:_Dictionary_2_make_pair_m2631942124_gshared
cmd:__ZN5physx9NpFactory14onActorReleaseEPNS_7PxActorE
AWk:__ZN14dense_hash_mapI10KeyWrapperINSt3__212basic_stringIcNS1_11char_traitsIcEENS1_9allocatorIcEEEEEP11Il2CppClassN6il2cpp5utils11StringUtils12StringHasherIS7_EENS1_8equal_toIS8_EENS5_INS1_4pairIKS8_SA_EEEEEC2EjRKSF_RKSH_
Kvg:_Graphic__cctor_m1643894470
W5j:_InternalEnumerator_1_System_Collections_IEnumerator_get_Current_m3244783182_AdjustorThunk
zol:__ZN6il2cpp2os6Thread12SetStackSizeEj
xoh:_X509ChainElementEnumerator_get_Current_m2232618221
scd:__ZN5physx2Sc5Actor15onElementAttachERNS0_7ElementE
n3f:_Collection_1_Clear_m3860339101_gshared
CIb:__ZNK20ArchiveStorageReader15HasStreamBlocksEv
hdc:__ZNK8Renderer16IsVisibleInSceneEv
Zbj:__Z44RuntimeInvoker_AnimatorStateInfo_t2577870592PK10MethodInfoPvPS2_
cIj:_ScrollRect_set_onValueChanged_m3957749575
N2:__Z13VFormatBufferPciPKcz
uAd:__ZN5physx2Sc18ParticleSystemCore23setSimulationFilterDataERKNS_12PxFilterDataE
YUb:__Z18Transfer_BlittableI18StreamedBinaryReadILb0EELb1EhEvRK29SerializationCommandArgumentsR31RuntimeSerializationCommandInfo
jui:__ZL90SafeHandle_t2733794115_CustomAttributesCacheGenerator_SafeHandle_get_IsInvalid_m3910183075P21CustomAttributesCache
Dxg:_Image_GenerateSimpleSprite_m4275440988
Ywj:_Display_get_systemHeight_m3377672024
ZTj:_UInt16_ToString_m3280699191
ZGk:_UnityEvent_1_GetDelegate_m2566156550_gshared
Qqa:__ZN6prcoreL27StretchGenericFloatBilinearI15TexFormatRFloatEEvPKNS_9InnerInfoE
nSd:__ZN5physx6shdfnd8internal8HashBaseINS0_4PairIKNS_2Sq13PrunerPayloadEjEES5_NS0_4HashIS5_EENS1_11HashMapBaseIS5_jS9_NS0_9AllocatorEE6GetKeyESB_Lb1EE15reserveInternalEj
evi:__ZL62IDynamicMessageSink_t3056162262_CustomAttributesCacheGeneratorP21CustomAttributesCache
MZi:__Z33RuntimeInvoker_UInt32_t2149682021PK10MethodInfoPvPS2_
qYi:__Z130RuntimeInvoker_Int32_t2071877448_Il2CppObject_Int32_t2071877448_Int32_t2071877448_Il2CppObject_Int32_t2071877448_Int32_t2071877448PK10MethodInfoPvPS2_
mSe:_Array_InternalArray__IEnumerable_GetEnumerator_TisBoolean_t3825574718_m798244337_gshared
RZf:_List_1_CopyTo_m158925060_gshared
Kkb:__ZN4core20StringStorageDefaultIcE6assignERKS1_
r1i:__Z102RuntimeInvoker_Il2CppObject_Int32_t2071877448_Int32_t2071877448_Il2CppObject_Il2CppObject_Il2CppObjectPK10MethodInfoPvPS2_
GJb:__ZN39AssetBundleLoadFromStreamAsyncOperationC2ERKNSt3__212basic_stringIcNS0_11char_traitsIcEENS0_9allocatorIcEEEE
xUe:_Array_IndexOf_TisCustomAttributeNamedArgument_t94157543_m745056346_gshared
psa:__Z33scripting_unity_engine_object_newP11Il2CppClassP6Object
l_k:__ZN6il2cpp2vm13MetadataCache28GetFieldDefaultValueForFieldEPK9FieldInfo
d8j:_DefaultComparer_Compare_m3277849110_gshared
YXj:_ArrayReadOnlyList_1_ReadOnlyError_m2289309720_gshared
lA:__ZN27AnimationLayerMixerPlayableD2Ev
C$k:__ZN6il2cpp2vm8basepathEPKc
_Vd:__ZN5physx2Gu22gjkRelativePenetrationINS0_9TriangleVENS0_8CapsuleVEEEjRKT_RKT0_RKNS_6shdfnd3aos15PsMatTransformVERKNSB_6FloatVERNSB_5Vec3VESJ_SJ_RSF_PhSL_Rh
faa:__ZNSt3__212basic_stringIcNS_11char_traitsIcEE13stl_allocatorIcL18MemLabelIdentifier1ELi16EEE9push_backEc
Hhe:__ZN9Rigidbody14SetIsKinematicEb
FFh:_DefaultComparer_GetHashCode_m320514092_gshared
_7g:_PKCS1_Verify_v15_m478274703
XO:__ZN12AudioManager39HandlePendingAudioConfigurationCallbackEv
msa:__ZNK8Material16MarkDependenciesER27GarbageCollectorThreadState
C7a:__Z20RequiredComponentsOfP11Il2CppClass
$Aj:_GenericMixerPlayable_InternalCreate_m559491731
Vk:_emscripten_glIsFramebuffer
oJa:__ZNK13TranslateGLES9GetFormatE13TextureFormat17TextureColorSpace
pzb:__ZN12_GLOBAL__N_16qAtan2Eff
JEl:__ZNSt3__215__num_get_floatIfEET_PKcS3_Rj
eCf:_Convert_ToInt64_m954367741
Yk:_JS_Sound_SetLoopPoints
Hrf:_ArrayList__ctor_m1467563650
iT:__ZN12AudioManager17ShouldSourcePauseEb
gvl:__ZN6il2cpp2vm26MetadataAllocGenericMethodEv
OKa:__ZN19ConstantBuffersGLES12RecordRenderEv
RRd:__ZN5physx13ActorAABBTaskD2Ev
ltk:_Transform_INTERNAL_set_rotation_m3703763817
msb:__ZN18AsyncUploadManager22UploadStreamingTextureEP28FileTextureUploadInstruction
aEc:__ZN9JSONWrite8TransferI10RectOffsetEEvRT_PKc17TransferMetaFlags
UFa:__ZN4crnd12symbol_codec11decode_bitsEj
uMl:__ZNSt3__212basic_stringIwNS_11char_traitsIwEENS_9allocatorIwEEE7reserveEj
XHc:__ZN15b2CircleContact8EvaluateEP10b2ManifoldRK11b2TransformS4_
Z$e:_Array_Sort_TisRaycastResult_t21186376_TisRaycastResult_t21186376_m38820193_gshared
Qpj:_Animator_ResetTriggerString_m1445965342
NSj:_Type_GetGenericTypeDefinition_m2658530753
$rc:__Z55Register_UnityEngine_RenderTexture_INTERNAL_CALL_Createv
N9b:__ZN21FixedBehaviourManagerD0Ev
aKi:__ZL55RaycastHit2D_t4063908774_CustomAttributesCacheGeneratorP21CustomAttributesCache
NLg:_StreamReader__ctor_m3454466728
sDc:__ZL17Transfer_GUIStyleI9JSONWriteLb0EEvRK29SerializationCommandArgumentsR31RuntimeSerializationCommandInfo
XCa:__ZNK18GfxFramebufferGLES15GetSamplesCountEv
C_b:__ZNSt3__26vectorIN9ShaderLab20SerializedSubProgram15MatrixParameterENS_9allocatorIS3_EEE26__swap_out_circular_bufferERNS_14__split_bufferIS3_RS5_EE
kuk:_Vector2_get_Item_m2792130561
bsa:__Z16MarkDependenciesR27GarbageCollectorThreadStatej
QFl:__ZNSt3__27num_putIwNS_19ostreambuf_iteratorIwNS_11char_traitsIwEEEEED0Ev
pqh:_X509ChainElementEnumerator_Reset_m3832280427
mOi:__ZL75EventSystem_t3466835263_CustomAttributesCacheGenerator_U3CU3Ef__mgU24cache0P21CustomAttributesCache
LTg:_MulticastDelegate_RemoveImpl_m2024746777
dqg:_CanvasUpdateRegistry_ParentCount_m2367607495
FTg:_MulticastDelegate_Equals_m3064081489
mgj:__Z54RuntimeInvoker_Void_t1841601450_ColorBlock_t2652774230PK10MethodInfoPvPS2_
O3g:_Activator_CreateInstance_m1465989661
N5:__ZNK9Transform11GetPositionEv
Wod:__ZN5physx12NpConstraint8requiresERNS_23PxProcessPxBaseCallbackE
Rck:__ZN21InterfaceFuncInvoker1IP8String_tS1_E6InvokeEjP11Il2CppClassPvS1_
PAj:_Playable_INTERNAL_CALL_GetDurationInternal_m2061318387
dZa:__ZN23SharedMeshRenderingData18UnloadVertexStreamEi
Bvk:_Vector4_set_Item_m3077071044
Zug:__ZN16VirtFuncInvoker0IP19Material_t193706927E6InvokeEjPv
i3c:__ZN5physx3Cct13HandleManager3AddEPv
nac:__ZN31CanvasBatchIntermediateRenderer11AddSubBatchERK16DrawBuffersRangePK19ShaderPropertySheet
NPi:__ZL104PointerEventData_t1599784723_CustomAttributesCacheGenerator_PointerEventData_set_scrollDelta_m4002219844P21CustomAttributesCache
R8b:__ZN19RenderEventsContextC2Ei
IW:__Z6simd4fRKf
CFk:_InvokableCall_3_Find_m3470456112_gshared
_Xe:_Array_InternalArray__ICollection_CopyTo_TisColor32_t874517518_m379086718_gshared
EKj:_Slider_ClampValue_m2851810895
zl:_emscripten_glEnable
w7h:_GUISkin_set_font_m4009958323
YGk:_UnityEvent_1_FindMethod_Impl_m3813546_gshared
ikl:__ZN6il2cpp2gc16GarbageCollector29RegisterFinalizerForNewObjectEP12Il2CppObject
Fkb:__ZN10TagManager23VirtualRedirectTransferER14SafeBinaryRead
gbe:__ZNK5physx2Sc15ClothFabricCore9getNbSetsEv
_ak:_MarshalAsAttribute__ctor_m1892084128
rve:_UNITY_FT_Init_Class_ft_grays_raster
o9i:__Z53RuntimeInvoker_Void_t1841601450_Vector3U26_t425862308PK10MethodInfoPvPS2_
x3a:__Z15InitLightMeshesv
Zzi:__ZL97WaitHandle_t677569169_CustomAttributesCacheGenerator_WaitHandle_t677569169____Handle_PropertyInfoP21CustomAttributesCache
lLd:__ZNK5physx7NpScene26getNbContactDataBlocksUsedEv
tNf:_KeyValuePair_2_ToString_m1391611625_AdjustorThunk
zo:FUNCTION_TABLE_iifiii
Ojl:__ZNK10KeyWrapperIP12Il2CppObjectEeqERKS2_
U_c:__ZN5physx2Gu29computeCapsule_HeightFieldMTDERKNS_21PxHeightFieldGeometryERKNS_11PxTransformERNS0_8CapsuleVEffbjRNS_10PxSweepHitE
KGd:__ZNK5physx2Cm12DelegateTaskINS_7NpSceneEXadL_ZNS2_14executeCollideEPNS_10PxBaseTaskEEEE7getNameEv
zce:__ZN5physx2Gu11HeightField15exportExtraDataERNS_22PxSerializationContextE
gwb:__ZN15QualitySettings8TransferI19StreamedBinaryWriteILb0EEEEvRT_
KTf:_List_1_System_Collections_Generic_IEnumerableU3CTU3E_GetEnumerator_m1503548298_gshared
$Sb:__Z18Transfer_BlittableI19StreamedBinaryWriteILb0EELb1E8Vector2fEvRK29SerializationCommandArgumentsR31RuntimeSerializationCommandInfo
mAe:_cf2_arrstack_init
zTk:__ZN30dense_hashtable_const_iteratorINSt3__24pairIK10KeyWrapperIPK22Il2CppGenericParameterEP11Il2CppClassEES6_N6il2cpp5utils11PointerHashIS4_EEN14dense_hash_mapIS6_S9_SE_NS0_8equal_toIS6_EENS0_9allocatorISA_EEE9SelectKeyESH_SJ_EppEv
Pti:__ZL65ClassInterfaceAttribute_t910653559_CustomAttributesCacheGeneratorP21CustomAttributesCache
zth:__ZN16VirtFuncInvoker2Ii19Vector2_t2243707579S0_E6InvokeEjPvS0_S0_
z0:__Z15CleanLogHandler7LogTypePKcz
Q0b:__ZN9ShaderLab19SerializedSubShader8TransferI19StreamedBinaryWriteILb0EEEEvRT_
qrd:__ZN5physx10NpMaterialC2ERKNS_2Sc12MaterialCoreE
gU:__ZN14AudioBehaviour15ThreadedCleanupEv
S2d:__ZN5physx9PxTaskMgr10resolveRowEjb
PK:__ZN10HumanTrait12CleanupClassEv
SKb:__ZN6Camera17RemoveImageFilterERK11ImageFilter
LHa:__ZNSt3__218__insertion_sort_3IR25ValueParameterArraySorterPN20GpuProgramParameters14ValueParameterEEEvT0_S6_T_
Cuf:_CaseInsensitiveHashCodeProvider_AreEqual_m2456617355
Wlh:_WebHeaderCollection__ctor_m4088938710
ADj:_LayoutUtility_GetLayoutProperty_m4052007472
vFk:_InvokableCall_1_Invoke_m3239892614_gshared
qye:_Horizontal_Sweep_Init
nhe:__ZN8Collider12GetIsTriggerEv
HJk:_EqualityComparer_1_get_Default_m1806515335_gshared
BQk:__ZL24UnresolvedVirtualCall_97P12Il2CppObjectS0_iS0_iPK10MethodInfo
gIl:__ZNKSt3__210moneypunctIwLb1EE14do_curr_symbolEv
Cch:_Context_set_WriteSequenceNumber_m3356252710
Cae:__ZNK5physx13NpClothFabric13getRestvaluesEPfj
xdl:__ZN6il2cpp6icalls8mscorlib6System9ThreadingL20GetSerializedCultureERPhRj
jYc:__ZN5physx2Gu16_gjkLocalRayCastINS0_9TriangleVENS0_11ConvexHullVEEEbRT_RT0_RKNS_6shdfnd3aos6FloatVERKNS9_5Vec3VESF_RSA_RSD_SH_f
fy:__ZNK8Playable11GetDurationEv
$Wf:_List_1_Find_m928286154_gshared
xy:__ZN17AnimationPlayable28ComputeNeedsBindingRebuildedEv
eIl:__ZNKSt3__210moneypunctIwLb1EE16do_thousands_sepEv
Bad:__ZN5physx6shdfnd8PoolBaseINS_2Cm5BlockIPvLj32EEENS0_19ReflectionAllocatorIS5_EEE17releaseEmptySlabsEv
P7j:_DefaultComparer__ctor_m2859550749_gshared
opj:_AnimationEvent_get_functionName_m4178006856
dYd:__ZN5physx23PxsBroadPhaseContextSap21batchUpdateFewUpdatesEjRPNS_17PxcBroadPhasePairERjS4_
z$c:__ZN5physx3Cct17getSceneTimestampEPKNS0_30InternalCBData_FindTouchedGeomE
Agd:__ZN5physx14NpArticulation12applyImpulseEPNS_18PxArticulationLinkERKNS_24PxArticulationDriveCacheERKNS_6PxVec3ES8_
Ynh:_X509ExtensionCollection__ctor_m1324282194
ofi:_Physics_Raycast_m2874007225
xMe:__ZN18UnityConnectClient33OnPlayerSessionStateChangedStaticEPS_jyy
IK:__ZN25RuntimeAnimatorController12CleanupClassEv
Hci:_Material_SetTexture_m58378708
TVj:_UIntPtr__ctor_m3900568171_AdjustorThunk
$Yj:_InternalEnumerator_1_get_Current_m1943362081_gshared
Ipc:__Z25PlayerPrefs_CUSTOM_GetIntP12Il2CppStringi
yDa:__ZN7ApiGLES4LoadE16GfxDeviceLevelGL
Jtb:__ZN18StreamedBinaryReadILb0EE21TransferSTLStyleArrayI13dynamic_arrayI31EnlightenSystemAtlasInformationLj8EEEEvRT_17TransferMetaFlags
zqd:__ZN5physx9NpPhysics15createAggregateEjb
NFa:__ZN4crnd12crn_unpacker22decode_color_endpointsEv
Pcg:_ReadOnlyCollection_1_System_Collections_IList_Clear_m3006875897_gshared
LQf:_Enumerator_System_Collections_IEnumerator_get_Current_m3866069145_gshared
Yp:FUNCTION_TABLE_viiffffi
xfi:_Physics_Raycast_m2994111303
_Wg:_PreviousInfo_t581002487_marshal_pinvoke_cleanup
dFl:__ZNKSt3__27num_getIwNS_19istreambuf_iteratorIwNS_11char_traitsIwEEEEE6do_getES4_S4_RNS_8ios_baseERjS8_
$ga:__ZN8Material11SetPassFastEPN9ShaderLab4PassER17ShaderPassContextP6Shaderib
Cog:_AspectRatioFitter_UpdateRect_m3782072749
hab:__ZNK13ScreenManager13GetLockCursorEv
FMe:__ZN11UnityEngine7Connect20BasePersistentValues10SaveValuesER9JSONWrite
nmc:__Z31Renderer_Set_Custom_PropEnabledP12Il2CppObjecth
Qhi:_Rect_get_max_m96665935_AdjustorThunk
_kg:_ExecuteEvents_get_pointerDownHandler_m1172742772
J2d:__ZN5physx9PxTaskMgr12addReferenceEj
mOc:__ZNSt3__27__sort4IR24RayHitsByDepthComparitorP12RaycastHit2DEEjT0_S5_S5_S5_T_
Mph:_X509CertificateEnumerator_System_Collections_IEnumerator_MoveNext_m3708362145
X_a:__Z12SetupLODFadeR9GfxDeviceR17ShaderPassContextf
SKc:__ZN26b2PolygonAndCapsuleContact6CreateEP9b2FixtureiS1_iP16b2BlockAllocator
k3a:__ZL24CollectForwardObjectsJobP27CollectForwardObjectsHeader
Rth:_Enumerator_System_Collections_IDictionaryEnumerator_get_Entry_m345330700_gshared
oxi:__ZL53HMACSHA256_t2622794722_CustomAttributesCacheGeneratorP21CustomAttributesCache
vWa:__Z13IsNodeVisibleRK9SceneNodeRK4AABBRK22SceneCullingParameters
DKl:__ZNSt3__27codecvtIDic11__mbstate_tED0Ev
MX:__ZN11UnityEngine15CloudWebService16SessionContainer7RestoreERK8UnityStrPvy
b$h:_EventInfo__ctor_m1190141300
QZj:_InternalEnumerator_1_MoveNext_m3585886944_gshared
JJe:__Z57RectTransformUtility_CUSTOM_INTERNAL_CALL_PixelAdjustRectP12Il2CppObjectS0_R5RectTIfE
kMh:_DelayedFixupRecord_FixupImpl_m4249966635
nZl:_emscripten_glStencilMask__wrapper
wte:__ZZ29InitializeTextRenderingModulevEN40CleanUpTextRenderingGarbageCollectstruct7ForwardEv
KXg:_BigInteger_op_Implicit_m4032862257
U9:__ZN11TypeManager19ClassNameToTypeInfoEPKcb
wXg:_BigInteger_ToString_m3837784224
tYa:__ZN15RenderNodeQueue7CleanupEv
HQa:__ZNK17ArchiveFileSystem8PositionERK13FileEntryData
A4c:__ZN16NovodexAllocator8allocateEjPKcS1_i
YIf:_DllNotFoundException__ctor_m267198482
LDl:__ZNSt3__215basic_streambufIcNS_11char_traitsIcEEEC2Ev
FSi:__ZL81U3CMouseDragOutsideRectU3Ec__Iterator1_t2599668326_CustomAttributesCacheGeneratorP21CustomAttributesCache
lOj:_NativeEventCalls_CreateEvent_internal_m1605829321
l0e:_Array_Sort_TisUIVertex_t1204258818_TisUIVertex_t1204258818_m1327748421_gshared
LMi:__ZL73RuntimePlatform_t1869584967_CustomAttributesCacheGenerator_MetroPlayerX64P21CustomAttributesCache
ZOk:__ZL24UnresolvedVirtualCall_13P12Il2CppObjectaPK10MethodInfo
EYi:__Z65RuntimeInvoker_Int32_t2071877448_Il2CppObject_Int32U26_t455636984PK10MethodInfoPvPS2_
g3a:__ZN9ShaderLab10GrabPassesD2Ev
m9h:_GUIStyle_set_font_m312124587
xyb:__ZN14Texture2DArray13UploadTextureEv
ygj:__Z69RuntimeInvoker_TextGenerationSettings_t2543476768_Vector2_t2243707579PK10MethodInfoPvPS2_
ydf:_SecurityFrame_t1002202659_marshal_pinvoke
Fxe:_tt_cmap14_done
Ssa:__ZN18AwakeFromLoadQueue25RegisterObjectInstanceIDsEv
dhe:__ZN5physx21PxProfileNameProviderD2Ev
Xof:_Buffer_BlockCopy_m1586717258
FXk:__ZN15dense_hashtableI10KeyWrapperIPK17Il2CppGenericInstES4_N6il2cpp8metadata21Il2CppGenericInstHashEN14dense_hash_setIS4_S7_NS6_24Il2CppGenericInstCompareENSt3__29allocatorIS4_EEE8IdentityES9_SC_E12maybe_shrinkEv
Owi:__ZL93X509Certificate_t283079845_CustomAttributesCacheGenerator_X509Certificate_GetName_m2354987368P21CustomAttributesCache
Hni:__ZL65Il2CppArray_CustomAttributesCacheGenerator_Array_Copy_m1969461849P21CustomAttributesCache
pre:__ZN20TextRenderingPrivate19NativeTextGenerator15InsertCharacterEiPj
YLd:__ZN5physx2Sc5Scene22removeBroadPhaseRegionEj
I8i:__Z52RuntimeInvoker_Void_t1841601450_ColorU26_t3402129837PK10MethodInfoPvPS2_
A3c:__ZN5physx2Cm12RenderBuffer5clearEv
tMf:_CompareInfo_GetSortKey_m3691382873
Kxd:__ZNK5physx2Sc9ClothCore21getStiffnessFrequencyEv
PJc:__ZN11b2RopeJoint24SolveVelocityConstraintsERK12b2SolverData
lGf:_DBNull_ToString_m3228904745
GNa:__ZN14GfxDeviceStats15SetScreenParamsEiiiiii
amh:_WebHeaderCollection_AddWithoutValidate_m1479880592
o8e:_SHA1Managed_HashCore_m2658295635
g6i:__Z80RuntimeInvoker_Void_t1841601450_Int32_t2071877448_Int32_t2071877448_Il2CppObjectPK10MethodInfoPvPS2_
oUd:__ZN5physx13PxsCCDContext14postCCDAdvanceEPNS_10PxBaseTaskE
okl:__ZNK15dense_hashtableINSt3__24pairIK10KeyWrapperIP12Il2CppObjectEN6il2cpp2gc9CachedCCWEEES5_NS7_5utils11PointerHashIS3_EEN14dense_hash_mapIS5_S9_SD_NS0_8equal_toIS5_EENS0_9allocatorISA_EEE9SelectKeyESG_SI_E13find_positionERS6_
p8g:_RC4_get_IV_m506011366
Zyk:_X509Crl__ctor_m2469408229
JSb:__Z18Transfer_BlittableI19StreamedBinaryWriteILb0EELb0EyEvRK29SerializationCommandArgumentsR31RuntimeSerializationCommandInfo
bui:__ZL82SafeHandle_t2733794115_CustomAttributesCacheGenerator_SafeHandle_Close_m1146946803P21CustomAttributesCache
cuh:_Enumerator_get_CurrentValue_m3562053380_AdjustorThunk
Uqh:_X509SubjectKeyIdentifierExtension_CopyFrom_m136762226
D5:__Z12MurmurHash2APKvij
IOf:_Enumerator_System_Collections_IEnumerator_Reset_m610822832_AdjustorThunk
s6g:_ASN1_get_Length_m778823697
bgl:__ZN6il2cpp6icalls8mscorlib6System2IO6MonoIO20GetFileSystemEntriesEP12Il2CppStringS6_iiPi
Goc:__Z41MonoBehaviour_Set_Custom_PropUseGUILayoutP12Il2CppObjecth
kse:_UNITY_FT_Open_Face
PUl:_glGenRenderbuffers__wrapper
csj:_Bounds_ToString_m1966597703
sYg:_BigInteger_op_Division_m1581119694
GYb:__ZN16ScriptingManagerD0Ev
qmi:__ZL81Decimal_t724701077_CustomAttributesCacheGenerator_Decimal_op_Implicit_m2135798419P21CustomAttributesCache
gnl:__ZNK15dense_hashtableINSt3__24pairIK10KeyWrapperIP14Il2CppIUnknownEjEES5_N6il2cpp5utils11PointerHashIS3_EEN14dense_hash_mapIS5_jSB_NS0_8equal_toIS5_EENS0_9allocatorIS7_EEE9SelectKeyESE_SG_E12test_deletedERK24dense_hashtable_iteratorIS7_S5_SB_SI_SE_SG_E
NNh:_CallbackHandler_Invoke_m1498072969
MRh:_DSACryptoServiceProvider__ctor_m701823690
E_d:__ZNK5physx10BPWorkTask7getNameEv
y6h:_Mathf_Clamp_m2354025655
KUh:_CustomAttributeData_GetCustomAttributes_m2421330738
Kmd:__ZN5physx2Sc8ShapeSim16onResetFilteringEv
ORj:_Type_get_IsEnum_m313908919
ukc:__Z44Register_UnityEngine_Component_get_transformv
c_f:_List_1_Reverse_m3395936565_gshared
Ilc:__Z39GameObject_CUSTOM_FindGameObjectWithTagP12Il2CppString
w4f:_Collection_1_System_Collections_ICollection_CopyTo_m1335644572_gshared
jr:__ZN4PPtrI9TransformE8TransferI18StreamedBinaryReadILb1EEEEvRT_
ZXf:_List_1_CheckMatch_m2830747427_gshared
lad:__ZN5physx2Sc16ActorInteractionD2Ev
PNa:__ZN17ArchiveFileSystem12MountArchiveEPKcS1_
FIf:_StackFrame_GetMethod_m72881026
Oil:__ZN15dense_hashtableI10KeyWrapperIP18Il2CppGenericClassES3_N6il2cpp8metadata22Il2CppGenericClassHashEN14dense_hash_setIS3_S6_NS5_25Il2CppGenericClassCompareENSt3__29allocatorIS3_EEE8IdentityES8_SB_E15set_deleted_keyERKS3_
NEc:__Z18Transfer_BlittableI9JSONWriteLb1E8Vector4fEvRK29SerializationCommandArgumentsR31RuntimeSerializationCommandInfo
m7:__Z11RequireTypePKcS0_S0_
yDl:__ZThn8_NSt3__214basic_iostreamIcNS_11char_traitsIcEEED0Ev
nuh:_Enumerator_System_Collections_IEnumerator_Reset_m70453843_gshared
qnd:__ZN5physx2Sc16ArticulationCore26setExternalDriveIterationsEj
Vuk:_Vector3_get_Item_m3616014016
$Ti:__ZL59Slider_t297367283_CustomAttributesCacheGenerator_m_MinValueP21CustomAttributesCache
WAa:__ZN9GfxDevice15ImmediateVertexEfff
Z3b:__Z13RegisterClassI8MaterialEvv
eyi:__ZL51Evidence_t1407710183_CustomAttributesCacheGeneratorP21CustomAttributesCache
JDd:__ZN5physx14NpRigidDynamic10clearForceENS_11PxForceMode4EnumE
lnb:__ZN16GraphicsSettings13AwakeFromLoadE17AwakeFromLoadMode
yLf:_FieldAccessException__ctor_m3893881490
Ddj:__Z82RuntimeInvoker_Int32_t2071877448_Rect_t3681755626_Il2CppObject_Vector2_t2243707579PK10MethodInfoPvPS2_
Vq:__ZN6Object13AwakeFromLoadE17AwakeFromLoadMode
Kya:__ZN13GfxDeviceGLES15SetStencilStateEPK18DeviceStencilStatei
_Fe:__ZN2UI11CanvasGroup8TransferI18StreamedBinaryReadILb1EEEEvRT_
BAl:_cycle
Lrk:_TextGenerator_Populate_m4139823822
jFi:__ZL72PKCS12_t1362584795_CustomAttributesCacheGenerator_U3CU3Ef__switchU24map5P21CustomAttributesCache
pe:_emscripten_glUniform1iv
$Lj:_Text_get_preferredHeight_m452532789
HNc:__ZN15b2DistanceProxy3SetEPK7b2Shapei
Qef:_String_System_IConvertible_ToDouble_m3860911722
Wcb:__ZN16MemoryFileSystemD2Ev
hBh:_Dictionary_2_System_Collections_Generic_ICollectionU3CSystem_Collections_Generic_KeyValuePairU3CTKeyU2CTValueU3EU3E_Contains_m842343255_gshared
I6g:_ARC4Managed__ctor_m2922048522
Bre:__Z17dynamic_pptr_castIP9Texture2D7TextureET_RK4PPtrIT0_E
Zy:__ZN7mecanim14ValueArrayLoopERKNS_10ValueArrayES2_RS0_fRKNS_14ValueArrayMaskE
Cdg:_ReadOnlyCollection_1_System_Collections_IList_set_Item_m1272038804_gshared
aZj:_InternalEnumerator_1_System_Collections_IEnumerator_get_Current_m1931522460_AdjustorThunk
OJa:__ZN14DrawBufferGLESI12VertexBuffer27VertexBufferUsageMapperGLESE12EnsureBufferEj
Vaf:_SecurityPermission_IsEmpty_m1869313067
Sca:__ZN13RuntimeStaticI23MeshVertexFormatManagerE13StaticDestroyEPv
nJa:__ZN7ApiGLES15TextureSubImageEj16TextureDimensionN2gl9TexFormatEiiiiiiiiPKv
Rjc:__Z37Register_UnityEngine_Camera_get_depthv
J$g:_EncryptedPrivateKeyInfo_get_Salt_m2734354394
Pwb:__ZN12ImmediatePtrI9TransformE8TransferI18StreamedBinaryReadILb1EEEEvRT_
v8b:__ZN12MeshRenderer7PRODUCEE18MemLabelIdentifier18ObjectCreationMode
agg:_ReadOnlyCollection_1_System_Collections_Generic_IListU3CTU3E_set_Item_m1918537449_gshared
K3f:_Collection_1_System_Collections_ICollection_CopyTo_m3896480607_gshared
Dlg:_PointerEventData_set_position_m794507622
LZd:__ZNK5physx16PxsBroadPhaseMBP18getNumDeletedPairsEv
Jke:__ZN5physx7profile8ZoneImplINS_28PxProfileNameProviderForwardEE10startEventEty
Vea:__ZN15dense_hashtableINSt3__24pairIKPKcPK4RTTIEES3_N11TypeManager23ConstCharPtrHashFunctorEN14dense_hash_mapIS3_S7_SA_NS9_19ConstCharPtrEqualToE13stl_allocatorIS8_L18MemLabelIdentifier6ELi16EEE9SelectKeyESC_SF_E12resize_deltaEjj
IUd:__ZN5physx10PxsCCDPair17sweepAdvanceToToiEfb
r3b:__ZN15ApplicationInfo16GetInstallerNameEv
zcb:__Z23ConvertIntegerToTypePtrItEbPvR14SafeBinaryRead
oF:__ZN7mecanim5human29HumanGetGoalOrientationOffsetENS0_4GoalE
Ge:_emscripten_glStencilFunc
E1i:__Z101RuntimeInvoker_Void_t1841601450_Il2CppObject_Il2CppObject_Il2CppObject_Il2CppObject_Int32_t2071877448PK10MethodInfoPvPS2_
Mld:__ZN5physx6shdfnd8PoolBaseINS_2Cm5BlockIhLj384EEENS0_19ReflectionAllocatorIS4_EEE17releaseEmptySlabsEv
J8d:__ZN5physx16PxsIslandManager11freeBuffersEv
SOk:__ZL23UnresolvedVirtualCall_6P12Il2CppObjectiPK10MethodInfo
b8:__ZN18AwakeFromLoadQueueD2Ev
U1h:_MonoMethod_MakeGenericMethod_impl_m2063853616
ved:__ZN5physx2Cm12DelegateTaskINS_2Sc17ParticleSystemSimEXadL_ZNS3_21prepareCollisionInputEPNS_10PxBaseTaskEEEE11runInternalEv
zdf:__Z46il2cpp_codegen_get_marshal_directive_exceptionPKc
T1b:__ZN9ShaderLab20SerializedSubProgram14AddMatrixParamEPKcii15ShaderParamTypei
Me:_glGetActiveUniformBlockName
ANh:__ZN16VirtFuncInvoker0I18Decimal_t724701077E6InvokeEjPv
qug:_FontData_set_verticalOverflow_m4211463083
$ni:__ZL65Il2CppArray_CustomAttributesCacheGenerator_Array_Sort_m2090966156P21CustomAttributesCache
dGg:_Guid_AppendByte_m2890893073
i5d:__ZL28removeBrokenEdgesFromIslandsPKjjS0_jS0_RKN5physx11NodeManagerERNS1_11EdgeManagerERNS1_13IslandManagerERNS1_2Cm10BitMapBaseINS1_6shdfnd9AllocatorEEEPSD_
hqf:_Char_System_IConvertible_ToType_m3106771703_AdjustorThunk
Ush:_Interval_Intersects_m3480157390_AdjustorThunk
znc:__Z39Quaternion_CUSTOM_INTERNAL_CALL_InverseRK11QuaternionfRS_
Kak:_GCHandle_Alloc_m1063472408
UP:__ZN4FMOD7Channel20set3DConeOrientationEP11FMOD_VECTOR
aQi:__ZL86StandaloneInputModule_t70867863_CustomAttributesCacheGenerator_m_InputActionsPerSecondP21CustomAttributesCache
mo:FUNCTION_TABLE_iiifii
Fth:_Comparer_1__ctor_m4052560291_gshared
JKi:__ZL54SkeletonBone_t345082847_CustomAttributesCacheGeneratorP21CustomAttributesCache
UQh:_CryptoConfig_CreateFromName_m391442950
wil:__ZN6il2cpp2vm12GenericClass11SetupEventsEP11Il2CppClass
NDe:_tt_delta_interpolate
yxe:_tt_cmap12_get_info
nxf:_SortedList__ctor_m3698381356
Emj:__Z31RuntimeInvoker_Slot_t2022531261PK10MethodInfoPvPS2_
rPg:_StreamWriter_LowLevelWrite_m4205372900
vOk:__ZN6il2cpp6icalls8mscorlib6System7Decimal14decimalCompareEP19il2cpp_decimal_reprS5_
Ugd:__ZN5physx26PxcFsComputeJointLoadsSimdERKNS_9PxcFsDataEPKNS_12PxcFsInertiaEPNS_6shdfnd3aos6Mat33VEPKfjjNS_21PxcFsScratchAllocatorE
c0h:_Module__ctor_m3853650010
Uuf:_CollectionBase_System_Collections_IList_get_Item_m2370387510
MFl:__ZNSt3__29__num_putIcE23__widen_and_group_floatEPcS2_S2_S2_RS2_S3_RKNS_6localeE
BGd:__ZN5physx6shdfnd8SyncImpl7getSizeEv
bwi:__ZL59RemotingException_t109604560_CustomAttributesCacheGeneratorP21CustomAttributesCache
v2:__Z15CreateDirectoryRKNSt3__212basic_stringIcNS_11char_traitsIcEENS_9allocatorIcEEEE
koa:__ZNSt3__26__treeINS_12__value_typeIN9ShaderLab16FastPropertyNameE10ColorRGBAfEENS_19__map_value_compareIS3_S5_NS_4lessIS3_EELb1EEENS_9allocatorIS5_EEE12__find_equalIS3_EERPNS_16__tree_node_baseIPvEENS_21__tree_const_iteratorIS5_PNS_11__tree_nodeIS5_SF_EEiEESI_RKT_
fWl:_glCopyTexImage2D__wrapper
jzi:__ZL88UTF7Encoding_t741406939_CustomAttributesCacheGenerator_UTF7Encoding_GetBytes_m3015176946P21CustomAttributesCache
eBg:_LayoutElement__ctor_m789941073
COi:__ZL77ExecuteEvents_t1693084770_CustomAttributesCacheGenerator_U3CU3Ef__mgU24cache9P21CustomAttributesCache
Msj:_Camera_FireOnPreCull_m1679634170
sti:__ZL68TargetInvocationException_t4098620458_CustomAttributesCacheGeneratorP21CustomAttributesCache
eDi:__ZL56RankException_t1539875949_CustomAttributesCacheGeneratorP21CustomAttributesCache
j1c:__ZN5physx11PxHitBufferINS_12PxRaycastHitEED0Ev
zDg:_NumberFormatter_CountTrailingZeros_m2398864634
T2g:___Il2CppComDelegate_t3311706788_create_ccw
mqa:__ZN6prcoreL17RemapGenericFloatI14TexFormatRHalf15TexFormatRFloatEEvPKNS_9InnerInfoE
i3a:__Z16ShouldUseShadowsb
hih:_TlsStream_SetLength_m1460039587
pPk:__ZL24UnresolvedVirtualCall_31P12Il2CppObjectiS0_S0_PK10MethodInfo
yWc:__ZN5physx2Gu24contactSphereHeightFieldERKNS0_13GeometryUnionES3_RKNS_11PxTransformES6_RKfRNS0_5CacheERNS0_13ContactBufferE
Zjj:__Z55RuntimeInvoker_Int32_t2071877448_UICharInfo_t3056636800PK10MethodInfoPvPS2_
GGa:__ZN7ApiGLES10DrawArraysE16GfxPrimitiveTypejjj
Sxj:_Event_PopEvent_m1952528237
ISc:__ZN5physx3Cct13BoxController15getPxControllerEv
EN:__ZN10SampleClip13LoadBaseSoundEv
TYc:__ZN5physx2Gu22gjkRelativePenetrationINS0_17ShrunkConvexHullVES2_EEjRKT_RKT0_RKNS_6shdfnd3aos15PsMatTransformVERKNSA_6FloatVERNSA_5Vec3VESI_SI_RSE_PhSK_Rh
Aai:_GUIStyleState__ctor_m2708667747
c0i:__Z62RuntimeInvoker_Il2CppObject_Int32_t2071877448_SByte_t454417549PK10MethodInfoPvPS2_
Ow:__ZN7mecanim9animation4Clip8TransferI19StreamedBinaryWriteILb0EEEEvRT_
u8f:_Collection_1_Contains_m643401393_gshared
H9d:__ZN5physx2Sc19ParticlePacketShapeC2ERNS0_17ParticleSystemSimEjPNS_16PxvParticleShapeE
soa:__ZN22DeviceMVPMatricesStateC2ER9GfxDevice
yjk:_Regex_IsMatch_m1286520424
Bqd:__ZN5physx9NpPhysics18createTriangleMeshERNS_13PxInputStreamE
Bo:FUNCTION_TABLE_iiiiifiiiif
z4i:__Z48RuntimeInvoker_Int64_t909078037_Int64_t909078037PK10MethodInfoPvPS2_
Ief:_String__ctor_m372528291
Oea:__ZN6Object16StaticInitializeEv
C5d:__ZN5physx2Cm12DelegateTaskINS_2Sc5SceneEXadL_ZNS3_14updateDynamicsEPNS_10PxBaseTaskEEEED0Ev
d9k:__ZN6il2cpp2vm10Reflection12HasAttributeEP9FieldInfoP11Il2CppClass
zsa:__ZNSt3__26__treeIiNS_4lessIiEE13stl_allocatorIiL18MemLabelIdentifier1ELi16EEE7destroyEPNS_11__tree_nodeIiPvEE
Oc:invoke_viiifi
oPi:__ZL104PointerEventData_t1599784723_CustomAttributesCacheGenerator_PointerEventData_get_pointerDrag_m2740415629P21CustomAttributesCache
OJi:__ZL79Physics_t634932869_CustomAttributesCacheGenerator_Physics_RaycastAll_m233036521P21CustomAttributesCache
tSg:_LongComparer_Compare_m3981323622
YZi:__Z64RuntimeInvoker_UInt64_t2909196914_Il2CppObject_Int32_t2071877448PK10MethodInfoPvPS2_
Vde:__ZN5physx6shdfnd5ArrayIPNS_7PxActorENS0_19ReflectionAllocatorIS3_EEE8recreateEj
PVi:__ZL109LayoutUtility_t4076838048_CustomAttributesCacheGenerator_LayoutUtility_U3CGetFlexibleHeightU3Em__7_m947156537P21CustomAttributesCache
NNc:__ZNSt3__27__sort4IRN15Cast2DQueryBase14FixtureContactEPS2_EEjT0_S5_S5_S5_T_
QKj:_Slider_FindSelectableOnUp_m15474611
Dwa:__ZNK11AssetBundle14GetPreloadDataEiR13dynamic_arrayIiLj4EE
S0g:_EncryptedData_get_EncryptedContent_m2732115576
Zji:_RenderTexture_INTERNAL_CALL_Release_m1818573204
Wf:_JS_Sound_SetPosition
Wik:_Assertion_set_FalseExpression_m1781616372
Qqh:_X509SubjectKeyIdentifierExtension_FromHexChars_m2515150420
tua:__ZNK9Texture3D26CanReuploadDataToGfxDeviceEv
LZk:__ZL13GetSharedInstPK17Il2CppGenericInst
Ioi:__ZL51IReflect_t3412036974_CustomAttributesCacheGeneratorP21CustomAttributesCache
Hng:_StandaloneInputModule_SendSubmitEventToSelectedObject_m3421155293
Ebk:_AppDomainLevelActivator__ctor_m230071814
lvj:_Component_GetComponentsInChildren_m908027537
RKe:__ZN22BaseUnityConnectClient17SaveSessionValuesEv
ifk:_CallContextRemotingData_Clone_m2226242476
d8:__Z63ThreadAndSerializationSafeCheckSetMonoBehaviourBeingTransferredP13MonoBehaviour
Ztd:__ZNK5physx7NpCloth14getNbParticlesEv
w6c:__ZN5physx2Sc10NPhaseCore24releaseShapeInstancePairEPNS0_19ShapeInstancePairLLEjj
n3a:__Z24SetupActiveLightsContextR21ActiveLightingContextRK12ActiveLightsRK11CullResultsP14ShadowMapCacheRK10MinMaxAABB
ZBh:_Dictionary_2_System_Collections_Generic_ICollectionU3CSystem_Collections_Generic_KeyValuePairU3CTKeyU2CTValueU3EU3E_Contains_m3400497673_gshared
Zqc:__Z38Sprite_CUSTOM_INTERNAL_get_textureRectP12Il2CppObjectP5RectTIfE
hGf:_DBNull_System_IConvertible_ToUInt32_m2681284284
y4h:_GUILayoutUtility_DoGetRect_m33366174
hbi:_HumanBone_set_boneName_m2410239828_AdjustorThunk
lmb:__ZN6Camera8TransferI24GenerateTypeTreeTransferEEvRT_
LHh:_EqualityComparer_1__cctor_m416314417_gshared
Ra:invoke_iiiiiiif
Ka:invoke_iiiiiiii
nJb:__ZN24RingBufferMemoryFileData16ConsumeReadBytesEy
gYd:__ZN5physx21SapPostUpdateWorkTaskD0Ev
WOa:__ZN15dense_hashtableINSt3__24pairIKNS0_12basic_stringIcNS0_11char_traitsIcEE13stl_allocatorIcL18MemLabelIdentifier54ELi16EEEEP20ArchiveStorageReaderEES8_11djb2_hash_tIS8_EN14dense_hash_mapIS8_SB_SE_NS0_8equal_toIS8_EES5_ISC_LS6_54ELi16EEE9SelectKeyESH_SI_E12maybe_shrinkEv
Rdi:_Mesh_GetUVChannel_m364477864
hph:_X509ChainElementCollection_Contains_m3599995067
kYl:b120
tmd:__ZN5physx7NpActor18releaseConstraintsERNS_12PxRigidActorE
G3c:__ZN5physx6shdfnd5ArrayINS_11PxDebugLineENS0_19ReflectionAllocatorIS2_EEE8recreateEj
sYl:b125
qYl:b124
rZl:b127
tYl:b126
tZl:b129
dqc:__Z52Register_UnityEngine_RectTransform_INTERNAL_get_rectv
DWi:__Z53RuntimeInvoker_Il2CppObject_Il2CppObject_Il2CppObjectPK10MethodInfoPvPS2_
uCd:__ZNK5physx22NpParticleBaseTemplateINS_16PxParticleSystemENS_16NpParticleSystemEE20getMaxMotionDistanceEv
kwg:_GridLayoutGroup_set_spacing_m118889422
iZf:_List_1_ToArray_m2390522926_gshared
kui:__ZL70TypeLibImportClassAttribute_t2390314680_CustomAttributesCacheGeneratorP21CustomAttributesCache
Aha:__ZN19RenderBufferManager13GetTempBufferEii17DepthBufferFormat19RenderTextureFormatj22RenderTextureReadWrite14VRTextureUsagei
nGb:__ZN18StreamedBinaryReadILb0EE21TransferSTLStyleArrayI13dynamic_arrayI16SplashScreenLogoLj4EEEEvRT_17TransferMetaFlags
t4k:__ZNK15dense_hashtableINSt3__24pairIK10KeyWrapperINS1_IPK9FieldInfoP11Il2CppClassEEEjEES9_17ReflectionMapHashIS8_EN14dense_hash_mapIS9_jSD_19ReflectionMapEqualsIS8_ENS0_9allocatorISB_EEE9SelectKeyESG_SI_E12test_deletedERK24dense_hashtable_iteratorISB_S9_SD_SK_SG_SI_E
mEd:__ZNK5physx14NpRigidDynamic25getContactReportThresholdEv
kef:_Single_CompareTo_m2081476257
eRe:_Array_InternalArray__ICollection_Remove_TisX509ChainStatus_t4278378721_m4127982424_gshared
gkc:__Z47Register_UnityEngine_Camera_get_allCamerasCountv
Fyd:__ZN5physx22NpParticleBaseTemplateINS_15PxParticleFluidENS_15NpParticleFluidEE16releaseParticlesEv
fHc:__ZN14b2CapsuleShapeD2Ev
UKe:__ZN22BaseUnityConnectClient20StartEventDispatcherEv
Rcc:__ZNSt3__26vectorIj13stl_allocatorIjL18MemLabelIdentifier1ELi16EEE6assignIPKtEENS_9enable_ifIXaasr21__is_forward_iteratorIT_EE5valuesr16is_constructibleIjNS_15iterator_traitsIS9_E9referenceEEE5valueEvE4typeES9_S9_
FD:__ZN7mecanim9animation16EvaluateAvatarIKEPKNS0_14AvatarConstantEPKNS0_11AvatarInputEPNS0_12AvatarOutputEPNS0_12AvatarMemoryEPNS0_15AvatarWorkspaceEb
pHa:__ZL25ProgramUniformMatrix4x3fvPK7ApiGLESjiihPKv
Sbb:__Z29StdTemplateConversionFunctionIsiEbPvR14SafeBinaryRead
j5d:__Z22updateIslandsToProcessRKN5physx2Cm10BitMapBaseINS_6shdfnd9AllocatorEEEPKjRKNS_11NodeManagerERS4_
KGh:_EqualityComparer_1_System_Collections_IEqualityComparer_Equals_m3376587337_gshared
Coi:__ZL68Type_t_CustomAttributesCacheGenerator_Type_GetConstructor_m835344477P21CustomAttributesCache
mTa:__ZN12InputManager13InputEndFrameEv
Uwf:_SyncHashtable__ctor_m2029869827
D0k:__ZNSt3__26__treeIP11Il2CppClassNS_4lessIS2_EENS_9allocatorIS2_EEE25__emplace_unique_key_argsIS2_JRKS2_EEENS_4pairINS_15__tree_iteratorIS2_PNS_11__tree_nodeIS2_PvEEiEEbEERKT_DpOT0_
U8k:__ZN15dense_hashtableINSt3__24pairIK10KeyWrapperINS1_IPK9FieldInfoP11Il2CppClassEEEjEES9_17ReflectionMapHashIS8_EN14dense_hash_mapIS9_jSD_19ReflectionMapEqualsIS8_ENS0_9allocatorISB_EEE9SelectKeyESG_SI_EC2EjRKSD_RKSG_RKSK_
K9k:__ZN6il2cpp2vm6Thread5SetupEP12Il2CppThread
the:__ZN8Collider30GetRelativePositionAndRotationERK9TransformR10Matrix4x4f
HAj:_Playables_SetPlayStateValidated_m770460097
OUd:__ZN5physx35PxcSweepEstimateAnyShapeHeightfieldERKNS_11PxsCCDShapeES2_PKNS_12PxsRigidBodyES5_RKNS_11PxTransformES8_f
phg:_ReadOnlyCollection_1_System_Collections_IList_Remove_m2200089035_gshared
$3c:__ZN5physx3Cct13BoxControllerC2ERKNS_16PxControllerDescERNS_9PxPhysicsEPNS_7PxSceneE
F3f:_Collection_1_CheckWritable_m2756357359_gshared
PBl:___munmap
zyg:_InputField_get_characterLimit_m2386380888
MQi:__ZL68ColorBlock_t2652774230_CustomAttributesCacheGenerator_m_PressedColorP21CustomAttributesCache
SBf:_Convert_ToInt64_m1722087499
S1a:__ZN22RenderingCommandBuffer24PostExecuteCommandBufferER17ShaderPassContextP13RenderTexture
Og:_localtime_r
Jff:__ZN16VirtFuncInvoker3IbP8String_tS1_iE6InvokeEjPvS1_S1_i
R8i:__Z80RuntimeInvoker_Il2CppObject_Ray_t2469606224_Single_t2076509932_Int32_t2071877448PK10MethodInfoPvPS2_
fAi:__ZL81AppDomain_t2719102437_CustomAttributesCacheGenerator_assembly_resolve_in_progressP21CustomAttributesCache
Yti:__ZL65InterfaceTypeAttribute_t4113096249_CustomAttributesCacheGeneratorP21CustomAttributesCache
vOh:_CallbackHandler_EndInvoke_m2406225629
Rg:_strftime
Lha:__ZN7Texture33SetStoredColorSpaceNoDirtyNoApplyE17TextureColorSpace
V2:__ZN12FileAccessorD2Ev
nna:__ZN10ColorRGBAf8TransferI18StreamedBinaryReadILb0EEEEvRT_
Uzb:__ZN14VertexDataInfoC2Ev
tLf:_Exception_GetObjectData_m2653827630
avk:_Vector3_Equals_m2692262876_AdjustorThunk
r0j:_InternalEnumerator_1_get_Current_m2415979394_gshared
Idh:_TlsClientHello_Update_m1723542631
GWb:__ZL17Transfer_GUIStyleI18StreamedBinaryReadILb1EELb1EEvRK29SerializationCommandArgumentsR31RuntimeSerializationCommandInfo
OHj:_ScrollRect_SetDirtyCaching_m1491302821
Y0k:__ZN6il2cpp6icalls8mscorlib6SystemL9IsPrivateEPK12PropertyInfo
UUd:__ZNK5physx18PxcConvexTriangles16getPolygonNormalEj
MUh:_CustomAttributeData_GetCustomAttributes_m3258419955
f6:__ZN9shadertag10InitializeEv
_le:__ZN5physx24NpPtrTableStorageManager8canReuseEjj
pif:_EncoderFallback__ctor_m1639180960
G7j:_InternalEnumerator_1_MoveNext_m1441038493_gshared
dwb:__ZN15QualitySettings14QualitySetting8TransferI24GenerateTypeTreeTransferEEvRT_
MXe:_Array_InternalArray__ICollection_CopyTo_TisParameterModifier_t1820634920_m4127516211_gshared
jdf:_DecoderReplacementFallback__ctor_m2344783488
qvh:_Enumerator_System_Collections_IDictionaryEnumerator_get_Key_m467957770_AdjustorThunk
cJd:__ZN5physx2Sc27ConstraintProjectionManager33processConstraintForGroupBuildingEPNS0_13ConstraintSimERNS0_20ScratchAllocatorListIS3_Lj64EEE
Su:__ZN17AnimationCurveTplI8Vector3fE8TransferI18StreamedBinaryReadILb1EEEEvRT_
Pug:_GraphicRegistry_UnregisterGraphicForCanvas_m820096873
yEe:__Z28Font_Get_Custom_PropMaterialP12Il2CppObject
hvl:__ZN6il2cpp6icalls8mscorlib6System9Threading16NativeEventCalls19ResetEvent_internalE12Il2CppIntPtr
sOi:__ZL65EventTrigger_t1967201810_CustomAttributesCacheGenerator_delegatesP21CustomAttributesCache
W4f:_Collection_1_Remove_m4136193368_gshared
TBf:_Decimal__ctor_m1770144563
skg:_EventTrigger_OnPointerUp_m2791622548
XJj:_Shadow_set_useGraphicAlpha_m141905402
$bc:__ZN22BlockMemoryCacheWriter14LockCacheBlockEjPPhS1_
Aol:__ZN6il2cpp2os6Thread10RunWrapperEPv
kvc:__ZNSt3__218__insertion_sort_3IRPFbPKN5IMGUI9GUIWindowES4_EPPS2_EEvT0_SA_T_
hLk:_GenericEqualityComparer_1_Equals_m1109000020_gshared
sBd:__ZN5physx22NpParticleBaseTemplateINS_15PxParticleFluidENS_15NpParticleFluidEED2Ev
KLi:__ZL61GUISkin_t1436893342_CustomAttributesCacheGenerator_m_textAreaP21CustomAttributesCache
hHd:__ZN5physx2Cm29ConstraintImmediateVisualizer19visualizeDoubleConeERKNS_11PxTransformEfb
CBc:__Z22TransferField_NonArrayI8JSONRead27Converter_SimpleNativeClassI8GUIStyleEEvRK23StaticTransferFieldInfoR31RuntimeSerializationCommandInfoRT0_
A4k:__ZN15dense_hashtableINSt3__24pairIK10KeyWrapperIPK10Il2CppTypeEjEES6_N6il2cpp8metadata14Il2CppTypeHashEN14dense_hash_mapIS6_jSB_NSA_17Il2CppTypeCompareENS0_9allocatorIS8_EEE9SelectKeyESD_SF_E12resize_deltaEjj
tTc:__ZN5physx6shdfnd5ArrayINS_13PxExtendedBoxENS0_19ReflectionAllocatorIS2_EEE8recreateEj
w_d:__ZN5physx20ProcessBPResultsTask11runInternalEv
Gad:__ZN5physx6shdfnd5ArrayIPvNS0_19ReflectionAllocatorINS_2Cm5BlockIS2_Lj16EEEEEE4copyINS0_15InlineAllocatorILj256ES7_EEEEvRKNS1_IS2_T_EE
wh:_llvm_eh_typeid_for
T9b:__Z13RegisterClassI10GameObjectEvv
iqi:__ZL53HashValues_t2390200547_CustomAttributesCacheGeneratorP21CustomAttributesCache
Snh:_X509BasicConstraintsExtension_get_PathLengthConstraint_m3004531343
Lri:__ZL125GenericTypeParameterBuilder_t1370236603_CustomAttributesCacheGenerator_GenericTypeParameterBuilder_GetConstructors_m103067670P21CustomAttributesCache
KJd:__ZN5physx7NpScene19getActiveTransformsERjh
j7d:__ZN5physx6shdfnd5ArrayIPKNS_24PxsIndexedContactManagerENS0_19ReflectionAllocatorIS4_EEE8recreateEj
ARg:_MissingMemberException__ctor_m4277447068
j3h:_StrongNameKeyPair_System_Runtime_Serialization_ISerializable_GetObjectData_m1693082120
R1a:__ZNK19RenderEventsContext25PostExecuteCommandBuffersEiR17ShaderPassContextP13RenderTextureP19ProfilerInformationi
mMa:__ZN9GfxDevice14EndBufferWriteEP9GfxBufferj
pKk:_EqualityComparer_1__ctor_m3155445483_gshared
onl:__ZN6il2cpp2vm6Method8GetParamEPK10MethodInfoj
YIg:_Int64_CompareTo_m1953686218
EKk:_GenericComparer_1__ctor_m221205314_gshared
Yfl:__ZN6il2cpp6icalls8mscorlib6System2IO6MonoIO4ReadE12Il2CppIntPtrP11Il2CppArrayiiPi
PYl:_glBindVertexArray__wrapper
rge:__ZN5physx6shdfnd5ArrayINS_11RTreeNodeNQENS0_19ReflectionAllocatorIS2_EEE19resizeUninitializedEj
s7c:__ZNK5physx2Sc16InteractionScene18getLLIslandManagerEv
IRh:_DSA_Create_m3450041777
mma:__ZN8Material8TransferI14SafeBinaryReadEEvRT_
rUd:__ZN5physx17PxcNpMemBlockPool34acquireExceptionalConstraintMemoryEj
Xqb:__ZN12CubemapArray17UploadToGfxDeviceEv
zqa:__ZN6prcoreL17RemapGenericFloatI15TexFormatRGHalf17TexFormatRGBAHalfEEvPKNS_9InnerInfoE
HPf:_Enumerator_System_Collections_IEnumerator_Reset_m2200349770_gshared
q9f:_Collection_1_get_Item_m3791221403_gshared
yxi:__ZL54PaddingMode_t3032142640_CustomAttributesCacheGeneratorP21CustomAttributesCache
Mhj:__Z75RuntimeInvoker_Void_t1841601450_ConstraintU26_t2775779428_Int32_t2071877448PK10MethodInfoPvPS2_
DVd:__ZN5physxL23PxcSweepConvexTrianglesERKNS_11PxsCCDShapeES2_RKNS_11PxTransformES5_S5_S5_fRNS_6PxVec3ES7_RNS_10PxcNpCacheERNS_18PxcNpThreadContextERKNS_2Cm23FastVertex2ShapeScalingERNS_2Gu9TriangleVEf
bsd:__ZNK5physx7NpShape16getPlaneGeometryERNS_15PxPlaneGeometryE
Foh:_X509Chain_CheckRevocationOnChain_m2441901351
y9e:_SymmetricAlgorithm_CreateDecryptor_m4240570785
Bge:__ZN5physx27InternalTriangleMeshBuilder14fillRemapTableEv
VN:__ZN11AudioSource4StopEb
Ted:__ZN5physx6shdfnd8PoolBaseINS_13NpRigidStaticENS0_19ReflectionAllocatorIS2_EEE17releaseEmptySlabsEv
qOb:__ZN14SafeBinaryRead21TransferSTLStyleArrayI13dynamic_arrayI10Matrix4x4fLj4EEEEvRT_17TransferMetaFlags
v9f:_Collection_1_CheckWritable_m732350052_gshared
ipf:_Byte_System_IConvertible_ToDecimal_m1036493607
Xzi:__ZL47Timer_t791717973_CustomAttributesCacheGeneratorP21CustomAttributesCache
Gga:__Z25GetSplashScreenBackgroundRK5RectTIfE
o_j:_InternalEnumerator_1_System_Collections_IEnumerator_get_Current_m1679297177_gshared
TRi:__ZL65Image_t2042527209_CustomAttributesCacheGenerator_m_PreserveAspectP21CustomAttributesCache
$7j:_DefaultComparer_Compare_m1247109616_gshared
y3h:_ResourceManager__ctor_m498829021
xLa:__ZN18GlslGpuProgramGLESD2Ev
Uke:__ZThn116_NK5physx7profile8ZoneImplINS_28PxProfileNameProviderForwardEE10hasClientsEv
M1d:__ZN5physx2Gu20pcmContactCapsuleBoxERKNS0_13GeometryUnionES3_RKNS_11PxTransformES6_RKfRNS0_5CacheERNS0_13ContactBufferE
ONh:_SerializationCallbacks__ctor_m722356782
vBc:__ZN10Matrix4x4f8TransferI8JSONReadEEvRT_
Lai:_GUIUtility_INTERNAL_CALL_Internal_GetNextControlID2_m502958187
Y7b:__ZN22GenericPropertyBinding8RegisterEPKc11ClassIDTypePFfPvEPFvS3_fE
W9:__ZN14dense_hash_mapIPKcPK4RTTIN11TypeManager23ConstCharPtrHashFunctorENS5_19ConstCharPtrEqualToE13stl_allocatorINSt3__24pairIKS1_S4_EEL18MemLabelIdentifier6ELi16EEE5beginEv
oMk:_Comparison_1_Invoke_m2255009434_gshared
NIf:_StackTrace__ctor_m772333217
yoj:__Z93RuntimeInvoker_Il2CppObject_Vector2_t2243707579_Vector2_t2243707579_Il2CppObject_Il2CppObjectPK10MethodInfoPvPS2_
S7:__ZN17PersistentManager18ReadObjectThreadedEi
ECa:__ZN25TransformFeedbackSkinning31CleanupTransformFeedbackShadersEv
gul:__ZN6il2cpp6icalls8mscorlib6System7Runtime16CompilerServices14RuntimeHelpers15InitializeArrayEP11Il2CppArray12Il2CppIntPtr
Q1j:_InternalEnumerator_1_System_Collections_IEnumerator_get_Current_m2851415307_gshared
rre:__ZNK20TextRenderingPrivate8FontImpl19GetCharacterAdvanceEjijfPj
kxl:__ZN6il2cpp6icalls8mscorlib4Mono8Security12Cryptography18KeyPairPersistence16_IsUserProtectedEP12Il2CppString
cfh:__ZN16VirtFuncInvoker1IP28HandshakeMessage_t3938752374hE6InvokeEjPvh
lfg:_ReadOnlyCollection_1_Contains_m3936562733_gshared
bkh:_DefaultUriParser__ctor_m4218024811
lWh:_DerivedType_GetField_m3960169619
KGf:_Decimal_System_IConvertible_ToInt16_m3159038792_AdjustorThunk
pBb:__ZN10VertexData8TransferI18StreamedBinaryReadILb0EEEEvRT_
Hed:__ZN5physx2Sc5Scene9addStaticERNS0_10StaticCoreEPKPvjj
Khc:__Z39DeleteLastPathNameComponentWithAnySlashRKNSt3__212basic_stringIcNS_11char_traitsIcEENS_9allocatorIcEEEE
v1g:_PKCS12_GetExistingParameters_m2413397265
J7f:_Collection_1_ClearItems_m4268731177_gshared
lBk:_LobsterProjectile__ctor_m3862696527
P9a:__ZN14PreloadManager16UpdatePreloadingEv
vlb:__ZN12BaseRendererD2Ev
Nwk:_X509CertificateCollection__ctor_m858704242
KHl:__ZNKSt3__210moneypunctIcLb1EE16do_thousands_sepEv
HQf:_Enumerator__ctor_m425576865_AdjustorThunk
rQd:__ZN5physx2Sc5Scene9addShapesEPKPvjjRNS0_8RigidSimEPNS_12PxsRigidBodyERPNS0_8ShapeSimEPNS_9PxBounds3E
h$i:__Z148RuntimeInvoker_Int32_t2071877448_Il2CppObject_Int32_t2071877448_Int32_t2071877448_Il2CppObject_Int32_t2071877448_Int32_t2071877448_Int32_t2071877448PK10MethodInfoPvPS2_
mhg:_ReadOnlyCollection_1_System_Collections_IList_Contains_m1545447998_gshared
oVi:__ZL79LayoutRebuilder_t2155218138_CustomAttributesCacheGenerator_U3CU3Ef__mgU24cache0P21CustomAttributesCache
C0d:__ZN5physx23PxcPCMContactConvexMeshERKNS_2Gu13GeometryUnionES3_RKNS_11PxTransformES6_RKfRNS_10PxcNpCacheERNS0_13ContactBufferE
Ieb:__ZNK21UnityDefaultAllocatorI17LowLevelAllocatorE8ContainsEPKv
U_k:__ZNSt3__213__vector_baseI6pollfdNS_9allocatorIS1_EEED2Ev
Zbh:_ClientSessionInfo_get_Id_m3046630969
UBi:__ZL78Convert_t2607082565_CustomAttributesCacheGenerator_Convert_ToUInt32_m759656532P21CustomAttributesCache
Fi:_emscripten_get_main_loop_timing
sLg:_DirectoryInfo__ctor_m3750996792
apg:_BaseMeshEffect_ModifyMesh_m2134816219
Z_e:_Array_qsort_TisVector2_t2243707579_m3527759534_gshared
cwb:__ZN24GenerateTypeTreeTransfer21TransferSTLStyleArrayINSt3__26vectorIN15QualitySettings14QualitySettingENS1_9allocatorIS4_EEEEEEvRT_17TransferMetaFlags
eki:_ResourceRequest_t2560315377_marshal_pinvoke_cleanup
sZf:_List_1_System_Collections_Generic_IEnumerableU3CTU3E_GetEnumerator_m166627113_gshared
zEb:__ZNSt3__26vectorI9InputAxisNS_9allocatorIS1_EEE6resizeEj
bbf:_SecurityElement_IsValidAttributeValue_m483287146
Qhf:_Decoder_set_Fallback_m1780632169
Eq:getTempRet0
M0d:__ZN5physx2Gu33MultiplePersistentContactManifold24addManifoldContactPointsEPNS0_21MeshPersistentContactEjPPNS0_15PCMContactPatchEjRKNS_6shdfnd3aos6FloatVESB_h
S1i:__Z114RuntimeInvoker_Void_t1841601450_Il2CppObject_Il2CppObject_Int32_t2071877448_Il2CppObject_Il2CppObject_Il2CppObjectPK10MethodInfoPvPS2_
bUh:_AssemblyTitleAttribute__ctor_m1696431446
Lxg:_Image_AddQuad_m1603575622
k8g:_PrivateKeyInfo_RemoveLeadingZero_m3396807048
bbg:_ReadOnlyCollection_1_System_Collections_Generic_ICollectionU3CTU3E_get_IsReadOnly_m1251192075_gshared
h3g:__ZThn4_N6il2cpp2vm13ComObjectBaseI34__Il2CppComDelegate_t3311706788CCW18Il2CppIInspectableNS0_7details6ComNilES5_S5_S5_S5_S5_S5_E7ReleaseEv
fSf:_List_1_GrowIfNeeded_m185971996_gshared
rdl:__ZN6il2cpp6icalls8mscorlib6System9ThreadingL21lookup_cached_cultureEP12Il2CppThreadi
tRj:__ZN16VirtFuncInvoker1IP24DaylightTime_t3800227331iE6InvokeEjPvi
j4a:__ZN18DeferredRenderLoopD2Ev
tYh:_GenericTypeParameterBuilder_GetMethods_m1243855818
Laa:__ZNK16TypeTreeIterator4NameEv
s2:__ZN15FileSystemEntry3SetEPKc
F7d:__ZN5physx6shdfnd5ArrayIPNS_13PxcNpMemBlockENS0_19ReflectionAllocatorIS3_EEE6resizeEjRKS3_
f7j:_InternalEnumerator_1__ctor_m2808001655_gshared
O4e:_MACTripleDES__ctor_m884945242
qEd:__ZN5physx14NpRigidDynamic8requiresERNS_23PxProcessPxBaseCallbackE
DP:__ZN20SoundChannelInstance15ParameterBuffer5ApplyEPN4FMOD7ChannelE
KPk:__ZL24UnresolvedVirtualCall_52P12Il2CppObjectPK10MethodInfo
MCb:__ZN23SharedMeshRenderingDataD0Ev
ore:__ZN20TextRenderingPrivate19NativeTextGenerator9InsertTabEv
Wmi:__ZL73Enum_t2459695545_CustomAttributesCacheGenerator_Enum_ToObject_m1688724857P21CustomAttributesCache
R5h:_Rect_set_y_m4294916608
gYk:__ZN15dense_hashtableINSt3__24pairIK10KeyWrapperI13dynamic_arrayIPK10Il2CppTypeLj4EEEPFvvEEES8_N6il2cpp8metadata19Il2CppSignatureHashEN14dense_hash_mapIS8_SB_SF_NSE_22Il2CppSignatureCompareENS0_9allocatorISC_EEE9SelectKeyESH_SJ_E16reset_thresholdsEv
Ake:__ZN5physx7profile8ZoneImplINS_28PxProfileNameProviderForwardEE21setProfileZoneManagerEPNS_20PxProfileZoneManagerE
fLe:__ZN11UnityEngine15PlatformWrapper24GetRuntimePlatformStringEv
nj:_glIsEnabled
QYb:__ZN15CacheWriterBaseD2Ev
B1c:__ZN5physx3Cct17CapsuleController15setFootPositionERKNS_14PxExtendedVec3E
Z_c:__ZN5physx2Gu33PCMCapsuleVsMeshContactGeneration13generateEEMTDERKNS_6shdfnd3aos5Vec3VES6_RKNS3_6FloatVES6_jS6_S6_PNS0_21MeshPersistentContactERj
ood:__ZN18MultiQueryCallbackIN5physx10PxSweepHitEED0Ev
pAf:_Convert_ToDateTime_m1251728572
rj:_emscripten_glDrawElementsInstanced
C4f:_Collection_1_System_Collections_IList_IndexOf_m51140022_gshared
L6g:_ARC4Managed_Dispose_m4102232694
d7g:_HMAC_Initialize_m3052649104
$vh:_Enumerator_Dispose_m793495907_AdjustorThunk
S8a:__ZN18JobBatchDispatcherD2Ev
qwb:__ZN9Transform17MainThreadCleanupEv
Ysl:_GC_clear_hdr_marks
wTl:_glScissor__wrapper
KZl:_emscripten_glCreateShader__wrapper
nyg:_InputField_get_caretSelectPositionInternal_m3523572533
Qze:_cff_fd_select_get
Dti:__ZL73CompilationRelaxationsAttribute_t238494011_CustomAttributesCacheGeneratorP21CustomAttributesCache
Mkj:__Z74RuntimeInvoker_Void_t1841601450_Int32_t2071877448_KeyValuePair_2_t38854645PK10MethodInfoPvPS2_
yL:__Z13RegisterClassI18AnimatorControllerEvv
kWa:__ZL54CombineLocalShadowCasterCullignIndexListsAndDestroyJobP25LocalShadowCullingJobData
_Lj:_Text_get_minHeight_m1562513104
Y8e:_SHA512Managed_processBlock_m3220567420
qjh:_NameObjectCollectionBase_get_Keys_m446053925
Bj:_emscripten_glGetShaderiv
fxh:_Transform_1__ctor_m353209818_gshared
jSa:__ZZ23InitPlayerLoopCallbacksvEN41EarlyUpdateUpdateAllUnityWebStreamsstruct7ForwardEv
FQ:__ZN4FMOD6System10getVersionEPj
A8d:__ZN5physx2Sc7BodySim10sleepCheckEffb
d8k:__ZN15dense_hashtableINSt3__24pairIK10KeyWrapperIPK10Il2CppTypeEjEES6_N6il2cpp8metadata14Il2CppTypeHashEN14dense_hash_mapIS6_jSB_NSA_17Il2CppTypeCompareENS0_9allocatorIS8_EEE9SelectKeyESD_SF_E15set_deleted_keyERKS8_
x4b:__ZN5Unity9Component7PRODUCEE18MemLabelIdentifier18ObjectCreationMode
tMi:__ZL96RemoteSettings_t392466225_CustomAttributesCacheGenerator_RemoteSettings_CallOnUpdate_m1624968574P21CustomAttributesCache
sVe:_Array_InternalArray__IndexOf_TisSByte_t454417549_m1427585061_gshared
GXi:__Z75RuntimeInvoker_Byte_t3683104436_Il2CppObject_Int32_t2071877448_Il2CppObjectPK10MethodInfoPvPS2_
fFe:__ZN2UI6Canvas23VirtualRedirectTransferER24GenerateTypeTreeTransfer
_yf:_Decimal_u64_m3991988111
$vk:_YieldInstruction_t3462875981_marshal_pinvoke
VNk:_Predicate_1_BeginInvoke_m2959352225_gshared
fxk:_X509Certificate_Parse_m1764345628
xek:_SynchronizationAttribute_GetClientContextSink_m1264319894
ugi:_PlayerPrefs_GetInt_m2889062785
Mpe:__ZN13TextRendering4Font13AwakeFromLoadE17AwakeFromLoadMode
oOj:__ZN16VirtFuncInvoker0I8IntPtr_tE6InvokeEjPv
tMe:__ZThn564_N18UnityConnectClient18OnAdsIdRequestDoneERK8UnityStrbS2_
Jza:__ZN9GfxDevice21ReleaseSharedMeshDataEP14SharedMeshData
M2g:_SmallXmlParser_Peek_m2814840810
cuj:_CanvasRenderer_get_absoluteDepth_m4243141
sFb:__ZNSt3__27__sort5IRNS_6__lessINS_4pairIPKN5Unity4TypeE7Hash128EES8_EEPS8_EEjT0_SC_SC_SC_SC_T_
sxf:_Enumerator_Reset_m466659019
sRk:__ZL25UnresolvedVirtualCall_142P12Il2CppObjectssPK10MethodInfo
sCl:_vprintf
RFk:_UnityAction_1_EndInvoke_m2822290096_gshared
Zjl:__ZNK15dense_hashtableINSt3__24pairIK10KeyWrapperIP12Il2CppObjectEN6il2cpp2gc9CachedCCWEEES5_NS7_5utils11PointerHashIS3_EEN14dense_hash_mapIS5_S9_SD_NS0_8equal_toIS5_EENS0_9allocatorISA_EEE9SelectKeyESG_SI_E10test_emptyEj
dsl:_GC_unreachable_finalize_mark_proc
mkk:_BalancingGroup_set_Balance_m3452171919
UK:__ZZN8Animator15InitializeClassEvEN31FunctorImpl_389kDidDeleteMotion4CallEPviR11MessageData
Mg:___syscall192
bmg:_PointerEventData_set_worldNormal_m2025727441
Btl:_maybe_finalize
ZNe:__ZN20HardwareInfoReporter18ReportHardwareInfoEv
Xpc:__Z43RectTransform_CUSTOM_INTERNAL_get_anchorMaxP12Il2CppObjectP13Vector2fIcall
Bza:__ZN9GfxDevice38ScheduleDynamicVBOGeometryJobsInternalEPFvP25DynamicVBOGeometryJobDatajEPFvS1_ES1_j16GfxPrimitiveTypeP21DynamicVBOChunkHandle
s0a:__Z16SyncFenceNoClearRK8JobFence
_la:__ZN8Material28UpdateHashesOnPropertyChangeEN9ShaderLab16FastPropertyNameE
Tqc:__Z53Register_UnityEngine_SortingLayer_GetLayerValueFromIDv
dcb:__Z29StdTemplateConversionFunctionIhhEbPvR14SafeBinaryRead
mJk:_EqualityComparer_1_System_Collections_IEqualityComparer_Equals_m349194518_gshared
zuf:_CaseInsensitiveComparer_Compare_m1192858479
YMb:__Z18Transfer_BlittableI14SafeBinaryReadLb1E8Vector4fEvRK29SerializationCommandArgumentsR31RuntimeSerializationCommandInfo
GOg:_StreamAsyncResult_set_Done_m4272090534
bCg:_LayoutRebuilder_Clear_m2390054824
M6f:_Collection_1_System_Collections_IList_Insert_m2968289909_gshared
wUh:_Default_SelectMethod_m622251293
OS:__ZN11AudioSource12AddToManagerEv
vx:__ZN8Animator23VirtualRedirectTransferER19StreamedBinaryWriteILb0EE
Zek:_AsyncResult_get_NextSink_m1172723924
Wgl:__ZN6il2cpp2vm5Image13ClassFromNameEPK11Il2CppImagePKcS6_
XOl:dynCall_vdddddd
Z$b:__ZN24GenerateTypeTreeTransfer21TransferSTLStyleArrayINSt3__26vectorIN9ShaderLab14SerializedPassENS1_9allocatorIS4_EEEEEEvRT_17TransferMetaFlags
Zad:__ZN5physx6shdfnd8internal8HashBaseIPNS_2Sc13ConstraintSimES5_NS0_4HashIS5_EENS1_11HashSetBaseIS5_S7_NS0_9AllocatorELb1EE6GetKeyES9_Lb1EE6createERKS5_Rb
P6:__ZL32MarkLevelGameManagerDependenciesR27GarbageCollectorThreadState
d7i:__Z49RuntimeInvoker_Void_t1841601450_UInt16_t986882611PK10MethodInfoPvPS2_
PBa:__ZNK13GfxDeviceGLES26HasActiveRandomWriteTargetEv
Imj:__Z37RuntimeInvoker_ILTokenInfo_t149559338PK10MethodInfoPvPS2_
Vji:_RenderTexture_set_height_m1787187
Oid:__ZNK5physx15NpActorTemplateINS_18PxArticulationLinkEE7getNameEv
oUl:_glGetActiveUniformsiv__wrapper
Soj:__Z50RuntimeInvoker_Il2CppObject_ColorTween_t3438117476PK10MethodInfoPvPS2_
XSc:__ZNK5physx3Cct10Controller16getInternalStateERNS_17PxControllerStateE
f6i:__Z59RuntimeInvoker_Il2CppObject_Double_t4078015681_Il2CppObjectPK10MethodInfoPvPS2_
is:__Z20AnimationEventToMonoRK14AnimationEventR18MonoAnimationEvent
q8i:__Z83RuntimeInvoker_Void_t1841601450_Il2CppObject_Il2CppObject_Il2CppObject_Il2CppObjectPK10MethodInfoPvPS2_
E7:__ZNK15dense_hashtableINSt3__24pairIKiiEEi21InstanceIDHashFunctorN14dense_hash_mapIiiS4_NS0_8equal_toIiEE13stl_allocatorIS3_L18MemLabelIdentifier1ELi16EEE9SelectKeyES7_SA_E13find_positionERS2_
VEj:_Navigation_get_selectOnLeft_m3980387574_AdjustorThunk
ywj:_CustomYieldInstruction_get_Current_m1743233962
$il:__ZN30dense_hashtable_const_iteratorI10KeyWrapperIP18Il2CppGenericClassES3_N6il2cpp8metadata22Il2CppGenericClassHashEN14dense_hash_setIS3_S6_NS5_25Il2CppGenericClassCompareENSt3__29allocatorIS3_EEE8IdentityES8_SB_E30advance_past_empty_and_deletedEv
rPd:__ZN5physx10PxsContext15setScratchBlockEPvj
tlc:__Z52Register_UnityEngine_RectOffset_INTERNAL_CALL_Removev
DNi:__ZL74UnityEventBase_t828812576_CustomAttributesCacheGenerator_m_PersistentCallsP21CustomAttributesCache
vEh:_DefaultComparer__ctor_m2265472997_gshared
jAj:_CustomAnimationPlayable_op_Implicit_m3677069457
uDb:__ZN4PPtrI6SpriteE8TransferI14SafeBinaryReadEEvRT_
W5c:__ZN5physx2Cm27getDynamicGlobalPoseAlignedERKNS_11PxTransformES3_S3_RS1_
C1i:__Z45RuntimeInvoker_Il2CppObject_IntPtr_t_IntPtr_tPK10MethodInfoPvPS2_
b$b:__ZNSt3__26vectorIN9ShaderLab14SerializedPassENS_9allocatorIS2_EEE8__appendEj
iee:__ZN5physx6shdfnd5ArrayIPvNS0_19ReflectionAllocatorIN17PxcPoolMallocData10PoolData32EEEE15growAndPushBackERKS2_
zch:_Context_get_SupportedCiphers_m2172827298
hKc:__ZN12b2WheelJoint24SolveVelocityConstraintsERK12b2SolverData
q$i:__Z170RuntimeInvoker_Int32_t2071877448_Il2CppObject_Int32_t2071877448_Int32_t2071877448_Il2CppObject_Int16_t4041245914_Int32_t2071877448_SByte_t454417549_ContextU26_t3131521781PK10MethodInfoPvPS2_
ssb:__ZN9Texture2D23VirtualRedirectTransferER18StreamedBinaryReadILb0EE
rMc:__ZN10Collider2D8TransferI24GenerateTypeTreeTransferEEvRT_
Ycf:__ZN16VirtFuncInvoker0IP23CompareInfo_t2310920157E6InvokeEjPv
b4h:_GUIClip_Pop_m603598875
wJf:_Double_System_IConvertible_ToUInt16_m286326038_AdjustorThunk
GLh:_TypeInfo__ctor_m1475908211
clb:__ZNSt3__26__treeINS_12__value_typeIN4core12basic_stringIcNS2_20StringStorageDefaultIcEEEEjEENS_19__map_value_compareIS6_S7_NS_4lessIS6_EELb1EEE13stl_allocatorIS7_L18MemLabelIdentifier6ELi16EEE7destroyEPNS_11__tree_nodeIS7_PvEE
uok:_SliderHandler_ThumbSize_m3714327193_AdjustorThunk
Goh:_X509Chain_WrapUp_m1072032285
Byk:_X509CertificateEnumerator_System_Collections_IEnumerator_MoveNext_m1448966539
Swe:_get_sfnt_table
F3e:_Object_FindObjectOfType_TisIl2CppObject_m2967490724_gshared
s4f:_Collection_1_IsSynchronized_m3261594010_gshared
pUa:_unity_z_tr_stored_block
OWi:__Z46RuntimeInvoker_Single_t2076509932_Il2CppObjectPK10MethodInfoPvPS2_
Edf:_SecuritySafeCriticalAttribute__ctor_m2508714287
wYk:__ZN13dynamic_arrayIPK10Il2CppTypeLj4EE10reallocateEPS2_j
QTe:_Array_compare_TisIl2CppObject_m1481822507_gshared
Rme:__ZN5physx2Gu20registerHeightFieldsEv
pfa:__ZN15dense_hashtableINSt3__24pairIKNS0_12basic_stringIcNS0_11char_traitsIcEE13stl_allocatorIcL18MemLabelIdentifier54ELi16EEEEP11AssetBundleEES8_11djb2_hash_tIS8_EN14dense_hash_mapIS8_SB_SE_NS0_8equal_toIS8_EENS0_9allocatorISC_EEE9SelectKeyESH_SJ_E13set_empty_keyERKSC_
qRh:_DES_get_Key_m2584608215
VWa:__ZL22ScheduleSceneNodesJobsP25ScheduleSceneNodesJobDataj
Lil:__ZN15dense_hashtableI10KeyWrapperIP18Il2CppGenericClassES3_N6il2cpp8metadata22Il2CppGenericClassHashEN14dense_hash_setIS3_S6_NS5_25Il2CppGenericClassCompareENSt3__29allocatorIS3_EEE8IdentityES8_SB_ED2Ev
WXd:__ZN5physx22concludeContactCoulombERKNS_23PxcSolverConstraintDescERNS_16PxcSolverContextE
rl:_emscripten_set_canvas_size
Uni:__ZL65Il2CppArray_CustomAttributesCacheGenerator_Array_Sort_m3645766612P21CustomAttributesCache
ozd:__ZNK5physx15NpParticleFluid12getStiffnessEv
FDh:_Dictionary_2_System_Collections_Generic_ICollectionU3CSystem_Collections_Generic_KeyValuePairU3CTKeyU2CTValueU3EU3E_Remove_m761601731_gshared
Rvf:_Hashtable__ctor_m741952536
L_b:__ZNSt3__26vectorIN9ShaderLab20SerializedSubProgramENS_9allocatorIS2_EEE8__appendEj
N$:__ZN20DynamicHeapAllocatorI17LowLevelAllocatorE8AllocateEji
v$a:__ZN20DynamicPropertySheet15SetVectorQueuedERKN9ShaderLab16FastPropertyNameERK8Vector4fN19ShaderPropertySheet8SetFlagsE
ogf:_String_Format_m1263743648
rrj:_AudioListener_set_pause_m4072603757
brj:_DefaultExecutionOrder_get_order_m1561221759
Zeg:_ReadOnlyCollection_1_System_Collections_IEnumerable_GetEnumerator_m4248982967_gshared
ED:__ZN7mecanim9animation22EvaluateAvatarRetargetEPKNS0_14AvatarConstantEPKNS0_11AvatarInputEPNS0_12AvatarOutputEPNS0_12AvatarMemoryEPNS0_15AvatarWorkspaceEb
lCg:_LayoutRebuilder_GetHashCode_m2745108660
IVk:__ZN15dense_hashtableINSt3__24pairIK10KeyWrapperIPK19Il2CppGenericMethodEPK26Il2CppGenericMethodIndicesEES6_N6il2cpp8metadata23Il2CppGenericMethodHashEN14dense_hash_mapIS6_SA_SE_NSD_26Il2CppGenericMethodCompareENS0_9allocatorISB_EEE9SelectKeyESG_SI_E14squash_deletedEv
oDk:_TrailRendererSortingLayer_Update_m2452615204
GDc:__ZL26Transfer_SimpleNativeClassI9JSONWrite10RectOffsetLb0EEvRK29SerializationCommandArgumentsR31RuntimeSerializationCommandInfo
xsl:_GC_push_conditional
aFa:__ZN17GenericDynamicVBO10AllocateVBEjR21DynamicVBOChunkHandle
FTf:_List_1_get_Item_m1547593893_gshared
nkj:__Z70RuntimeInvoker_Void_t1841601450_CustomAttributeNamedArgument_t94157543PK10MethodInfoPvPS2_
dLg:_Path_GetPathRoot_m1269357080
a0d:__ZL27PxcTestFacesSepAxesBackfaceRKN5physx2Gu13PolygonalDataES3_RKNS_2Cm8Matrix34ES7_RKNS4_23FastVertex2ShapeScalingESA_S7_RKNS_6PxVec3ERfRSB_RjPjSG_fSD_
Vjg:_EventSystem_SetSelectedGameObject_m2211816110
rxh:_Transform_1__ctor_m4161450529_gshared
Ql:_glMapBufferRange
gsb:__ZN9Texture2D8TransferI18StreamedBinaryReadILb0EEEEvRT_
FBh:_Dictionary_2_Remove_m1947153975_gshared
Vmc:__Z31Input_CUSTOM_GetMouseButtonDowni
Zni:__ZL65Il2CppArray_CustomAttributesCacheGenerator_Array_Sort_m1730553742P21CustomAttributesCache
Bud:__ZNK5physx7NpCloth23getExternalAccelerationEv
vZa:__ZNK9Transform16GetLocalPositionEv
PMb:__Z19scripting_array_newP11Il2CppClassjj
Lwa:__ZN13LoadOperation19IntegrateTimeSlicedEi
Jvb:__ZNK15QualitySettings26GetTypeInfoVirtualInternalEv
ush:_InterpreterFactory__ctor_m3331468903
uZd:__ZN5physx16PxsBroadPhaseMBP9updatePPUEPNS_10PxBaseTaskE
c2g:_X501__cctor_m3795360380
aCa:__ZN13GfxDeviceGLES22DispatchComputeProgramE12ObjectHandleI18ComputeProgram_TagPvE15ComputeBufferIDj
Wxl:__ZN6il2cpp8metadata25Il2CppGenericClassCompare7CompareERK10KeyWrapperIP18Il2CppGenericClassES7_
gai:_GUIStyle_set_contentOffset_m2138084868
Cs:__ZNK13AnimationClip15GetAverageSpeedEv
LBf:_Convert_ToInt32_m2297793940
yva:__Z17TransformAABBSlowRK4AABBRK10Matrix4x4fRS_
etb:__ZN15SerializeTraitsI13dynamic_arrayI7Hash128Lj8EEE19ResizeSTLStyleArrayERS2_i18MemLabelIdentifier
Ilj:__Z96RuntimeInvoker_Void_t1841601450_Vector2U5BU5DU26_t1595685398_Int32_t2071877448_Int32_t2071877448PK10MethodInfoPvPS2_
soh:_X509Chain_Build_m1140429528
EZb:__ZN9ShaderLab21SerializedShaderState8TransferI14SafeBinaryReadEEvRT_
lY:__ZTv0_n12_NSt3__219basic_ostringstreamIcNS_11char_traitsIcEENS_9allocatorIcEEED1Ev
ECl:_ftruncate
W7e:_RSAPKCS1SignatureFormatter_SetKey_m2365816458
ute:__ZN13RuntimeStaticINSt3__26vectorIPN20TextRenderingPrivate17TextMeshGeneratorENS0_9allocatorIS4_EEEEE13StaticDestroyEPv
WGg:_Int16_GetHashCode_m304503362_AdjustorThunk
NAe:_cf2_stack_pushInt
nG:__ZN7mecanim9animation20DestroyLayerConstantEPNS0_13LayerConstantERNS_6memory9AllocatorE
xBd:__ZN5physx6shdfnd8PoolBaseINS_16NpParticleSystemENS0_19ReflectionAllocatorIS2_EEE12allocateSlabEv
R2d:__ZN5physx9PxTaskMgr12dispatchTaskEjb
sEj:_MaskableGraphic_SetClipRect_m3871029457
klg:_ExecuteEvents_get_cancelHandler_m1964324668
UVl:b89
QVl:b88
CLi:__ZL70GUISettings_t622856320_CustomAttributesCacheGenerator_m_SelectionColorP21CustomAttributesCache
yUl:b81
xUl:b80
CUl:b83
taa:__ZN18ResourceImageGroup7CleanupEv
NVl:b85
K8c:__ZN5physx2Gu36closestPtPointTetrahedronTesselationEPNS_6shdfnd3aos5Vec3VES4_S4_RjRS3_S6_
PVl:b87
OVl:b86
Xv:__ZN11Quaternionf8TransferI24GenerateTypeTreeTransferEEvRT_
p0d:__ZN5physx25PxcPCMContactSphereConvexERKNS_2Gu13GeometryUnionES3_RKNS_11PxTransformES6_RKfRNS_10PxcNpCacheERNS0_13ContactBufferE
lMj:_ToggleGroup_RegisterToggle_m3118973598
v_e:_Array_InternalArray__set_Item_TisTextEditOp_t3138797698_m97736153_gshared
i8g:_PrivateKeyInfo_Decode_m1053025782
kqh:_X509ChainElementCollection_System_Collections_ICollection_CopyTo_m1467895312
S9d:__ZN5physx2Cm18DelegateFanoutTaskINS_2Sc5SceneEXadL_ZNS3_20particlePostShapeGenEPNS_10PxBaseTaskEEEED0Ev
d1g:_PKCS12_Decrypt_m2457743414
lqb:__ZN8Playable19SetOutputConnectionEPS_i
Dm:_glDeleteShader
AP:__ZN11SoundHandle8Instance15UpdateLoadStateEv
Qic:__Z54Register_UnityEngine_SystemInfo_get_graphicsDeviceNamev
mLf:_Exception_GetType_m3898489832
uqa:__ZN6prcoreL17RemapGenericFloatI15TexFormatRGHalf16TexFormatRGFloatEEvPKNS_9InnerInfoE
tpd:__ZN5physx6shdfnd8PoolBaseINS_10NpMaterialENS0_19ReflectionAllocatorIS2_EEE15disposeElementsEv
t1f:_Stack_1_Peek_m1548778538_gshared
xag:_Collection_1_System_Collections_IList_get_Item_m1995028750_gshared
eSa:__ZZ23InitPlayerLoopCallbacksvEN38EarlyUpdateExecuteMainThreadJobsstruct7ForwardEv
Hvk:_Vector4_Dot_m2285943745
mra:__ZN19RuntimeSceneManager9LoadSceneERK8UnityStrS2_S2_RK9UnityGUIDiNS_11LoadingModeE
ogc:__Z27scripting_add_internal_callPKcPKv
cZe:_Array_InternalArray__Insert_TisUriScheme_t1876590943_m2728325409_gshared
PLi:__ZL72GUISkin_t1436893342_CustomAttributesCacheGenerator_m_verticalSliderThumbP21CustomAttributesCache
Hjl:__GLOBAL__sub_I_GarbageCollector_cpp
A5:__Z17GetPlayerSettingsv
oUc:__ZL21ContactReductionAllInRN5physx2Gu13ContactBufferEjjRKNS_7PxMat33EPKNS_6PxVec3EPKh
ghj:__Z65RuntimeInvoker_KeyValuePair_2_t38854645_Il2CppObject_Il2CppObjectPK10MethodInfoPvPS2_
eE:__ZN34BlobWriteTransferSTLStyleArrayImplI22OffsetPtrArrayTransferIiEEclERS1_17TransferMetaFlagsR9BlobWrite
Oyk:_X509Store_CheckStore_m1027496478
bjj:__Z87RuntimeInvoker_Int32_t2071877448_UIVertex_t1204258818_UIVertex_t1204258818_Il2CppObjectPK10MethodInfoPvPS2_
Zsi:__ZL82MethodBase_t904190842_CustomAttributesCacheGenerator_MethodBase_Invoke_m1075809207P21CustomAttributesCache
X_j:_InternalEnumerator_1_MoveNext_m1994485778_AdjustorThunk
Ibj:__Z133RuntimeInvoker_Boolean_t3825574718_Vector3U26_t425862308_Vector3U26_t425862308_Single_t2076509932_Int32_t2071877448_Int32_t2071877448PK10MethodInfoPvPS2_
_Qi:__ZL62DropdownItem_t4139978805_CustomAttributesCacheGenerator_m_TextP21CustomAttributesCache
oAc:__Z33EmitSerializationCommandsForFieldI8JSONReadEvR18TransferField_InfoR32SerializationCommandQueueBuilderRP20AllowNameConversions
cc:invoke_vffff
DPf:_Enumerator_MoveNext_m1706162224_gshared
TLl:__ZNSt3__212basic_stringIcNS_11char_traitsIcEENS_9allocatorIcEEEC2ERKS5_jjRKS4_
_Oa:__ZN15dense_hashtableINSt3__24pairIKNS0_12basic_stringIcNS0_11char_traitsIcEE13stl_allocatorIcL18MemLabelIdentifier54ELi16EEEEP20ArchiveStorageReaderEES8_11djb2_hash_tIS8_EN14dense_hash_mapIS8_SB_SE_NS0_8equal_toIS8_EES5_ISC_LS6_54ELi16EEE9SelectKeyESH_SI_E5clearEv
agf:_String_Contains_m4017059963
B0e:_Array_swap_TisCustomAttributeNamedArgument_t94157543_TisCustomAttributeNamedArgument_t94157543_m3600072996_gshared
K7j:_DefaultComparer_Compare_m1606207039_gshared
vHe:__ZN2UI14CanvasRenderer12SyncMaterialENS0_8SyncFlagE
PKl:__ZNSt3__26locale5__imp7installINS_7codecvtIDsc11__mbstate_tEEEEvPT_
y9g:_CipherSuite_get_ExchangeAlgorithmType_m3219223789
Ywl:__ZN6il2cpp2vm9Parameter30GetDefaultParameterValueObjectEPK10MethodInfoPK13ParameterInfoPb
WZe:_Array_InternalArray__set_Item_TisLabelData_t3712112744_m2253365137_gshared
w0h:_MonoCMethod_get_Attributes_m3914742834
N8:__Z26scripting_object_get_classP12Il2CppObject
iei:_MonoBehaviour_Invoke_m666563676
PVh:_ConstructorBuilder_get_DeclaringType_m4264602248
vu:__ZNSt3__26vectorIhNS_9allocatorIhEEE8__appendEj
oHf:_Decimal_decimalDiv_m900036616
yPg:_StringReader__ctor_m643998729
vQa:__ZN14dense_hash_mapINSt3__212basic_stringIcNS0_11char_traitsIcEE13stl_allocatorIcL18MemLabelIdentifier54ELi16EEEEP20ArchiveStorageReader11djb2_hash_tIS7_ENS0_8equal_toIS7_EES4_INS0_4pairIKS7_S9_EELS5_54ELi16EEE13set_empty_keyERSF_
zjd:__ZN5physx19NpRigidBodyTemplateINS_18PxArticulationLinkEE16setRigidBodyFlagENS_15PxRigidBodyFlag4EnumEb
w5i:__Z75RuntimeInvoker_DateTime_t693205669_DateTime_t693205669_TimeSpan_t3430258949PK10MethodInfoPvPS2_
f$a:__ZN14qsort_internal31_FindAndMovePivotToLastPositionIP17RODataReplacementi19ROSorterReplacementEEvT_S4_T0_T1_
Jw:__ZN14AnimationEvent8TransferI19StreamedBinaryWriteILb0EEEEvRT_
Jv:__ZN7mecanim9animation9DenseClip8TransferI24GenerateTypeTreeTransferEEvRT_
Jwe:_UNITY_tt_face_done_kern
eDl:__ZNSt3__215basic_streambufIcNS_11char_traitsIcEEE4syncEv
ldk:_Context_get_DefaultContext_m2211922324
abk:_MarshalDirectiveException__ctor_m1606841389
LOi:__ZL88AxisEventData_t1524870173_CustomAttributesCacheGenerator_U3CmoveVectorU3Ek__BackingFieldP21CustomAttributesCache
vyc:__Z59GUIStyle_CUSTOM_Internal_GetNumCharactersThatFitWithinWidth13Il2Cpp_IntPtrP12Il2CppStringf
nLa:__Z4TrimRKNSt3__212basic_stringIcNS_11char_traitsIcEENS_9allocatorIcEEEES7_
z8g:_RSAManaged_GetPaddedValue_m2972141669
DIj:_ScrollRect_OnDrag_m1424848249
Wdh:_TlsServerCertificate_ProcessAsSsl3_m277089231
VSe:_Array_InternalArray__IEnumerable_GetEnumerator_TisUInt16_t986882611_m3665860884_gshared
Wfa:__Z19scripting_gc_enablev
Qjk:_AnchorInfo__ctor_m617409099
Jle:__ZN5physx7profile11EventBufferINS_24PxDefaultContextProviderENS_6shdfnd6MutexTINS0_26WrapperReflectionAllocatorIhEEEENS0_14ScopedLockImplIS7_EENS_24PxProfileNullEventFilterEE9stopEventEty
vbb:__Z29StdTemplateConversionFunctionIihEbPvR14SafeBinaryRead
uYh:_GenericTypeParameterBuilder_GetMethodImpl_m528545634
pJe:__Z55Register_UnityEngine_CanvasRenderer_DisableRectClippingv
Ysh:_Interval_CompareTo_m2909556284_AdjustorThunk
Pzb:__ZN14SafeBinaryRead21TransferSTLStyleArrayI13dynamic_arrayI11ColorRGBA32Lj4EEEEvRT_17TransferMetaFlags
QHl:__ZNKSt3__210moneypunctIcLb1EE13do_pos_formatEv
Alj:__Z97RuntimeInvoker_Void_t1841601450_PlayableU5BU5DU26_t2309105347_Int32_t2071877448_Int32_t2071877448PK10MethodInfoPvPS2_
cFj:_Navigation_t1571958496_marshal_pinvoke
Srh:_Interpreter_GetLastDefined_m2450713313
SHl:__ZNSt3__210moneypunctIwLb0EED2Ev
ejk:_Parser_ParseAssertionType_m3316669790
vJj:_Selectable_get_isPointerDown_m774209881
_mi:__ZL73Enum_t2459695545_CustomAttributesCacheGenerator_Enum_ToObject_m2460371738P21CustomAttributesCache
APl:dynCall_viiiifii
mgi:_Plane_get_distance_m1834776091_AdjustorThunk
P7:__Z20GetPersistentManagerv
_De:_UNITY_TT_Set_Var_Design
kdk:_Context_Finalize_m1386439645
zfa:__ZN21SystemInfoStringCache16StaticInitializeEPv
W9g:_TlsStream__ctor_m4117943603
lHd:__ZN5physx2Cm20visualizeLinearLimitERNS0_12RenderOutputEfRKNS_11PxTransformES5_fb
p7c:__ZN5physx2Sc7BodySim18internalWakeUpBaseEf
Jnl:__ZN6il2cpp2gc16GarbageCollector23MakeDescriptorForObjectEPji
baa:__ZNSt3__212basic_stringIcNS_11char_traitsIcEE13stl_allocatorIcL18MemLabelIdentifier1ELi16EEE21__grow_by_and_replaceEjjjjjjPKc
Z2h:_ParameterModifier_t1820634920_marshal_pinvoke
yKb:__ZNK13MonoBehaviour7GetNameEv
mjj:__Z104RuntimeInvoker_Int32_t2071877448_Il2CppObject_UICharInfo_t3056636800_Int32_t2071877448_Int32_t2071877448PK10MethodInfoPvPS2_
hfl:__ZN13dynamic_arrayIP12Il2CppObjectLj4EE9push_backEv
gsa:__ZN19ScriptingInvocation28AdjustArgumentsToMatchMethodEv
uig:_AbstractEventData_Use_m1797212290
jAi:__ZL56AppDomainSetup_t611332832_CustomAttributesCacheGeneratorP21CustomAttributesCache
xbj:__Z76RuntimeInvoker_Boolean_t3825574718_Ray_t2469606224_RaycastHitU26_t1969197280PK10MethodInfoPvPS2_
cbl:__ZN6il2cpp2vm4Type19GetGenericParameterEPK10Il2CppType
Q_j:_InternalEnumerator_1__ctor_m439810834_AdjustorThunk
RIe:__Z51Register_UnityEngine_CanvasGroup_get_blocksRaycastsv
d6j:_InternalEnumerator_1_get_Current_m2826780083_gshared
MFd:__ZN5physx20NpRigidActorTemplateINS_13PxRigidStaticEE15exportExtraDataERNS_22PxSerializationContextE
$Xl:b119
Wml:__ZNK15dense_hashtableINSt3__24pairIK10KeyWrapperIP14Il2CppIUnknownEjEES5_N6il2cpp5utils11PointerHashIS3_EEN14dense_hash_mapIS5_jSB_NS0_8equal_toIS5_EENS0_9allocatorIS7_EEE9SelectKeyESE_SG_E12test_deletedEj
hfa:__ZN14dense_hash_mapINSt3__212basic_stringIcNS0_11char_traitsIcEE13stl_allocatorIcL18MemLabelIdentifier54ELi16EEEEP11AssetBundle11djb2_hash_tIS7_ENS0_8equal_toIS7_EENS0_9allocatorINS0_4pairIKS7_S9_EEEEE13set_empty_keyERSG_
MVi:__ZL105LayoutUtility_t4076838048_CustomAttributesCacheGenerator_LayoutUtility_U3CGetMinHeightU3Em__4_m1769295917P21CustomAttributesCache
zbe:__ZN5physx13BigConvexData5VLoadERNS_13PxInputStreamE
yhi:_RaycastHit2D_get_collider_m2568504212
q7j:_InternalEnumerator_1__ctor_m2782443954_AdjustorThunk
de:_glBeginQuery
gTh:_Assembly_GetCustomAttributes_m95309865
Q6h:_GUILayoutUtility_INTERNAL_CALL_Internal_GetWindowRect_m3236664463
xI:__ZN18AnimatorController19TransferRuntimeDataI24GenerateTypeTreeTransferEEvRT_
Lql:__ZN6il2cpp2vmL9ends_withEPKcS2_
BRd:__ZN5physx11NodeManager6resizeEj
WQc:__ZN10Effector2D25CheckEffectorColliderMaskEP10Collider2DS1_
J6g:_RC4__ctor_m1585026462
C1:__ZN20LocalFileSystemPosix10ToAbsoluteEPKc
bwg:_GridLayoutGroup__ctor_m1099847132
y2j:_InternalEnumerator_1_get_Current_m2286118957_AdjustorThunk
RPd:__ZN5physx2Sc5Scene24setContactModifyCallbackEPNS_23PxContactModifyCallbackE
Pyf:_Convert_ToBoolean_m48997236
_Kd:__ZNK5physx7NpScene28getSceneQueryStaticTimestampEv
Fq:__ZN6Object17MainThreadCleanupEv
Esf:_ArrayListWrapper_set_Capacity_m2792463350
lBl:_getcwd
Ujf:_StringBuilder_Append_m1128243247
OKc:__ZN16b2CapsuleContact6CreateEP9b2FixtureiS1_iP16b2BlockAllocator
Rjk:_AnchorInfo_get_Offset_m142119297
reb:__ZN25ThreadsafeLinearAllocatorD2Ev
ZMg:_FileStream_Seek_m950719389
aTd:__ZN5physx2Sq10AABBPruner11preallocateEj
l8h:_GUISkin_get_settings_m626844463
dda:__ZN21BillboardBatchManager16StaticInitializeEPv
p8h:_Object_get_name_m2079638459
ZWl:b117
e4:__ZN12_GLOBAL__N_138ArchiveRedirectFileSystemStaticDestroyEPv
REk:_InvokableCall_1_add_Delegate_m3048312905_gshared
dLf:_EventHandler_Invoke_m1137722757
gYl:_emscripten_glLoadIdentity__wrapper
Dxj:_Event_set_type_m4059414571
zId:__ZN5physx2Sc19ShapeInstancePairLLC2ERNS0_8ShapeSimES3_RNS0_9ActorPairENS_7PxFlagsINS_10PxPairFlag4EnumEtEE
aTg:_MonoType_IsSubclassOf_m2211166238
hel:__ZN6il2cpp6icalls8mscorlib6System5Array9GetLengthEP11Il2CppArrayi
r3h:_TypeFilter_EndInvoke_m997625354
_v:__ZN13AnimationClip15QuaternionCurve8TransferI18StreamedBinaryReadILb0EEEEvRT_
i5f:_Collection_1_System_Collections_ICollection_CopyTo_m2859266050_gshared
O6:__ZN19RuntimeSceneManagerC2Ev
Gy:__ZN7mecanim14ValueArrayCopyEPKNS_10ValueArrayEPS0_PKNS_14ValueArrayMaskE
y8j:_Comparer_1__ctor_m2876014041_gshared
gtl:_GC_continue_reclaim
Csf:_ArrayListWrapper_get_Count_m2207944952
lqh:_X509ChainElementCollection_System_Collections_IEnumerable_GetEnumerator_m2559704689
dFi:__ZL86BigInteger_t925946153_CustomAttributesCacheGenerator_BigInteger_op_Implicit_m622924526P21CustomAttributesCache
WQi:__ZL59Dropdown_t1985816271_CustomAttributesCacheGenerator_m_ValueP21CustomAttributesCache
ysh:_InterpreterFactory_set_Gap_m2761943153
Anh:_PublicKey_get_Key_m126090744
qma:__ZNSt3__26vectorINS_4pairIiiEENS_9allocatorIS2_EEE6insertENS_11__wrap_iterIPKS2_EERS7_
ise:__ZNSt3__23mapIN20TextRenderingPrivate7FontRefEP11FT_FaceRec_NS_4lessIS2_EENS_9allocatorINS_4pairIKS2_S4_EEEEEixERS9_
IOa:__ZN17ArchiveFileSystem10AddStorageEP20ArchiveStorageReader
Fjd:__ZN5physx19NpRigidBodyTemplateINS_18PxArticulationLinkEE27setMaxDepenetrationVelocityEf
kxd:__ZN5physx2Sc9ClothCore16setStretchConfigENS_22PxClothFabricPhaseType4EnumERKNS_20PxClothStretchConfigE
Quj:_Color_Equals_m661618137
w7f:__ZN21InterfaceFuncInvoker1Ib22UILineInfo_t3621277874E6InvokeEjP11Il2CppClassPvS0_
DLd:__ZN5physx15PxsParticleData13onOriginShiftERKNS_6PxVec3E
PIc:__ZNK12b2MotorJoint16GetReactionForceEf
xJa:__ZN12_GLOBAL__N_112UploadFormatE13TextureFormat
zGh:_EqualityComparer_1_System_Collections_IEqualityComparer_GetHashCode_m1203798961_gshared
$Tk:__ZN6il2cpp2vm5Class15GetEnumBaseTypeEP11Il2CppClass
pLg:_DirectoryNotFoundException__ctor_m3713860966
g9j:_Comparer_1_get_Default_m4282764954_gshared
Gfi:_Physics_Raycast_m2009151399
Wcl:__ZN15dense_hashtableINSt3__24pairIK10KeyWrapperINS1_IP11Il2CppClassjEEES4_EES6_N6il2cpp8metadata14ArrayClassHashEN14dense_hash_mapIS6_S4_SB_NSA_17ArrayClassCompareENS0_9allocatorIS8_EEE9SelectKeyESD_SF_E12resize_deltaEjj
yrb:__ZNK9Texture2D16GetNpotTexelSizeEv
r$j:_InternalEnumerator_1__ctor_m245588437_gshared
gI:__ZN18StreamedBinaryReadILb1EE21TransferSTLStyleArrayI22OffsetPtrArrayTransferI9OffsetPtrIN7mecanim12statemachine21SelectorStateConstantEEEEEvRT_17TransferMetaFlags
brh:_Capture_get_Text_m3472127896
SDj:_Mask_get_rectTransform_m3304369086
Ask:_TooltipAttribute__ctor_m2640804852
GWk:__ZNK10KeyWrapperINSt3__212basic_stringIcNS0_11char_traitsIcEENS0_9allocatorIcEEEEEeqERKS7_
$ne:__ZN13dynamic_arrayItLj2EE6insertEPtPKtS3_
D7i:__Z35RuntimeInvoker_Category_t1984577050PK10MethodInfoPvPS2_
tEh:_DefaultComparer_GetHashCode_m4073394827_gshared
fFa:__ZN9GfxDevice22GetDefaultVertexBufferE26GfxDefaultVertexBufferTypej
Sdg:_ReadOnlyCollection_1_System_Collections_ICollection_CopyTo_m1129689124_gshared
DBl:___fseeko_unlocked
Lgj:__Z162RuntimeInvoker_Void_t1841601450_Il2CppObject_Int32_t2071877448_SByte_t454417549_SByte_t454417549_SingleU26_t4173844468_SingleU26_t4173844468_SingleU26_t4173844468PK10MethodInfoPvPS2_
Uil:__ZN15dense_hashtableI10KeyWrapperIP18Il2CppGenericClassES3_N6il2cpp8metadata22Il2CppGenericClassHashEN14dense_hash_setIS3_S6_NS5_25Il2CppGenericClassCompareENSt3__29allocatorIS3_EEE8IdentityES8_SB_E5clearEv
dGb:__ZN18StreamedBinaryReadILb1EE21TransferSTLStyleArrayI13dynamic_arrayI16SplashScreenLogoLj4EEEEvRT_17TransferMetaFlags
f9f:_Collection_1_Contains_m1999290510_gshared
K3c:__ZN5physx3Cct17CapsuleControllerC2ERKNS_16PxControllerDescERNS_9PxPhysicsEPNS_7PxSceneE
qAb:__ZN14SafeBinaryRead21TransferSTLStyleArrayINSt3__26vectorI17BlendShapeChannelNS1_9allocatorIS3_EEEEEEvRT_17TransferMetaFlags
Aga:__Z17BeginSplashScreenv
Zvj:_ControllerColliderHit_get_moveDirection_m3053186297
BIl:__ZNSt3__212basic_stringIwNS_11char_traitsIwEENS_9allocatorIwEEE6appendIPwEENS_9enable_ifIXaasr21__is_forward_iteratorIT_EE5valuesr38__libcpp_string_gets_noexcept_iteratorIS9_EE5valueERS5_E4typeES9_S9_
O0b:__ZN9ShaderLab16SerializedShader8TransferI19StreamedBinaryWriteILb0EEEEvRT_
amj:__Z55RuntimeInvoker_LabelFixup_t4090909514_Int32_t2071877448PK10MethodInfoPvPS2_
CF:__ZN7mecanim9animation18CreateAvatarMemoryEPKNS0_14AvatarConstantERNS_6memory9AllocatorE
lyf:_Stack_Pop_m3788808882
fuh:_Enumerator_VerifyCurrent_m4246196125_AdjustorThunk
lCh:_Dictionary_2_pick_value_m3484897877_gshared
pFf:_DateTime_op_Equality_m1867073872
wE:__ZN7mecanim8skeleton16SkeletonPoseCopyIN4math4trsXENS2_7affineXEEEvPKNS0_13SkeletonPoseTIT_EEPNS5_IT0_EE
CSb:__Z18Transfer_BlittableI19StreamedBinaryWriteILb0EELb0EaEvRK29SerializationCommandArgumentsR31RuntimeSerializationCommandInfo
OEa:__ZN18GfxFramebufferGLES18GetFramebufferNameERK20GfxRenderTargetSetup
Rsl:_GC_print_block_list
xal:__ZN6il2cpp2vm14TypeNameParser12ParseVersionERKNSt3__212basic_stringIcNS2_11char_traitsIcEENS2_9allocatorIcEEEERtSB_SB_SB_
mAj:_CustomAnimationPlayable_OnSetPlayState_m1903832042
Xkg:__ZN23InterfaceActionInvoker1IP25AxisEventData_t1524870173E6InvokeEjP11Il2CppClassPvS1_
Ufl:__ZN6il2cpp6icalls8mscorlib6System2IO6MonoIO11GetFileTypeE12Il2CppIntPtrPi
qwc:__Z30Event_Get_Custom_PropCharacterP12Il2CppObject
vRk:__ZL25UnresolvedVirtualCall_145P12Il2CppObject22ColorBlock_t2652774230S1_PK10MethodInfo
V$c:__ZN5physx6shdfnd5ArrayINS_12PxDebugPointENS0_19ReflectionAllocatorIS2_EEE15growAndPushBackERKS2_
qTl:_glGetFramebufferAttachmentParameteriv__wrapper
Yaf:_SecurityElement_GetAttribute_m4288291176
w6j:_InternalEnumerator_1_System_Collections_IEnumerator_get_Current_m2389982234_gshared
$he:__ZN8Collider13AwakeFromLoadE17AwakeFromLoadMode
Xjc:__Z56Register_UnityEngine_Camera_INTERNAL_set_backgroundColorv
fva:__ZN14SafeBinaryRead20TransferTypelessDataEjPvi
Gti:__ZL66StringFreezingAttribute_t2691375565_CustomAttributesCacheGeneratorP21CustomAttributesCache
fGc:__ZN9rapidjson13GenericReaderINS_4UTF8IcEES2_13JSONAllocatorE10ParseFalseILj1ENS_25GenericInsituStringStreamIS2_EENS_15GenericDocumentIS2_S3_S3_EEEEvRT0_RT1_
MYf:_List_1_AddCollection_m3284813601_gshared
igb:__ZN33AssetBundleLoadFromAsyncOperation7PerformEv
tUi:__ZL102ToggleGroup_t1030026315_CustomAttributesCacheGenerator_ToggleGroup_U3CActiveTogglesU3Em__1_m4052653494P21CustomAttributesCache
P9i:__Z69RuntimeInvoker_Single_t2076509932_Int32_t2071877448_Int32_t2071877448PK10MethodInfoPvPS2_
y5:__Z19GetActiveColorSpacev
NGh:_EqualityComparer_1__cctor_m1672307556_gshared
GJh:_SoapTypeAttribute_get_IsInteropXmlElement_m2941294827
awe:_UNITY_tt_face_load_kern
pQf:_Enumerator_System_Collections_IEnumerator_get_Current_m3542273247_gshared
Nqf:_Char_System_IConvertible_ToUInt32_m1557991717_AdjustorThunk
Hgf:_Encoding_get_UTF8Unmarked_m628720656
vDg:_NumberFormatter_RoundBits_m1545255255
i6:__Z6StrCmpPKcS0_
S4j:_InternalEnumerator_1_MoveNext_m2906956792_gshared
hlb:__ZN18StreamedBinaryReadILb1EE21TransferSTLStyleArrayINSt3__26vectorI17SortingLayerEntryNS2_9allocatorIS4_EEEEEEvRT_17TransferMetaFlags
h2b:__Z21CheckGpuProgramUsable20ShaderGpuProgramType
QTk:__ZNK15dense_hashtableINSt3__24pairIK10KeyWrapperIPK22Il2CppGenericParameterEP11Il2CppClassEES6_N6il2cpp5utils11PointerHashIS4_EEN14dense_hash_mapIS6_S9_SE_NS0_8equal_toIS6_EENS0_9allocatorISA_EEE9SelectKeyESH_SJ_E13find_positionERS7_
Pij:__Z55RuntimeInvoker_Boolean_t3825574718_Keyframe_t1449471340PK10MethodInfoPvPS2_
eUh:_Binder__cctor_m3736115807
p$a:__ZN13BatchRenderer5FlushEv
sNl:__ZNKSt8bad_cast4whatEv
Tld:__ZN5physx6shdfnd5ArrayIPvNS0_19ReflectionAllocatorINS_2Cm5BlockIhLj128EEEEEE4copyINS0_15InlineAllocatorILj256ES7_EEEEvRKNS1_IS2_T_EE
enf:_Attribute_GetHashCode_m2653962112
fre:__ZN20TextRenderingPrivate19NativeTextGenerator5SetupEv
$ek:_AsyncResult_GetReplyMessage_m262842621
y2a:__ZNK15SharedLightData24GetFinalShadowResolutionEv
FOf:_Enumerator__ctor_m3021143890_AdjustorThunk
zpd:__ZN5physx6shdfnd8PoolBaseINS_16NpConnectorArrayENS0_19ReflectionAllocatorIS2_EEE15disposeElementsEv
mGb:__ZN12AspectRatios8TransferI18StreamedBinaryReadILb0EEEEvRT_
toe:__ZN14PhysicsManager19CreatePvdConnectionEv
Bpi:__ZL66X509ExtensionCollection_t1640144839_CustomAttributesCacheGeneratorP21CustomAttributesCache
bac:__ZN10GameObject14CopyPropertiesERS_
$yc:__Z44Register_UnityEngine_GUIStyle_get_fixedWidthv
l7e:_RSACryptoServiceProvider_Common_m2581564813
eml:__ZNSt3__214__split_bufferIN6il2cpp2os10ThreadImpl10APCRequestERNS_9allocatorIS4_EEEC2EjjS7_
x8:__ZN14SafeBinaryRead4InitERK16TypeTreeIteratorii24TransferInstructionFlags18MemLabelIdentifier
hYj:_ArrayReadOnlyList_1_GetEnumerator_m634288642_gshared
kab:__ZNK13ScreenManager12IsFullScreenEv
bCl:_rand
n5k:__ZN15dense_hashtableINSt3__24pairIK10KeyWrapperINS1_IPK10MethodInfoP11Il2CppClassEEEjEES9_17ReflectionMapHashIS8_EN14dense_hash_mapIS9_jSD_19ReflectionMapEqualsIS8_ENS0_9allocatorISB_EEE9SelectKeyESG_SI_E12maybe_shrinkEv
khe:__ZNK8Collider16SupportsMaterialEv
E_j:_InternalEnumerator_1_get_Current_m2345377791_AdjustorThunk
Iod:__ZNK5physx12NpConstraint9getActorsERPNS_12PxRigidActorES3_
pD:__ZN11UnityEngine9Animation33SetGenericTransformPropertyValuesERKNS0_30AnimatorGenericBindingConstantERKN7mecanim10ValueArrayEP9Transform
iKl:__ZNKSt3__28numpunctIwE16do_decimal_pointEv
zhg:_ReadOnlyCollection_1_GetEnumerator_m2481390116_gshared
bOb:__ZN14SafeBinaryRead21TransferSTLStyleArrayINSt3__26vectorI17AnimationCurveTplIfE13stl_allocatorIS4_L18MemLabelIdentifier1ELi16EEEEEEvRT_17TransferMetaFlags
Bic:__Z60Register_UnityEngine_AsyncOperation_set_allowSceneActivationv
cee:__ZN5physx6shdfnd8PoolBaseIN17PxcPoolMallocData10PoolData16ENS0_19ReflectionAllocatorIS3_EEE15disposeElementsEv
jEj:_CullStateChangedEvent__ctor_m4025397477
Khe:__ZN9Rigidbody23UpdateInterpolationNodeEv
nBk:_LobsterProjectile_FixedUpdate_m2772701150
WMh:_ObjectManager_RegisterObject_m872610295
AWa:__Z22PrepareOptimizedPlanesPK5PlaneiPKN4math7_float4E
moj:__Z47RuntimeInvoker_Vector3_t2243707580_Il2CppObjectPK10MethodInfoPvPS2_
Aii:_RectOffset_t3387826427_marshal_pinvoke
jMe:__ZN11UnityEngine7Connect13ConfigHandler13ConfigChangedERK8UnityStr
Kug:_Graphic_SetVerticesDirty_m1607014370
bda:__ZN17UniqueIDGenerator15CreatePureIndexEv
CKl:__ZNSt3__27codecvtIDsc11__mbstate_tED0Ev
g7g:_MD2__ctor_m3133818738
jK:__ZN11UnityEngine9Animation28GenericAnimationBindingCache15DidReloadDomainEv
a4g:_AppDomain_InternalGetProcessGuid_m1278588156
bAg:_InputField_MoveRight_m386206014
DUb:__ZN6HelperI18StreamedBinaryReadILb0EE23TransferArrayField_InfoE24SerializationFunctionForERKS2_R23StaticTransferFieldInfoPb
BJd:__ZN5physx7NpScene8addActorERNS_7PxActorE
VQe:_Array_InternalArray__ICollection_Remove_TisIl2CppObject_m2425110446_gshared
PJ:__ZN19StreamedBinaryWriteILb0EE8TransferIN7mecanim9animation23BlendDirectDataConstantEEEvRT_PKc17TransferMetaFlags
HHj:_ScrollRect_set_inertia_m2575649134
vKg:_BinaryReader_ReadBoolean_m2892291883
ZIc:__ZNK12b2MouseJoint17GetReactionTorqueEf
ixi:__ZL66DSASignatureDeformatter_t2187578719_CustomAttributesCacheGeneratorP21CustomAttributesCache
Xcc:__ZN4Mesh24UpdateSubMeshVertexRangeEi
B6i:__Z91RuntimeInvoker_Boolean_t3825574718_Il2CppObject_Il2CppObject_Il2CppObject_Int32_t2071877448PK10MethodInfoPvPS2_
ouc:__Z14GUIClipTextureP9Texture2DPhiiii
Iu:__ZN14SafeBinaryRead21TransferSTLStyleArrayI13dynamic_arrayI11KeyframeTplI11QuaternionfELj4EEEEvRT_17TransferMetaFlags
PZj:_InternalEnumerator_1_Dispose_m1064404287_AdjustorThunk
vHa:__ZNSt3__26vectorI27ComputeShaderBuiltinSamplerNS_9allocatorIS1_EEE21__push_back_slow_pathIKS1_EEvRT_
dhj:__Z95RuntimeInvoker_Void_t1841601450_ObjectU5BU5DU26_t3223402458_Int32_t2071877448_Int32_t2071877448PK10MethodInfoPvPS2_
Zdh:_TlsServerCertificate_validateCertificates_m1988583701
f4i:__Z52RuntimeInvoker_DateTime_t693205669_Int16_t4041245914PK10MethodInfoPvPS2_
Ilk:_Uri__ctor_m3927533881
Toi:__ZL61DllImportAttribute_t3000813225_CustomAttributesCacheGeneratorP21CustomAttributesCache
O5:__ZNK9Transform18TransformDirectionERK8Vector3f
X9d:__ZN5physx21PxsBodyTransformVault6updateEv
fRa:__ZNK17ArchiveFileSystem12GetAssetGUIDERK13FileEntryData
$1b:__ZNSt3__26vectorIN9ShaderLab20SerializedSubProgram15MatrixParameterENS_9allocatorIS3_EEE21__push_back_slow_pathIKS3_EEvRT_
N5h:_GUILayoutEntry_SetHorizontal_m1828181654
wca:__ZN13RuntimeStaticINSt3__23setIPFvP11Il2CppClassR23CachedSerializationDataRbENS0_4lessIS8_EENS0_9allocatorIS8_EEEEE16StaticInitializeEPv
PTc:__ZL29GeomMTDCallback_CapsuleConvexRN5physx6PxVec3ERfRKNS_10PxGeometryERKNS_11PxTransformES5_S8_
uHl:__ZNKSt3__210__time_put8__do_putEPwRS1_PK2tmcc
nHh:_EqualityComparer_1_get_Default_m1852501307_gshared
YCk:_SliderController__ctor_m3702861044
NY:__ZNKSt3__23mapINS_12basic_stringIcNS_11char_traitsIcEENS_9allocatorIcEEEES6_NS_4lessIS6_EENS4_INS_4pairIKS6_S6_EEEEE16__find_equal_keyERPNS_16__tree_node_baseIPvEERSA_
g8i:__Z94RuntimeInvoker_Void_t1841601450_Il2CppObject_ByteU5BU5DU26_t790777611_ByteU5BU5DU26_t790777611PK10MethodInfoPvPS2_
QJb:__ZN10MonoScript23VirtualRedirectTransferER17RemapPPtrTransfer
YMl:__ZNK10__cxxabiv120__si_class_type_info27has_unambiguous_public_baseEPNS_19__dynamic_cast_infoEPvi
fFg:_NumberFormatInfo_get_PercentNegativePattern_m1162448153
jqi:__ZL56SyncHashtable_t1343674558_CustomAttributesCacheGeneratorP21CustomAttributesCache
BJb:__ZN24RingBufferMemoryFileData9SetLengthEy
zRl:_glTexSubImage3D__wrapper
nrh:_FactoryCache_Add_m2602974721
DTa:__Z21WriteImageAsyncThreadPv
uca:__ZL16GetInterfaceImpl18UnityInterfaceGUID
sUk:__ZN6il2cpp2vmL17SetupFieldOffsetsENS0_15FieldLayoutKindEP11Il2CppClassjRKNSt3__26vectorIjNS4_9allocatorIjEEEE
cSf:_List_1_System_Collections_IList_get_Item_m936612973_gshared
jL:__ZNSt3__26vectorI8UnityStrNS_9allocatorIS1_EEE26__swap_out_circular_bufferERNS_14__split_bufferIS1_RS3_EE
Z_:__ZN13EmscriptenWWW7GetSizeEv
cql:__ZN6il2cpp6icalls8mscorlib6System15MonoCustomAttrs27GetCustomAttributesInternalEP12Il2CppObjectP20Il2CppReflectionTypeb
Zu:__ZN7mecanim9animation18ClipMuscleConstant8TransferI18StreamedBinaryReadILb1EEEEvRT_
eDc:__ZN8JSONRead21TransferSTLStyleArrayI13dynamic_arrayI8Vector3fLj4EEEEvRT_18MemLabelIdentifier17TransferMetaFlags
eNh:_ObjectReader_ReadAssembly_m869834280
dSc:__ZNK5physx3Cct13BoxController11getPositionEv
ora:__ZN14PreloadManager35WaitForAllAsyncOperationsToCompleteEv
TCd:__ZN5physx14NpRigidDynamicC2ERKNS_11PxTransformE
Tgg:_ReadOnlyCollection_1_System_Collections_IList_get_Item_m1831743662_gshared
iag:_Collection_1_IsSynchronized_m971497175_gshared
CXc:__Z27sweepCCTBox_HeightFieldGeomRKN5physx10PxGeometryERKNS_11PxTransformERKNS_2Gu3BoxERKNS_6PxVec3EfRNS_10PxSweepHitENS_7PxFlagsINS_9PxHitFlag4EnumEtEEf
HRe:_ExecuteEvents_Execute_TisIl2CppObject_m4168308247_gshared
jLj:_Text_get_cachedTextGeneratorForLayout_m1357670532
_O:__ZL31InitializeAudioScriptingClassesv
qZa:__Z14SortGUIByDepthP10GUIElementS0_
tHg:_NumberFormatter_NumberToString_m126384393
wVl:_emscripten_glVertexAttrib4fv__wrapper
Di:_glBindSampler
Sfk:_LogicalCallContext__ctor_m3173272863
xTc:__ZN5physx3Cct9SweepTest18updateTouchedGeomsEPKNS0_30InternalCBData_FindTouchedGeomERKNS0_13UserObstaclesERKNS_17PxExtendedBounds3ERKNS_19PxControllerFiltersERKNS_6PxVec3E
JRg:_MonoCustomAttrs__cctor_m2608447972
gHg:_Int32_FindSign_m3803672540
puh:_Enumerator_System_Collections_IEnumerator_Reset_m70453843_AdjustorThunk
h8h:_GUISkin_get_scrollView_m2941173958
Qle:_PxCloseExtensions
k2:__ZNK20LocalFileSystemPosix21GetAvailableDiskSpaceEPKcRy
Qr:__ZNSt3__26__treeIiNS_4lessIiEENS_9allocatorIiEEE7destroyEPNS_11__tree_nodeIiPvEE
vEk:_Predicate_1__ctor_m2995226103_gshared
M9g:_CipherSuite_InitializeCipher_m229247572
Yya:__ZNK9GfxDevice14GetWorldMatrixEv
o2h:_MonoProperty_GetGetMethod_m1100580870
OBh:_Dictionary_2__ctor_m1950568359_gshared
uuh:_Enumerator_System_Collections_IDictionaryEnumerator_get_Key_m1214978221_AdjustorThunk
fT:__ZN11SoundHandle13CreateChannelEb
Tsb:__ZN14SafeBinaryRead21TransferSTLStyleArrayI13dynamic_arrayI12LightmapDataLj4EEEEvRT_17TransferMetaFlags
u4g:_ArgumentException__ctor_m3312963299
nib:__ZN21AssetBundleFileSystem11CreateAsDirER13FileEntryData
R_b:__ZNSt3__26vectorIN9ShaderLab20SerializedSubProgram16TextureParameterENS_9allocatorIS3_EEE6assignIPS3_EENS_9enable_ifIXaasr21__is_forward_iteratorIT_EE5valuesr16is_constructibleIS3_NS_15iterator_traitsISA_E9referenceEEE5valueEvE4typeESA_SA_
Xac:__Z16CreateGameObjectRKNSt3__212basic_stringIcNS_11char_traitsIcEENS_9allocatorIcEEEEPKcz
fml:__ZNSt3__26vectorIN6il2cpp2os10ThreadImpl10APCRequestENS_9allocatorIS4_EEE26__swap_out_circular_bufferERNS_14__split_bufferIS4_RS6_EE
mNk:_U3CCreateWhereIteratorU3Ec__Iterator1D_1_MoveNext_m3533253043_gshared
f0j:_InternalEnumerator_1_System_Collections_IEnumerator_Reset_m2726857860_AdjustorThunk
ROb:__ZN9Scripting36IsSystemCollectionsGenericDictionaryEP11Il2CppClass
Sqh:_X509SubjectKeyIdentifierExtension__ctor_m3887138480
xOf:_Enumerator_System_Collections_IEnumerator_get_Current_m2853089017_AdjustorThunk
iKc:__ZN12b2WheelJoint24SolvePositionConstraintsERK12b2SolverData
Ywd:__ZNK5physx2Sc9ClothCore20getNbCollisionPlanesEv
th:_emscripten_exit_fullscreen
sQd:__ZN5physx6shdfnd5ArrayINS_9PxBounds3ENS0_15InlineAllocatorILj192ENS0_19ReflectionAllocatorIS2_EEEEE8recreateEj
NYd:__ZNK5physx23PxsBroadPhaseContextSap7getTypeEv
bce:__ZNK5physx13GuMeshFactory17getNbHeightFieldsEv
cyg:_InputField_get_mesh_m3276583786
Nak:_GCHandle_Free_m1639542352_AdjustorThunk
$tb:__ZNK29LineParametersPropertyBinding38SerializedPropertyPathToCurveAttributeER6ObjectPKc
Gch:_Context_set_ClientRandom_m631392719
aol:__ZN6il2cpp6icalls8mscorlib6System6String19InternalAllocateStrEi
XCc:__Z29Transfer_Blittable_ArrayFieldI8JSONRead11QuaternionfEvRT_R9ArrayInfoRK23StaticTransferFieldInfo
Ivi:__ZL65SoapParameterAttribute_t2780084514_CustomAttributesCacheGeneratorP21CustomAttributesCache
oTd:__ZNK5physx2Gu12OBBAABBTestsILb1EEclENS_6shdfnd3aos5Vec3VES5_
daj:__Z47RuntimeInvoker_Vector4_t2243707581_Il2CppObjectPK10MethodInfoPvPS2_
SSc:__ZN5physx3Cct9SweepTestD2Ev
rmb:__ZN9Behaviour8TransferI18StreamedBinaryReadILb0EEEEvRT_
jhk:_Enumerator_System_Collections_IEnumerator_get_Current_m1429268283
Wvj:_ControllerColliderHit_get_transform_m3183428555
e0c:__ZN26IntersectAnyVsMeshCallbackILi0ELb0EED2Ev
r6j:_InternalEnumerator_1_MoveNext_m2708162461_AdjustorThunk
d_:__ZN19CloudServiceHandler10QueueEventEPN11UnityEngine15CloudWebService14CloudEventInfoE
HNl:___cxa_is_pointer_type
fyg:_InputField_get_shouldHideMobileInput_m3694613599
xIa:__ZN4gles20DestroyRenderSurfaceEP7ApiGLESP17RenderSurfaceGLES
wOf:_Enumerator_System_Collections_IEnumerator_get_Current_m2853089017_gshared
mhl:__ZN15dense_hashtableINSt3__24pairIK10KeyWrapperINS1_IPKcS4_EEEiEES6_24NamespaceAndNamePairHashN14dense_hash_mapIS6_iS9_26NamespaceAndNamePairEqualsNS0_9allocatorIS8_EEE9SelectKeyESB_SD_E8min_sizeEjj
Fea:__ZN17MessageIdentifier13StaticDestroyEPv
XKl:__ZNSt3__26locale5__imp7installINS_7num_putIcNS_19ostreambuf_iteratorIcNS_11char_traitsIcEEEEEEEEvPT_
Isc:__Z34Transform_CUSTOM_SetAsFirstSiblingP12Il2CppObject
KWc:__ZN12_GLOBAL__N_141SphereMeshContactGenerationCallback_ScaleD0Ev
J1c:__ZN5physx3Cct17CapsuleController16setContactOffsetEf
GQf:_Enumerator_get_Current_m827571811_AdjustorThunk
Vna:__ZN17PersistentManager40GlobalToLocalSerializedFileIndexInternalERK26SerializedObjectIdentifier
Eig:_BaseEventData_get_selectedObject_m3551206992
oWg:_SimpleCollator_CompareOrdinal_m2176988387
dNi:__ZL47Rect_t3681755626_CustomAttributesCacheGeneratorP21CustomAttributesCache
VLf:_CCGregorianCalendar_GetYear_m1289900195
iod:__ZN12GeomQueryAnyIN5physx10PxSweepHitEE7geomHitERKNS0_2Sq17SceneQueryManagerERKNS0_15MultiQueryInputERKNS3_9ShapeDataERKNS0_10PxGeometryERKNS0_11PxTransformENS0_7PxFlagsINS0_9PxHitFlag4EnumEtEEjPS1_fbPNS0_9PxBounds3E
rHg:_Int16_ToString_m2592645088
ADa:__ZN13TranslateGLES4InitERK12GraphicsCaps16GfxDeviceLevelGL
DVb:__Z29Transfer_Blittable_ArrayFieldI18StreamedBinaryReadILb0EE10ColorRGBAfEvRT_R9ArrayInfoRK23StaticTransferFieldInfo
UVc:__ZN43CapsuleHeightfieldContactGenerationCallback7onEventEjPj
Kje:__ZThn4_N12MemoryStream4readEPvj
UOh:_SerializationInfoEnumerator_Reset_m2206466680
lkj:__Z48RuntimeInvoker_Void_t1841601450_Slot_t2267560602PK10MethodInfoPvPS2_
h1b:__ZNSt3__26__treeINS_12__value_typeI8UnityStriEENS_19__map_value_compareIS2_S3_NS_4lessIS2_EELb1EEENS_9allocatorIS3_EEE4findIS2_EENS_15__tree_iteratorIS3_PNS_11__tree_nodeIS3_PvEEiEERKT_
bdl:__ZNK15dense_hashtableINSt3__24pairIK10KeyWrapperIP11Il2CppClassES4_EES5_N6il2cpp8metadata16SZArrayClassHashEN14dense_hash_mapIS5_S4_SA_NS9_19SZArrayClassCompareENS0_9allocatorIS7_EEE9SelectKeyESC_SE_E10test_emptyERK24dense_hashtable_iteratorIS7_S5_SA_SG_SC_SE_E
GSa:__ZZ23InitPlayerLoopCallbacksvEN33PostLateUpdateInputEndFramestruct7ForwardEv
mpj:_AnimationEvent_get_objectReferenceParameter_m3565420672
nLk:_GenericEqualityComparer_1_Equals_m1934771410_gshared
uqi:__ZL57DebuggingModes_t2073970606_CustomAttributesCacheGeneratorP21CustomAttributesCache
URg:__ZN16VirtFuncInvoker0IP12MethodInfo_tE6InvokeEjPv
wJb:__ZN24RingBufferMemoryFileDataD0Ev
Q6f:_Collection_1_System_Collections_IList_get_IsFixedSize_m993584401_gshared
IHb:__ZNSt3__26vectorIN30RuntimeInitializeOnLoadManager15ClassMethodInfoE13stl_allocatorIS2_L18MemLabelIdentifier12ELi16EEE8__appendEj
AGd:__ZN5physx6shdfnd8internal8HashBaseIPNS_13NpVolumeCacheES4_NS0_4HashIS4_EENS1_11HashSetBaseIS4_S6_NS0_9AllocatorELb0EE6GetKeyES8_Lb0EE15reserveInternalEj
i8i:__Z84RuntimeInvoker_Il2CppObject_Il2CppObject_Il2CppObject_Il2CppObject_Int32_t2071877448PK10MethodInfoPvPS2_
Nxl:__ZN6il2cpp2os6Memory12AlignedAllocEjj
krd:__ZN5physx6shdfnd8internal8HashBaseIPKNS_6PxBaseES5_NS0_4HashIS5_EENS1_11HashSetBaseIS5_S7_NS0_9AllocatorELb0EE6GetKeyES9_Lb0EE6createERKS5_Rb
sXd:__ZN5physx28solveFrictionCoulombPreBlockEPKNS_23PxcSolverConstraintDescEjRNS_16PxcSolverContextE
K0e:_Array_swap_TisPlayable_t3667545548_m817366036_gshared
HVh:_TypeBuilder_get_is_created_m736553860
$Bj:_GameObject_set_layer_m2712461877
r8g:_RSAManaged__ctor_m1370411656
QUb:__Z18Transfer_BlittableI18StreamedBinaryReadILb0EELb1E10ColorRGBAfEvRK29SerializationCommandArgumentsR31RuntimeSerializationCommandInfo
see:__ZN5physx7Cooking19computeHullPolygonsERKNS_20PxSimpleTriangleMeshERNS_19PxAllocatorCallbackERjRPNS_6PxVec3ES6_RPjS6_RPNS_13PxHullPolygonE
Igc:__ZL27GetComponentsImplementationILb0ELi0EEbR10GameObjectbRK17CompareParametersRK39GetComponentsImplementation_ReturnValue
p4j:_InternalEnumerator_1_MoveNext_m3103009949_AdjustorThunk
Aqc:__Z26Material_CUSTOM_SetTextureP12Il2CppObjectiS0_
bGj:_Raycast3DCallback_EndInvoke_m3234280377
r9:__Z18BuildScriptClassIdP11Il2CppClass
lkk:_BalancingGroup__ctor_m2474435406
Tmd:__ZN5physx12NpConstraint12actorDeletedEPNS_12PxRigidActorE
urg:_ColorTweenCallback__ctor_m3619686788
Qaa:__ZL16ReadTypeTreeImplILb0EEbR8TypeTreeRK16TypeTreeIteratorRPKhS6_i
uKj:__ZN18VirtActionInvoker1IfE6InvokeEjPvf
XJ:__ZN25RuntimeAnimatorControllerD2Ev
tpf:_Byte_System_IConvertible_ToInt32_m1032609763_AdjustorThunk
k2b:__ZN9ShaderLab7ProgramD0Ev
D5c:__ZN5physx2Sc8ShapeSim18reinsertBroadPhaseEv
Wwk:_PKCS12_GetSymmetricAlgorithm_m3196291685
plc:__Z42Register_UnityEngine_RectOffset_set_bottomv
Osf:_ArrayListWrapper_IndexOf_m3574835167
ild:__ZN5physx2Sc5Scene11removeShapeERNS0_8ShapeSimEb
P4a:__ZN28LightProbeProxyVolumeContext8CopyFromERKS_
$rk:_Texture_Internal_GetHeight_m2775530157
ppg:_U3COnFinishSubmitU3Ec__Iterator0_System_Collections_Generic_IEnumeratorU3CobjectU3E_get_Current_m1823105495
Pba:__ZN23TransformChangeDispatch32QueueTransformChangeIfHasChangedER18TransformHierarchy
o9e:_SymmetricAlgorithm_get_FeedbackSize_m544664262
K6k:__ZNK15dense_hashtableINSt3__24pairIK10KeyWrapperINS1_IPK12PropertyInfoP11Il2CppClassEEEjEES9_17ReflectionMapHashIS8_EN14dense_hash_mapIS9_jSD_19ReflectionMapEqualsIS8_ENS0_9allocatorISB_EEE9SelectKeyESG_SI_E5beginEv
u3a:__ZN18DeferredRenderLoop15RenderFinalPassEP13RenderTextureS1_
ODl:__ZNSt3__213basic_ostreamIcNS_11char_traitsIcEEE6sentryD2Ev
yIa:__ZN7ApiGLES18DeleteRenderbufferERj
n9c:__ZN5physx6shdfnd5ArrayIPvNS0_15InlineAllocatorILj256ENS0_19ReflectionAllocatorINS_16NpConnectorArrayEEEEEE15growAndPushBackERKS2_
qHa:__ZL23ProgramUniformMatrix4fvPK7ApiGLESjiihPKv
Uzi:__ZL67ThreadInterruptedException_t63303933_CustomAttributesCacheGeneratorP21CustomAttributesCache
$_d:__ZN5physx14SingleAABBTaskC2Ev
e4j:_InternalEnumerator_1_MoveNext_m3629145604_gshared
y_b:__ZN9ShaderLab20SerializedSubProgram15MatrixParameter8TransferI14SafeBinaryReadEEvRT_
tnf:_BitConverter_AmILittleEndian_m2716658112
Kgc:__ZL27GetComponentsImplementationILb0ELi1EEbR10GameObjectbRK17CompareParametersRK39GetComponentsImplementation_ReturnValue
iDe:_Round_Down_To_Grid
SNj:_UTF8Decoder__ctor_m1460357288
Wja:__ZN13RenderTexture7ReleaseEv
jCb:__ZN10MeshFilter23VirtualRedirectTransferER14SafeBinaryRead
cik:_PatternCompiler_EmitBranchEnd_m3390109636
ezf:_Convert_ToByte_m1201588964
tCb:__ZN12MeshRenderer17MainThreadCleanupEv
pic:__Z36AsyncOperation_Get_Custom_PropIsDoneP12Il2CppObject
kLa:__ZN22CreateGpuProgramOutput12CreateParamsEv
vPh:_RuntimeMethodHandle_GetHashCode_m2682236001_AdjustorThunk
Wil:__ZN15dense_hashtableI10KeyWrapperIP18Il2CppGenericClassES3_N6il2cpp8metadata22Il2CppGenericClassHashEN14dense_hash_setIS3_S6_NS5_25Il2CppGenericClassCompareENSt3__29allocatorIS3_EEE8IdentityES8_SB_E12expand_arrayEjN21dense_hash_map_traits17integral_constantIbLb0EEE
Kjd:__ZNK5physx18NpArticulationLink11getChildrenEPPNS_18PxArticulationLinkEj
Jbk:_ActivationServices_AllocateUninitializedClassInstance_m3410698501
yal:__ZNSt3__26vectorIiNS_9allocatorIiEEE21__push_back_slow_pathIiEEvOT_
pDa:__ZNK14GfxContextGLES13GetDefaultFBOEv
erl:_GC_promote_black_lists
dRe:_Array_InternalArray__ICollection_Remove_TisSByte_t454417549_m2474211570_gshared
Ixg:_Image_AddQuad_m1600600902
u7d:__Z15atomIntegrationfPKPN5physx11PxsBodyCoreEPKPNS_12PxsRigidBodyEjPKNS_2Cm13SpatialVectorEPNS_13PxcSolverBodyEPNS_17PxcSolverBodyDataEPS9_RjSH_
eok:_SliderHandler_IsEmptySlider_m2679659864_AdjustorThunk
FFd:__ZN5physx13NpRigidStatic11createShapeERKNS_10PxGeometryEPKPNS_10PxMaterialEtNS_7PxFlagsINS_11PxShapeFlag4EnumEhEE
Oxb:__ZN18StreamedBinaryReadILb1EE21TransferSTLStyleArrayI13dynamic_arrayI12SpriteVertexLj4EEEEvRT_17TransferMetaFlags
d2k:_il2cpp_class_is_enum
nih:_AuthorityKeyIdentifierExtension_get_Identifier_m3535568551
B3e:_GameObject_AddComponent_TisIl2CppObject_m3813873105_gshared
Wla:__ZNSt3__23mapIN9ShaderLab16FastPropertyNameEN18UnityPropertySheet11UnityTexEnvENS_4lessIS2_EENS_9allocatorINS_4pairIKS2_S4_EEEEEixERS9_
QJg:_IntPtr_ToString_m428195821_AdjustorThunk
pdd:__ZN5physx11NpAggregate22removeActorAndReinsertERNS_7PxActorEb
N_j:_InternalEnumerator_1_MoveNext_m2724656708_AdjustorThunk
Wee:__ZZL19ExtractHullPolygonsRjRN5physx2Gu9ContainerERKNS0_17ConvexHullBuilderEPS2_S3_EN5Local9FloodFillES3_PKNS0_11AdjTriangleEjPb
v7f:_Collection_1_System_Collections_IList_Contains_m1897568526_gshared
_Xh:_FieldBuilder_get_FieldType_m2267463269
Omf:_SimpleEnumerator_Clone_m3032847657
Yhk:_PatternCompiler_EmitInfo_m597931026
x8h:_GUIStateObjects_GetStateObject_m2567357506
$Yk:__ZN6il2cpp2vm13MetadataCache34GetTypeInfoFromTypeDefinitionIndexEi
D5g:_ModulusRing_Multiply_m3113924743
wrc:__Z47Texture2D_CUSTOM_INTERNAL_CALL_GetPixelBilinearP12Il2CppObjectffR10ColorRGBAf
tch:_Context_get_ServerSettings_m225713600
sj:_emscripten_glVertexAttrib4f
LPf:_Enumerator_System_Collections_IEnumerator_get_Current_m3461301268_AdjustorThunk
oFk:_InvokableCall_1_remove_Delegate_m3576859071_gshared
Hbg:_ReadOnlyCollection_1_System_Collections_IEnumerable_GetEnumerator_m531171980_gshared
rpe:__ZL28RegisterModuleICalls_Physicsv
L1b:__ZNSt3__26vectorIN20GpuProgramParameters14ConstantBufferENS_9allocatorIS2_EEE8__appendEj
k0e:_Array_Sort_TisUILineInfo_t3621277874_m3105833015_gshared
BGb:__ZN15ResourceManager23VirtualRedirectTransferER18StreamedBinaryReadILb1EE
Wo:FUNCTION_TABLE_vf
ATg:_MonoType_GetGenericArguments_m2708198481
y_a:__ZN11HaloManager21ReleaseGeometryJobMemEP25DynamicVBOGeometryJobData
iSf:_List_1_AddEnumerable_m2489692396_gshared
Zfd:__ZN5physx14NpArticulation26setMaxProjectionIterationsEj
$2c:__ZN5physx3Cct15ObstacleContext14removeObstacleEj
RKi:__ZL93TextGenerator_t647235000_CustomAttributesCacheGenerator_TextGenerator_Dispose_cpp_m1755131202P21CustomAttributesCache
Yvk:_WaitForSecondsRealtime__ctor_m1734539010
uBk:_MyUnitySingleton__cctor_m1524303406
kOj:_WaitHandle__ctor_m1256161634
OA:__ZN7mecanim12statemachine24CreateStateMachineMemoryEPKNS0_20StateMachineConstantERNS_6memory9AllocatorE
pBa:__ZN9GfxDevice18SetGlobalDepthBiasEff
Gek:_Identity_get_ChannelSink_m3989446673
Y$k:__ZN6il2cpp6icalls8mscorlib6System8MonoType12get_AssemblyEP20Il2CppReflectionType
Png:__ZN16VirtFuncInvoker3IP25AxisEventData_t1524870173fffE6InvokeEjPvfff
lug:_FontData_get_richText_m2013560754
Qcf:_SecurityException_get_PermissionType_m3543350822
Fj:_emscripten_glGetPointerv
aBj:_GenericMixerPlayable_Destroy_m3608330239_AdjustorThunk
eDd:__ZNK5physx15NpActorTemplateINS_14PxRigidDynamicEE13getActorFlagsEv
ZE:__ZN8Animator22ApplyBuiltinRootMotionEv
vke:__ZN5physx7profile8ZoneImplINS_28PxProfileNameProviderForwardEE17handleBufferFlushEPKhj
hGl:__ZNKSt3__28time_getIcNS_19istreambuf_iteratorIcNS_11char_traitsIcEEEEE11do_get_yearES4_S4_RNS_8ios_baseERjP2tm
mdd:__ZN5physx2Sc5ActorC2ERNS0_16InteractionSceneEhNS0_14IslandNodeInfo4TypeE
q5e:_RandomNumberGenerator_Create_m2275686895
i4h:_GUIContent__ctor_m3634307516
Xxd:__ZN5physx15NpActorTemplateINS_7PxClothEED2Ev
wri:__ZL55StreamReader_t2360341767_CustomAttributesCacheGeneratorP21CustomAttributesCache
MWh:_DerivedType_get_UnderlyingSystemType_m3904230233
Olg:_PointerEventData_get_rawPointerPress_m448871540
Z0i:__Z135RuntimeInvoker_IntPtr_t_Il2CppObject_Int32_t2071877448_Int32_t2071877448_Int32_t2071877448_Int32_t2071877448_MonoIOErrorU26_t1029615899PK10MethodInfoPvPS2_
Awd:__ZN5physx2Sc9ClothCore16setRestPositionsEPKNS_6PxVec4E
rvc:__ZN5IMGUI14GUIWindowStateD2Ev
Web:__ZL13MotionHandleriPK27EmscriptenDeviceMotionEventPv
uph:_X509Certificate2Collection__ctor_m819526826
dvb:__ZN8Renderer10SetVisibleEb
zO:__ZN12AudioManager5ResetEv
RTk:__ZNK15dense_hashtableINSt3__24pairIK10KeyWrapperIPK22Il2CppGenericParameterEP11Il2CppClassEES6_N6il2cpp5utils11PointerHashIS4_EEN14dense_hash_mapIS6_S9_SE_NS0_8equal_toIS6_EENS0_9allocatorISA_EEE9SelectKeyESH_SJ_E12test_deletedEj
U6g:_KeyBuilder_Key_m3814433741
v4g:_ArgumentException__ctor_m158205422
jUe:_Array_compare_TisVector3_t2243707580_m3709184876_gshared
Hwg:_HorizontalLayoutGroup_SetLayoutHorizontal_m3237355818
Gqa:__ZN6prcoreL17RemapGenericFloatI17TexFormatRGBAHalf15TexFormatRGHalfEEvPKNS_9InnerInfoE
fol:__ZN6il2cpp6icalls8mscorlib6System11Environment20GetWindowsFolderPathEi
uUi:__ZL60AspectRatioFitter_t3114550109_CustomAttributesCacheGeneratorP21CustomAttributesCache
gA:__ZN7mecanim5human18HumanPoseBlendNodeERNS0_9HumanPoseEPS1_f
_ye:_UNITY_FT_RoundFix
U1b:__ZN9ShaderLab20SerializedSubProgram15AddTextureParamEPKcii16TextureDimension
ux:__ZNK8Animator26GetTypeInfoVirtualInternalEv
dX:__ZN23CloudWebServicesManager23VirtualRedirectTransferER17RemapPPtrTransfer
PSi:__ZL78MaskableGraphic_t540192618_CustomAttributesCacheGenerator_m_OnCullStateChangedP21CustomAttributesCache
LXc:__ZNK5physx2Gu15HeightFieldUtil12traceSegmentI24ConvexVsHeightfieldSweepLb0ELb0ELb1EEEvRKNS_6PxVec3ES6_PT_PS5_
_Ib:__Z23AppendPathNameExtensionRKNSt3__212basic_stringIcNS_11char_traitsIcEENS_9allocatorIcEEEES7_
Fbe:__ZNK5physx12PxConvexMesh19getConcreteTypeNameEv
kYc:__ZN5physx2Gu19gjkLocalPenetrationINS0_9TriangleVENS0_17ShrunkConvexHullVEEEjRKT_RKT0_RKNS_6shdfnd3aos6FloatVERNSB_5Vec3VESG_SG_RSC_PhSI_Rhb
VPk:__ZL24UnresolvedVirtualCall_63P12Il2CppObjectS0_S0_S0_PK10MethodInfo
kR:__ZN4FMOD6System17setSoftwareFormatEi17FMOD_SOUND_FORMATii18FMOD_DSP_RESAMPLER
SZc:__ZN5physx2Gu15GJKLocalRayCastERNS0_9TriangleVERNS0_4BoxVERKNS_6shdfnd3aos6FloatVERKNS6_5Vec3VESC_RS7_RSA_SE_fb
hfe:__ZN5physx18AdjacenciesBuilderC2Ev
KCh:_Dictionary_2_System_Collections_ICollection_get_IsSynchronized_m960517203_gshared
B5c:__ZN5physx2Sc13ShapeIterator4initERKNS0_8ActorSimE
hBl:_write
$rl:_GC_set_mark_bit
VSj:_Type_MakeByRefType_m1323101575
cHe:__ZN2UI6Canvas27UpdateEventIndexesRecursiveERi
Ly:__ZN7mecanim9animation18EvaluateRootMotionERKNS0_18ClipMuscleConstantERKNS0_15ClipMuscleInputEPKfS8_RNS0_12MotionOutputEb
Uyg:_InputField_set_characterLimit_m4114734597
$ue:_UNITY_FT_Outline_New
mpl:__ZNSt3__218uninitialized_copyIPNS_4pairIK10KeyWrapperIPK19Il2CppGenericMethodEP10MethodInfoEESB_EET0_T_SD_SC_
DHh:_EqualityComparer_1_System_Collections_IEqualityComparer_Equals_m1738053269_gshared
R5f:_Collection_1__ctor_m1566657168_gshared
QTb:__Z19TransferField_ArrayI19StreamedBinaryWriteILb0EE27Converter_SimpleNativeClassI8GUIStyleEEvRK23StaticTransferFieldInfoR31RuntimeSerializationCommandInfoRT0_
gej:__Z105RuntimeInvoker_Void_t1841601450_Rect_t3681755626_Vector2_t2243707579_Vector2_t2243707579_SByte_t454417549PK10MethodInfoPvPS2_
o4e:__ZN18VirtActionInvoker1IP22ByteU5BU5D_t3397334013E6InvokeEjPvS1_
nHj:_Scrollbar_SetDirection_m3264558284
Ard:__ZN5physx14NpArticulationC2Ev
jWl:_emscripten_glCopyTexSubImage2D__wrapper
Z0:__ZNK13ScreenManager12GetIsFocusedEv
fUi:__ZL70SpriteState_t1353336012_CustomAttributesCacheGenerator_m_PressedSpriteP21CustomAttributesCache
pLh:_RemotingServices_RegisterInternalChannels_m1827304423
O8h:_GUIStyle_get_onNormal_m1675201777
ms:__ZL32CleanupAnimationScriptingClassesv
Q7f:__ZN23InterfaceActionInvoker2Ii22UILineInfo_t3621277874E6InvokeEjP11Il2CppClassPviS0_
H_k:__ZNSt3__213__vector_baseIN6il2cpp2os19SocketHandleWrapperENS_9allocatorIS3_EEED2Ev
YYg:_ASN1_get_Length_m3359111015
b8h:_GUISkin_get_verticalScrollbarThumb_m649633186
Cai:_GUIStyleState_Cleanup_m705006206
Jc:invoke_viiffi
bPj:_Thread_GetCachedCurrentUICulture_m5590127
Kqb:__ZNK12CubemapArray20GetRuntimeMemorySizeEv
gvk:_Vector3_Dot_m3161182818
HMa:__ZN9GfxDevice5FlushEv
q$b:__Z14resize_trimmedINSt3__26vectorIN9ShaderLab18SerializedPropertyENS0_9allocatorIS3_EEEEEvRT_j
N$f:_List_1_CheckMatch_m4018158235_gshared
$ij:__Z91RuntimeInvoker_Int32_t2071877448_UICharInfo_t3056636800_UICharInfo_t3056636800_Il2CppObjectPK10MethodInfoPvPS2_
OId:__ZN5physx6shdfnd8PoolBaseINS_2Sc9ActorPairENS0_19ReflectionAllocatorIS3_EEE12allocateSlabEv
P2i:__Z89RuntimeInvoker_Boolean_t3825574718_Il2CppObject_Il2CppObject_StreamingContext_t1417235061PK10MethodInfoPvPS2_
gpf:_Byte_System_IConvertible_ToDateTime_m1583041031
zga:__ZNSt3__26__treeINS_12__value_typeINS_12basic_stringIcNS_11char_traitsIcEENS_9allocatorIcEEEEiEENS_19__map_value_compareIS7_S8_NS_4lessIS7_EELb1EEENS5_IS8_EEE4findIS7_EENS_15__tree_iteratorIS8_PNS_11__tree_nodeIS8_PvEEiEERKT_
_Pk:__ZL24UnresolvedVirtualCall_68P12Il2CppObjectS0_iS0_S0_S0_S0_S0_S0_PK10MethodInfo
cBb:__ZN10VertexData8TransferI24GenerateTypeTreeTransferEEvRT_
Tol:__ZN13Il2CppHashMapIPK19Il2CppGenericMethodP10MethodInfoN6il2cpp8metadata23Il2CppGenericMethodHashENS6_26Il2CppGenericMethodCompareENSt3__29allocatorINS9_4pairIK10KeyWrapperIS2_ES4_EEEEEC2EjRKS7_RKS8_
R0g:_EncryptedData_get_EncryptionAlgorithm_m1301274243
iIi:__ZL68DrivenTransformProperties_t2488747555_CustomAttributesCacheGeneratorP21CustomAttributesCache
VVa:__ZL10CullLightsRK22SceneCullingParametersR11CullResults
Itg:_Dropdown__cctor_m264401557
cdi:_Mathf_Clamp_m3542052159
fmf:_Array_IndexOf_m2819632474
r9j:_Comparer_1__cctor_m3996541505_gshared
JA:__ZN7mecanim12statemachine20GetBlendTreeConstantERKNS0_13StateConstantEi
RJd:__ZN5physx7NpScene21setDominanceGroupPairEhhRKNS_20PxDominanceGroupPairE
Rrc:__Z40Register_UnityEngine_Texture2D_SetPixelsv
dbc:__Z40GetTemporaryCachePathApplicationSpecificv
Eza:__ZN9GfxDevice16EndAsyncJobFrameEv
Pxg:_Image_get_minWidth_m1809071077
oJl:__ZNKSt3__27codecvtIcc11__mbstate_tE11do_encodingEv
Vve:_UNITY_tt_face_load_hhea
sJb:__ZN24RingBufferMemoryFileData11SetGrowableEb
Dai:_GUIStyleState_set_background_m3931679679
Eyf:_Convert_ToBase64String_m1936815455
Al:___syscall3
HBd:__ZNK5physx15NpActorTemplateINS_16PxParticleSystemEE7getNameEv
Dl:___syscall6
RAa:__ZN9GfxDevice15GetNextCPUFenceEv
Fl:___syscall4
AHf:_Decimal_ToString_m759431975
m8f:_Collection_1_System_Collections_IList_get_IsFixedSize_m2204750039_gshared
Vne:__ZN8Collider7PRODUCEE18MemLabelIdentifier18ObjectCreationMode
XQk:__ZL25UnresolvedVirtualCall_119P12Il2CppObjectiaPK10MethodInfo
opg:_ColorBlock_get_fadeDuration_m987725262
HSi:__ZL195U3CMouseDragOutsideRectU3Ec__Iterator1_t2599668326_CustomAttributesCacheGenerator_U3CMouseDragOutsideRectU3Ec__Iterator1_System_Collections_Generic_IEnumeratorU3CobjectU3E_get_Current_m2602955272P21CustomAttributesCache
skl:__ZN6il2cpp2vm3RCW14QueryInterfaceILb1EEEP14Il2CppIUnknownP15Il2CppComObjectRK10Il2CppGuid
dOc:__ZNSt3__26__sortIR24RayHitsByDepthComparitorP12RaycastHit2DEEvT0_S5_T_
YXi:__Z59RuntimeInvoker_UnicodeCategory_t682236799_Int16_t4041245914PK10MethodInfoPvPS2_
YUf:_List_1_AddCollection_m3266731889_gshared
Ovi:__ZL59ITrackingHandler_t2759960940_CustomAttributesCacheGeneratorP21CustomAttributesCache
Vl:_emscripten_glShaderBinary
APj:_DelegatePInvokeWrapper_ThreadStart_t3437517264
Y_e:_Array_qsort_TisVector2_t2243707579_TisVector2_t2243707579_m3308480721_gshared
ilf:_Array_InternalArray__RemoveAt_m1126483634
a2:__ZNK20LocalFileSystemPosix6ExistsERK13FileEntryData
f1j:_InternalEnumerator_1_Dispose_m4038440306_AdjustorThunk
mij:__Z50RuntimeInvoker_Void_t1841601450_Color32_t874517518PK10MethodInfoPvPS2_
sbd:__ZN5physx35NpArticulationJointGetBodiesFromScbERNS_3Scb17ArticulationJointERPNS0_4BodyES5_
vek:_SynchronizationAttribute_ReleaseLock_m2873780842
nHf:_DivideByZeroException__ctor_m280382972
_ae:__ZNK5physx2Sc15ClothFabricCore16getTetherLengthsEPfj
qPi:__ZL114PointerEventData_t1599784723_CustomAttributesCacheGenerator_PointerEventData_get_pointerCurrentRaycast_m1374279130P21CustomAttributesCache
Zdi:_Mesh_get_colors32_m4153271224
HPc:__ZNK17Physics2DSettings26GetTypeInfoVirtualInternalEv
wKe:__Z58Register_UnityEngine_Canvas_GetETC1SupportedCanvasMaterialv
fgi:_Physics2D_INTERNAL_CALL_GetRayIntersectionAll_m161475998
mv:__ZN17AnimationCurveTplIfE8TransferI18StreamedBinaryReadILb1EEEEvRT_
KFf:_DateTimeOffset_GetHashCode_m3312197462_AdjustorThunk
pMe:__ZN18UnityConnectClientD2Ev
Mlh:_ServicePoint_set_UseNagleAlgorithm_m2618011464
Fyg:_InputField_get_textComponent_m2074509413
w1k:_il2cpp_set_data_dir
HOd:__ZN5physx2Sc13ConstraintSim8getForceERNS_6PxVec3ES3_
Ylk:_Uri_get_IsUnc_m2111738174
Ijb:__ZN16LevelGameManager23VirtualRedirectTransferER19StreamedBinaryWriteILb0EE
CAb:__Z32TransferEnumWithNameForceIntSizeI14SafeBinaryRead16GfxPrimitiveTypeEvRT_RT0_PKc17TransferMetaFlags
V7j:_DefaultComparer__ctor_m1961329658_gshared
y_h:_ParameterBuilder_get_Attributes_m2421099277
Rsk:_TouchScreenKeyboard_get_done_m406461410
Tok:_DataUtility_INTERNAL_CALL_GetPadding_m1621366113
bsb:__ZN18StreamedBinaryReadILb1EE21TransferResourceImageE19ActiveResourceImagePKcR13StreamingInfoPvj
J7h:_GUISkin_get_toggle_m4153935270
zTc:__ZN5physx15PxGeometryQuery18computePenetrationERNS_6PxVec3ERfRKNS_10PxGeometryERKNS_11PxTransformES6_S9_
oqk:_TextEditor_SelectToEndOfPreviousWord_m3931162275
CLe:__ZN11UnityEngine15PlatformWrapper30GetGraphicsDriverLibraryStringEv
Avh:_Enumerator_VerifyState_m262343092_AdjustorThunk
Loe:__ZN5Unity12PhysicsQueryC2Ev
yVf:_List_1_get_Count_m1752597149_gshared
b8g:_EncryptedPrivateKeyInfo_Decode_m1706190306
Rzh:_ValueCollection_GetEnumerator_m401908452_gshared
dUb:__Z18Transfer_BlittableI18StreamedBinaryReadILb0EELb0E4AABBEvRK29SerializationCommandArgumentsR31RuntimeSerializationCommandInfo
kLc:__ZNSt3__227__insertion_sort_incompleteIR26ColliderIdentityComparitorPP10Collider2DEEbT0_S6_T_
c5d:__ZN5physx10PxsContext13updateIslandsEfPNS_10PxBaseTaskE
bwj:_ControllerColliderHit_t4070855101_marshal_pinvoke
LCf:_Convert_ToUInt16_m1665900934
VMk:_Converter_2_BeginInvoke_m898151494_gshared
U4i:__Z52RuntimeInvoker_UInt32_t2149682021_Double_t4078015681PK10MethodInfoPvPS2_
r5a:__Z14DrawGUITextureRK5RectTIfEP7Texture11ColorRGBA32P8Materiali
qLj:_Text_get_supportRichText_m3291105891
hji:_RectTransform_GetParentSize_m1571597933
aE:__ZN9BlobWrite8TransferI22OffsetPtrArrayTransferIKN4math7_float4EEEEvRT_PKc17TransferMetaFlags
Zgg:_ReadOnlyCollection_1_get_Count_m336636247_gshared
VGc:__ZNK11b2EdgeShape7RayCastEP15b2RayCastOutputRK14b2RayCastInputRK11b2Transformi
zAj:_Playables_GetInputWeightValidated_m2453142047
BZi:__Z52RuntimeInvoker_Decimal_t724701077_Double_t4078015681PK10MethodInfoPvPS2_
ghk:_MatchCollection_GetEnumerator_m3516985966
mEc:__ZN9JSONWrite8TransferI4AABBEEvRT_PKc17TransferMetaFlags
$Mj:_UTF7Encoding__ctor_m2365939916
TPa:__ZN25MultiBlocksMemoryFileData9SetLengthEy
WT:__Z30GetAudioSpatializerDefinitionsR13dynamic_arrayIP29AudioEffectInternalDefinitionLj4EE
nrk:_TextGenerationSettings_Equals_m3944651893_AdjustorThunk
hEj:_MatEntry__ctor_m3650167335
Ffj:__Z143RuntimeInvoker_Void_t1841601450_Il2CppObject_Vector2_t2243707579_Vector2_t2243707579_Color32_t874517518_Vector2_t2243707579_Vector2_t2243707579PK10MethodInfoPvPS2_
f8d:__ZNK18ScBeforeSolverTask7getNameEv
oLc:__ZN10Collider2D13AwakeFromLoadE17AwakeFromLoadMode
nrb:__ZNK9Texture2D20GetRuntimeMemorySizeEv
$Sj:_TypeInitializationException__ctor_m2993591639
pXd:__ZN5physx14solve1D4_BlockEPKNS_23PxcSolverConstraintDescEjRNS_16PxcSolverContextE
bHh:_EqualityComparer_1__ctor_m3788663378_gshared
bn:_emscripten_glUniform2iv
cxi:__ZL46DES_t1353513560_CustomAttributesCacheGeneratorP21CustomAttributesCache
YTc:__ZL33GeomMTDCallback_ConvexHeightFieldRN5physx6PxVec3ERfRKNS_10PxGeometryERKNS_11PxTransformES5_S8_
vdi:_Matrix4x4_ToString_m1982554457_AdjustorThunk
Vre:_UNITY_FT_Outline_Transform
v8h:_SkinChangedDelegate_BeginInvoke_m4259161711
orc:__Z60Register_UnityEngine_Sprites_DataUtility_Internal_GetMinSizev
IUk:__ZN6il2cpp2vm5Class10GetMethodsEP11Il2CppClassPPv
Fhi:_Rect_get_x_m1393582490_AdjustorThunk
Wni:__ZL65Il2CppArray_CustomAttributesCacheGenerator_Array_Sort_m3500510484P21CustomAttributesCache
Tbf:_Hash_GetObjectData_m315532943
NDa:__ZN7ApiGLES17DeleteFramebufferERN2gl6HandleILNS0_10ObjectTypeE9EEES3_
vUk:__ZN13dynamic_arrayIP11Il2CppClassLj4EE7reserveEj
kKa:__ZN15UniformTFMethod13MapBoneBufferEj
pbh:_RecordProtocol_SendAlert_m2816808523
cGe:__ZN2UI14CanvasRendererD2Ev
Fpj:_Animator_SetFloat_m956158019
H1j:_InternalEnumerator_1_get_Current_m3296972783_gshared
w0d:__ZN5physx26PxcPCMContactCapsuleConvexERKNS_2Gu13GeometryUnionES3_RKNS_11PxTransformES6_RKfRNS_10PxcNpCacheERNS0_13ContactBufferE
qHf:_Decimal_CompareTo_m2454501434
LPg:_SynchronizedReader_Read_m1399666181
Q0h:_MonoEvent_get_Name_m2796714646
Hfa:__Z9SetupArgviPPKc
hTe:_Array_InternalArray__IEnumerable_GetEnumerator_TisHitInfo_t1761367055_m2486283755_gshared
s6j:_InternalEnumerator_1_get_Current_m3180886734_AdjustorThunk
WFc:__ZN9rapidjson13GenericReaderINS_4UTF8IcEES2_13JSONAllocatorE11ParseObjectILj0ENS_19GenericStringStreamIS2_EENS_15GenericDocumentIS2_S3_S3_EEEEvRT0_RT1_
apf:_Convert_ToBoolean_m2032547942
KDh:_Dictionary_2_get_Count_m1064551047_gshared
_sg:_OptionData__ctor_m743450704
xch:_Context_get_SentConnectionEnd_m3114190867
qed:__ZN5physx10PxsContext17addParticleSystemEPNS_15PxsParticleDataERKNS_26PxvParticleSystemParameterEb
mcd:__ZN5physx3Scb5Scene13addRigidNoSimINS0_4BodyELb1ELb1EEEvRT_RNS0_13ObjectTrackerE
ukb:__ZN12ImmediatePtrI10GameObjectE8TransferI19StreamedBinaryWriteILb0EEEEvRT_
Oqb:__ZN12CubemapArray23VirtualRedirectTransferER24GenerateTypeTreeTransfer
gPk:__ZL24UnresolvedVirtualCall_22P12Il2CppObjectS0_iS0_S0_S0_PK10MethodInfo
sba:__ZN12FileAccessor4OpenER15FileSystemEntry14FilePermission16FileAutoBehavior
hql:__ZN6il2cpp2os9Directory6CreateERKNSt3__212basic_stringIcNS2_11char_traitsIcEENS2_9allocatorIcEEEEPi
hna:__ZN4PPtrI6ShaderE8TransferI18StreamedBinaryReadILb0EEEEvRT_
iZc:__ZL19sweepBoxVsTrianglesjPKN5physx10PxTriangleERKNS_2Gu3BoxERKNS_6PxVec3EfRNS_10PxSweepHitENS_7PxFlagsINS_9PxHitFlag4EnumEtEEbPKj
uSk:__ZL25UnresolvedVirtualCall_198P12Il2CppObject23SpriteState_t1353336012PK10MethodInfo
Glg:_PointerEventData_set_clickTime_m3931922487
V3h:_WindowFunction__ctor_m977095815
nDg:_NumberFormatter_AppendNonNegativeNumber_m629862866
Zna:__ZNSt3__26vectorINS_4pairIN9ShaderLab16FastPropertyNameEN18UnityPropertySheet11UnityTexEnvEEENS_9allocatorIS6_EEE21__push_back_slow_pathIKS6_EEvRT_
uRa:__ZN15ArchiveReadFile5WriteEyPKvPy
H9j:_ResourceInfo__ctor_m2401359321_AdjustorThunk
Kvf:_Hashtable__ctor_m392789568
MOj:_Mutex_CreateMutex_internal_m2352956576
aNj:_UTF7Encoding__cctor_m4192443836
Waj:__Z73RuntimeInvoker_Boolean_t3825574718_Playable_t3667545548_Int32_t2071877448PK10MethodInfoPvPS2_
ufa:__ZN13RuntimeStaticI15ApplicationInfoE13StaticDestroyEPv
cyc:__Z31GUIStyle_CUSTOM_SetFontInternalP12Il2CppObjectS0_
A:tempValue
icb:__Z29StdTemplateConversionFunctionIaiEbPvR14SafeBinaryRead
foe:__ZZN12MeshCollider15InitializeClassEvEN29FunctorImpl_400kDidModifyMesh4CallEPviR11MessageData
eyl:__ZN6il2cpp8metadata24Il2CppGenericContextHash4HashEPK20Il2CppGenericContext
$vb:__ZN15QualitySettings8TransferI18StreamedBinaryReadILb1EEEEvRT_
IGg:_Int16_System_IConvertible_ToSingle_m3277935657
t7:__Z29scripting_class_from_fullnamePKcS0_S0_
gng:_StandaloneInputModule_get_inputMode_m1415645893
GMc:__ZN10Collider2D23VirtualRedirectTransferER18StreamedBinaryReadILb1EE
RK:__ZZN8Animator15InitializeClassEvEN32FunctorImpl_386kTransformChanged4CallEPviR11MessageData
fHi:__ZL97GameObject_t1756533147_CustomAttributesCacheGenerator_GameObject_GetComponentInParent_m1235194528P21CustomAttributesCache
$Fj:_Raycast3DCallback_Invoke_m2271859924
GRi:__ZL98Graphic_t2426225576_CustomAttributesCacheGenerator_Graphic_set_useLegacyMeshGeneration_m3023904722P21CustomAttributesCache
fUc:__ZN5physx2Gu29ConvexVsMeshContactGeneration20generateLastContactsEv
_8c:__ZNK5physx2Gu22SupportMapRelativeImplINS0_4BoxVEE14doSupportSweepERKNS_6shdfnd3aos5Vec3VE
GGl:__ZNSt3__220__get_up_to_n_digitsIcNS_19istreambuf_iteratorIcNS_11char_traitsIcEEEEEEiRT0_S5_RjRKNS_5ctypeIT_EEi
_T:__ZN11AudioSource19CreateOpenALRolloffEfff
Iwe:_UNITY_FT_Stream_ReadAt
NIi:__ZL111Object_t1021602117_CustomAttributesCacheGenerator_Object_DestroyImmediate_m3563317232____allowDestroyingAssets1P21CustomAttributesCache
Adj:__Z132RuntimeInvoker_Void_t1841601450_Rect_t3681755626_Il2CppObject_Int32_t2071877448_Int32_t2071877448_Int32_t2071877448_SByte_t454417549PK10MethodInfoPvPS2_
Bzd:__ZN5physx2Sc17ParticleSystemSim16getParticleStateEv
l7d:__ZN5physx6shdfnd5ArrayINS_25PxsCompoundContactManagerENS0_19ReflectionAllocatorIS2_EEE8recreateEj
o9h:_GUIStyle_get_lineHeight_m2132859383
VTb:__Z46EmitSerializationCommandsForManagedObjectFieldI18StreamedBinaryReadILb0EEEvRK18TransferField_InfoR32SerializationCommandQueueBuilderRP20AllowNameConversions
ojj:__Z102RuntimeInvoker_Int32_t2071877448_Il2CppObject_UIVertex_t1204258818_Int32_t2071877448_Int32_t2071877448PK10MethodInfoPvPS2_
hKi:__ZL82Physics2D_t2540166467_CustomAttributesCacheGenerator_Physics2D_Raycast_m1220041042P21CustomAttributesCache
kdg:_ReadOnlyCollection_1_System_Collections_Generic_IListU3CTU3E_RemoveAt_m2137782652_gshared
Uyj:_UnityEvent_FindMethod_Impl_m3303953986
zj:_glReadBuffer
eTj:_UInt16_System_IConvertible_ToBoolean_m887616848
DKa:__Z26TransformVerticesInnerLoopILb1ELb1ELb1EEvPhRK10Matrix4x4fRK10Matrix3x3fjPKhiiiS8_ii25GfxTransformVerticesFlags
h_d:__ZN5physx14PxsAABBManagerC2ERNS_2Cm13EventProfilerERNS_19PxcScratchAllocatorE
lGi:__ZL120ScriptableObject_t1975622470_CustomAttributesCacheGenerator_ScriptableObject_Internal_CreateScriptableObject_m1778903390P21CustomAttributesCache
zV:__ZN11AudioModule22CreateAudioClipFromWWWEP10IWWWStreamPKcbbi
uXi:__Z142RuntimeInvoker_Boolean_t3825574718_Il2CppObject_Int32_t2071877448_Il2CppObject_SByte_t454417549_UInt32U26_t2197289955_ExceptionU26_t1467204777PK10MethodInfoPvPS2_
Ojf:_StringBuilder_set_Length_m3039225444
g8f:_Collection_1_System_Collections_IList_Contains_m3870109702_gshared
kQe:_Array_InternalArray__ICollection_Contains_TisRaycastResult_t21186376_m3188614988_gshared
wDf:_CultureAwareComparer_GetHashCode_m3681260951
bIe:__Z13RegisterClassIN2UI11CanvasGroupEEvv
ZHk:_U3CStartU3Ec__Iterator0__ctor_m951808111_gshared
$f:_emscripten_glClear
iGj:_Selectable__ctor_m1440593935
s1a:__ZN15SHConstantCacheC2ER13BatchRendererR15RenderLoopStats
wQa:__ZN14dense_hash_mapINSt3__212basic_stringIcNS0_11char_traitsIcEE13stl_allocatorIcL18MemLabelIdentifier54ELi16EEEEP20ArchiveStorageReader11djb2_hash_tIS7_ENS0_8equal_toIS7_EES4_INS0_4pairIKS7_S9_EELS5_54ELi16EEE15set_deleted_keyERSF_
BTe:__ZNSt3__218basic_stringstreamIcNS_11char_traitsIcEENS_9allocatorIcEEED1Ev
Eni:__ZL65Il2CppArray_CustomAttributesCacheGenerator_Array_Clear_m782967417P21CustomAttributesCache
DNl:___cxa_guard_abort
eVh:_CustomAttributeTypedArgument_t1498197914_marshal_pinvoke_back
H9:__ZN14MessageHandler28MessageIDToMessageIdentifierEi
Bkh:_HttpRequestCreator_Create_m3607509610
DLi:__ZL50GUISkin_t1436893342_CustomAttributesCacheGeneratorP21CustomAttributesCache
CQk:__ZL24UnresolvedVirtualCall_98P12Il2CppObject8IntPtr_tPK10MethodInfo
O0f:_List_1_Shift_m3824049528_gshared
cMh:_ArrayFixupRecord__ctor_m3659990982
Jch:_Context_get_RandomCS_m3946020109
Ami:__ZL72IntPtr_t_CustomAttributesCacheGenerator_IntPtr_op_Inequality_m3044532593P21CustomAttributesCache
Qsg:_Dropdown_get_onValueChanged_m3334401942
_ul:__ZN6il2cpp2vm10WaitHandle19NewManualResetEventEb
Wdg:_ReadOnlyCollection_1_System_Collections_IList_Contains_m3707723158_gshared
U4k:__ZNK15dense_hashtableINSt3__24pairIK10KeyWrapperIPK10Il2CppTypeEjEES6_N6il2cpp8metadata14Il2CppTypeHashEN14dense_hash_mapIS6_jSB_NSA_17Il2CppTypeCompareENS0_9allocatorIS8_EEE9SelectKeyESD_SF_E10test_emptyERK30dense_hashtable_const_iteratorIS8_S6_SB_SH_SD_SF_E
bXj:_Version_GetHashCode_m880841176
CNk:_Nullable_1_ToString_m1238126148_AdjustorThunk
qe:emscriptenWebGLGetUniform
Hp:FUNCTION_TABLE_iiiiiiiiiii
m$c:__ZN5physx2Gu19sweepCapsuleCapsuleERKNS0_7CapsuleES3_RKNS_6PxVec3EfRfRS4_S8_jRt
JVd:__ZN5physx2Gu29EPASupportMapPairRelativeImplINS0_9TriangleVENS0_11ConvexHullVEED0Ev
cva:__Z32TransferEnumWithNameForceIntSizeI14SafeBinaryRead13TextureFormatEvRT_RT0_PKc17TransferMetaFlags
hTi:__ZL86Scrollbar_t3248359358_CustomAttributesCacheGenerator_Scrollbar_ClickRepeat_m3403943364P21CustomAttributesCache
Bzj:_Playables_CheckInputBounds_m2953342617
UXa:__ZL10CleanUpJobP20CullingGroupsJobData
Sqf:_Char_CompareTo_m3044885427_AdjustorThunk
C4h:_GUILayoutGroup_Add_m211909690
vgf:_String_Join_m1966872927
e0a:__Z20IsRunningNativeTestsv
g3j:_InternalEnumerator_1_System_Collections_IEnumerator_get_Current_m2035754659_AdjustorThunk
hCb:__ZN10MeshFilter23VirtualRedirectTransferER24GenerateTypeTreeTransfer
ybe:__ZN5physx13BigConvexData4LoadERNS_13PxInputStreamE
k5a:__ZN13RenderManager15BatchModeUpdateEv
a6k:__ZN15dense_hashtableINSt3__24pairIK10KeyWrapperINS1_IPK11Il2CppImageP11Il2CppClassEEEjEES9_17ReflectionMapHashIS8_EN14dense_hash_mapIS9_jSD_19ReflectionMapEqualsIS8_ENS0_9allocatorISB_EEE9SelectKeyESG_SI_E5clearEv
_Nk:_Predicate_1_EndInvoke_m973058386_gshared
JHi:__ZL52LayerMask_t3188175821_CustomAttributesCacheGeneratorP21CustomAttributesCache
Ijg:_RaycasterManager_RemoveRaycasters_m3465850111
fzb:__ZN14SafeBinaryRead21TransferSTLStyleArrayI13dynamic_arrayI8Vector2fLj4EEEEvRT_17TransferMetaFlags
Una:__ZN17PersistentManager51InstanceIDToLocalSerializedObjectIdentifierInternalEiR31LocalSerializedObjectIdentifier
k3h:_StrongNameKeyPair_System_Runtime_Serialization_IDeserializationCallback_OnDeserialization_m2330221363
vld:__ZN5physx2Sc8ActorSim24postDominanceGroupChangeEv
xvc:__ZN8GUIState12GetControlIDEi9FocusType
q5i:__Z116RuntimeInvoker_Boolean_t3825574718_Il2CppObject_Int32_t2071877448_Int32_t2071877448_Il2CppObject_Int32U26_t455636984PK10MethodInfoPvPS2_
Ud:_glVertexAttribIPointer
vWj:_UnhandledExceptionEventHandler_EndInvoke_m2207457167
d4k:__ZN15dense_hashtableINSt3__24pairIK10KeyWrapperINS1_IPK9FieldInfoP11Il2CppClassEEEjEES9_17ReflectionMapHashIS8_EN14dense_hash_mapIS9_jSD_19ReflectionMapEqualsIS8_ENS0_9allocatorISB_EEE9SelectKeyESG_SI_EC2ERKSL_j
nAh:_Dictionary_2_System_Collections_ICollection_get_IsSynchronized_m304009368_gshared
ySh:_HMAC_set_HashName_m457235014
nmd:__ZN5physx2Cm8PtrTable5clearERNS0_22PtrTableStorageManagerE
eY:__ZNSt3__215basic_stringbufIcNS_11char_traitsIcEENS_9allocatorIcEEE7seekoffExNS_8ios_base7seekdirEj
rPe:_Array_InternalArray__ICollection_Contains_TisTableRange_t2011406615_m605506746_gshared
CSf:_List_1_Sort_m785723827_gshared
tCf:_Decimal_op_Explicit_m729046406
Y2c:__ZN5physx3Cct15ObstacleContext7releaseEv
cvg:_Graphic_OnEnable_m2900261811
VWd:__ZN5physx27solveFrictionBlockWriteBackEPKNS_23PxcSolverConstraintDescEjRNS_16PxcSolverContextEPNS_25PxcThresholdStreamElementEjPi
YQh:_CryptographicUnexpectedOperationException__ctor_m3552441227
Ksf:_ArrayListWrapper_Clear_m321161741
gAg:_InputField_LineDownCharacterPosition_m2690468785
wDh:_Dictionary_2_System_Collections_IDictionary_set_Item_m2114893570_gshared
Hwe:_UNITY_ft_glyphslot_alloc_bitmap
smj:__Z56RuntimeInvoker_ContentType_t1028629049_Int32_t2071877448PK10MethodInfoPvPS2_
o0e:_Array_Sort_TisVector2_t2243707579_TisVector2_t2243707579_m2582252549_gshared
Fnk:_SliderHandler_OnRepaint_m4171175698
eVj:_UInt64_System_IConvertible_ToDouble_m2828923873
A0i:__Z45RuntimeInvoker_Il2CppObject_Int16_t4041245914PK10MethodInfoPvPS2_
QCj:_GUI_CalculateScaledTextureRects_m3962984624
XHj:_ScrollRect_set_verticalScrollbarVisibility_m2424788384
MXf:_List_1_System_Collections_IList_set_Item_m1129584681_gshared
bye:_ft_raster1_render
hqc:__Z57Register_UnityEngine_RectTransform_INTERNAL_set_anchorMaxv
GSf:_List_1_set_Capacity_m491101164_gshared
OLl:__ZNKSt3__221__basic_string_commonILb1EE20__throw_length_errorEv
akf:_StringBuilder_Insert_m1733097906
k8i:__Z88RuntimeInvoker_Void_t1841601450_Il2CppObject_Int32_t2071877448_Il2CppObject_Il2CppObjectPK10MethodInfoPvPS2_
Qj:_JS_SystemInfo_GetMemory
zbl:__ZN14dense_hash_mapI10KeyWrapperINSt3__24pairIP11Il2CppClassjEEES4_N6il2cpp8metadata14ArrayClassHashENS8_17ArrayClassCompareENS1_9allocatorINS2_IKS6_S4_EEEEEC2EjRKS9_RKSA_
u9j:_Comparer_1__ctor_m1157133632_gshared
nhh:_SslStreamBase_get_HashStrength_m480059173
XIa:__ZN18GfxFramebufferGLES13ReadbackImageER14ImageReferenceiiiiii
S4k:__ZN30dense_hashtable_const_iteratorINSt3__24pairIK10KeyWrapperIPK10Il2CppTypeEjEES6_N6il2cpp8metadata14Il2CppTypeHashEN14dense_hash_mapIS6_jSB_NSA_17Il2CppTypeCompareENS0_9allocatorIS8_EEE9SelectKeyESD_SF_EppEv
Tyh:_ValueCollection_System_Collections_Generic_ICollectionU3CTValueU3E_Clear_m3271993638_gshared
o5:__ZN13RuntimeStaticI11WindManagerE13StaticDestroyEPv
lpa:__ZN6prcoreL12RemapGenericI17TexFormatARGB888815TexFormatRGB565EEvPKNS_9InnerInfoE
QP:__ZN4FMOD7Channel19setReverbPropertiesEPK29FMOD_REVERB_CHANNELPROPERTIES
g9:__ZN13MonoBehaviour22GetScriptFullClassNameEv
K2k:_il2cpp_object_get_class
s7d:__ZN5physx6shdfnd4sortIPNS_15PxsContactPatchENS_27SortBoundsPredicateManifoldENS0_19ReflectionAllocatorIS3_EEEEvPT_jRKT0_RKT1_j
Fri:__ZL111DerivedType_t1016359113_CustomAttributesCacheGenerator_DerivedType_MakeGenericType_m742223168____typeArguments0P21CustomAttributesCache
d$a:__ZN13BatchRendererC2ER15RenderLoopStatsRK15RenderNodeQueuebb
Lkh:_ServicePointManager_FindServicePoint_m3137356168
Qsj:_Camera_set_useOcclusionCulling_m1109242406
Vj:_emscripten_glGetVertexAttribfv
Yta:__ZN20SphericalHarmonicsL211AddWeightedERKS_f
k5j:_InternalEnumerator_1_MoveNext_m725174512_gshared
TId:__ZN5physx2Sc24ElementInteractionMarker12onDeactivateEj
tmg:_PointerInputModule_GetPointerData_m1695674453
x6h:__Z14bankers_roundff
sQb:__Z19TransferField_ArrayI17RemapPPtrTransfer27Converter_SimpleNativeClassI8GUIStyleEEvRK23StaticTransferFieldInfoR31RuntimeSerializationCommandInfoRT0_
y6:__ZL22StaticInitializeShaderPv
pDf:_Convert_ToUInt64_m345450801
FNk:_Predicate_1_BeginInvoke_m2559992383_gshared
hnl:__ZN6il2cpp2vm3RCW7CleanupEP15Il2CppComObject
lEc:__ZN9JSONWrite8TransferI10ColorRGBAfEEvRT_PKc17TransferMetaFlags
Akj:__Z52RuntimeInvoker_Void_t1841601450_Keyframe_t1449471340PK10MethodInfoPvPS2_
Yie:__ZN14PhysicsManager23VirtualRedirectTransferER19StreamedBinaryWriteILb0EE
NLl:__ZNSt13runtime_errorC2EPKc
qqc:__Z35Register_UnityEngine_Resources_Loadv
HNb:__Z19TransferField_ArrayI14SafeBinaryRead16Converter_StringEvRK23StaticTransferFieldInfoR31RuntimeSerializationCommandInfoRT0_
ZUe:_Array_InternalArray__IndexOf_TisKeyValuePair_2_t488203048_m2147702260_gshared
rCl:_rename
stl:_GC_exit_check
Etk:_Transform_INTERNAL_CALL_TransformDirection_m2899991790
TTg:_NotSupportedException__ctor_m3232764727
pt:__ZN7mecanim9animation9DenseClip8TransferI14SafeBinaryReadEEvRT_
_jh:_TypeConverterAttribute_Equals_m2330345916
_Uc:__ZNK5physx2Gu15OBBTriangleTest10obbTriTestERKNS_6PxVec3ES4_S4_
Y7:__Z20UnlockObjectCreationv
njc:__Z27Camera_Set_Custom_PropDepthP12Il2CppObjectf
jFf:_DateTime_ToString_m1117481977
A7i:__Z55RuntimeInvoker_Il2CppObject_RegexOptionsU26_t3063574985PK10MethodInfoPvPS2_
iLg:_MonoIO_CreateDirectory_m379525469
OMb:__Z34scripting_class_array_element_sizeP11Il2CppClass
TD:__ZN9BlobWrite8TransferI22OffsetPtrArrayTransferI9OffsetPtrIN7mecanim12statemachine18StateMachineMemoryEEEEEvRT_PKc17TransferMetaFlags
cue:_UNITY_ft_smooth_renderer_class_pic_free
w_f:_List_1_System_Collections_IList_Remove_m3763718607_gshared
Hrj:_Bounds_get_center_m129401026
Sf:_emscripten_glStencilOpSeparate
kff:_String_Concat_m2000667605
E_k:__ZN6il2cpp2os19SocketHandleWrapperC2ERKS1_
Vpl:__ZN6il2cpp2vm6String8NewUtf16EPKDsi
cml:__ZN6il2cpp2os10ThreadImpl12QueueUserAPCEPFvPvES2_
DLl:__ZNSt3__211__call_onceERVmPvPFvS2_E
QM:__Z32TransferEnumWithNameForceIntSizeI14SafeBinaryReadN10SampleClip17CompressionFormatEEvRT_RT0_PKc17TransferMetaFlags
bse:__ZN20TextRenderingPrivate15DynamicFontData36GetFaceForCharacterIfAvailableInFontERKNS_7FontRefERKNSt3__26vectorI4PPtrIN13TextRendering4FontEE13stl_allocatorIS9_L18MemLabelIdentifier34ELi16EEEEj
Z3c:__ZN5physx12PxControllerD2Ev
HCj:_GUI_INTERNAL_CALL_DoLabel_m2786347772
T_c:__ZNK5physx2Gu15HeightFieldUtil12traceSegmentI25CapsuleTraceSegmentReportLb0ELb0ELb1EEEvRKNS_6PxVec3ES6_PT_PS5_
E1c:__ZN5physx3Cct17CapsuleController13setStepOffsetEf
CDe:_UNITY_FT_Hypot
v$d:__ZN5physx10PxsContext23prepareCMDiscreteUpdateEPNS_10PxBaseTaskE
wnf:_BitConverter_ToInt64_m1329623425
W5b:__ZN8RendererC2E12RendererType18MemLabelIdentifier18ObjectCreationMode
gwl:__ZN6il2cpp2vm13ComObjectBaseINS0_13ManagedObjectE18Il2CppIInspectableNS0_7details6ComNilES5_S5_S5_S5_S5_S5_E6AddRefEv
Iyi:__ZL95ASCIIEncoding_t3022927988_CustomAttributesCacheGenerator_ASCIIEncoding_GetByteCount_m1396020051P21CustomAttributesCache
Qld:__ZN5physx6shdfnd5ArrayIPvNS0_19ReflectionAllocatorINS_2Cm5BlockIhLj256EEEEEE4copyINS0_15InlineAllocatorILj256ES7_EEEEvRKNS1_IS2_T_EE
aGl:__ZNSt3__28time_getIcNS_19istreambuf_iteratorIcNS_11char_traitsIcEEEEED2Ev
kg:_emscripten_glGetError
DQ:__Z14FMOD_FILE_SeekPvjS_
Afk:_MethodCall_get_Properties_m1893707917
Xmi:__ZL72Enum_t2459695545_CustomAttributesCacheGenerator_Enum_ToObject_m604645223P21CustomAttributesCache
vpd:__ZN5physx6shdfnd8PoolBaseINS_11NpAggregateENS0_19ReflectionAllocatorIS2_EEE15disposeElementsEv
cwh:_ShimEnumerator_get_Entry_m2387156530_gshared
f_c:__ZThn4_N16RayRTreeCallbackILi1ELb1EE14processResultsEjPj
SRk:__ZL25UnresolvedVirtualCall_168P12Il2CppObject19Vector3_t2243707580PK10MethodInfo
$5a:__ZNK13RenderTexture32CalculateNeedsInvertedProjectionEv
M2c:__ZN5physx2Gu17RadixSortBuffered4SortEPKfj
sg:emscriptenWebGLGet
oii:_Rect_GetHashCode_m559954498_AdjustorThunk
t7b:__ZN12CubemapArray11InitTextureEiii13TextureFormatb
Bpa:__ZN6prcoreL18BlitIntegerToFloatERK14ImageReferenceRS0_
SJi:__ZL93Physics_t634932869_CustomAttributesCacheGenerator_Physics_RaycastAll_m410413656____layerMask2P21CustomAttributesCache
fmh:__ZN16VirtFuncInvoker1IP8String_tiE6InvokeEjPvi
POa:__ZNK15Lz4Decompressor20DecompressStreamInitEPPv
n4f:_Collection_1_set_Item_m3803272710_gshared
cei:_Mesh_SetUVs_m841280343
b2h:_MonoMethodInfo_t3646562144_marshal_pinvoke_cleanup
doh:_X509Certificate2_get_SignatureAlgorithm_m3069898012
Akh:_HttpRequestCreator__ctor_m2513916021
z8c:__ZN27ConvexVsMeshOverlapCallbackC2ERKN5physx2Gu10ConvexMeshERKNS0_11PxMeshScaleERKNS0_2Cm23FastVertex2ShapeScalingERKNS0_11PxTransformESE_bRKNS1_3BoxE
m3i:__Z54RuntimeInvoker_Il2CppObject_IntPtr_t_Int32_t2071877448PK10MethodInfoPvPS2_
M4h:_GUIStyle_INTERNAL_CALL_Internal_CalcSizeWithConstraints_m1203344891
DE:__ZN7mecanim5human13HumanFixTwistEPKNS0_5HumanEPNS_8skeleton13SkeletonPoseTIN4math4trsXEEES9_iiRKf
L0a:__ZL24AssignProjectorQueuesJobP30AssignProjectorQueuesJobHeader
tQj:_TimeSpan_get_Hours_m3804628138
aRk:__ZL25UnresolvedVirtualCall_124P12Il2CppObjectPK10MethodInfo
kug:_FontData_set_alignByGeometry_m2819509290
pik:_Regex__ctor_m3250610064
R1b:__ZN9ShaderLab20SerializedSubProgram14SetConstBufferEPKci
z4g:_ArgumentNullException__ctor_m911049464
s0h:_TargetParameterCountException__ctor_m2760108938
aOf:_KeyValuePair_2_set_Key_m2339804284_AdjustorThunk
Zoe:__ZN13PhysicsModule17SetRigidBodyStateER9RigidbodyRKN8IPhysics14RigidBodyStateE
FFk:_InvokableCall_4_Find_m1467690987_gshared
W5i:__Z66RuntimeInvoker_Void_t1841601450_Int32_t2071877448_Int64_t909078037PK10MethodInfoPvPS2_
bAe:_cf2_getStdVW
Gfg:_ReadOnlyCollection_1_System_Collections_IList_Insert_m3936197025_gshared
eLf:_EventHandler_BeginInvoke_m3027583606
x0:__Z40DebugStringToFilePostprocessedStacktraceRK21DebugStringToFileData
k4h:_GUIContent_get_tooltip_m4191548850
xSd:__ZN5physx2Sq12BucketPruner11shiftOriginERKNS_6PxVec3E
tCc:__Z29Transfer_Blittable_ArrayFieldI8JSONReadjEvRT_R9ArrayInfoRK23StaticTransferFieldInfo
a6j:_InternalEnumerator_1__ctor_m3220229132_AdjustorThunk
Pbd:__ZN5physx6shdfnd5ArrayIPNS_2Sc16ArticulationCoreENS0_19ReflectionAllocatorIS4_EEE15growAndPushBackERKS4_
cpk:_StateMachineBehaviour_OnStateEnter_m1095276890
Zei:_Object_GetInstanceID_m1920497914
dek:_ContextAttribute__ctor_m4006843177
TH:__ZN18StreamedBinaryReadILb1EE21TransferSTLStyleArrayI13dynamic_arrayI4PPtrI13AnimationClipELj4EEEEvRT_17TransferMetaFlags
I2j:_InternalEnumerator_1_get_Current_m314017974_AdjustorThunk
_g:__setLetterbox
joa:__ZNSt3__26__treeINS_12__value_typeIN9ShaderLab16FastPropertyNameEfEENS_19__map_value_compareIS3_S4_NS_4lessIS3_EELb1EEENS_9allocatorIS4_EEE12__find_equalIS3_EERPNS_16__tree_node_baseIPvEENS_21__tree_const_iteratorIS4_PNS_11__tree_nodeIS4_SE_EEiEESH_RKT_
T5d:__ZN5physx19normalizePartitionsERNS_6shdfnd5ArrayIjNS0_19ReflectionAllocatorIjEEEEPNS_23PxcSolverConstraintDescEPKNS_13PxcSolverBodyEjjS5_
Ork:_TextGenerator_Populate_Internal_m1817393161
Vpi:__ZL57CollectionBase_t1101587467_CustomAttributesCacheGeneratorP21CustomAttributesCache
VVc:__ZN18ContactCapsuleMesh20processTriangleCacheILj16EEEbRN5physx2Gu13TriangleCacheIXT_EEE
uAb:__ZNSt3__26vectorI17BlendShapeChannelNS_9allocatorIS1_EEE6assignINS_11__wrap_iterIPS1_EEEENS_9enable_ifIXaasr21__is_forward_iteratorIT_EE5valuesr16is_constructibleIS1_NS_15iterator_traitsISA_E9referenceEEE5valueEvE4typeESA_SA_
pBg:_LayoutElement_set_preferredWidth_m3072758716
BGk:_UnityEvent_1_AddListener_m1708363187_gshared
Omh:_AsnEncodedData_ToString_m724151831
B5a:__ZN11TimeManager11GetRealtimeEv
h3f:_Collection_1_System_Collections_IList_get_IsFixedSize_m2408637569_gshared
Onf:__ZN21InterfaceFuncInvoker1IdP12Il2CppObjectE6InvokeEjP11Il2CppClassPvS1_
w7c:__ZN5physx2Sc16InteractionScene25removeFromActiveActorListERNS0_5ActorE
zfc:__Z15WeldVertexArrayR13dynamic_arrayI8Vector3fLj4EERS_I13BoneInfluenceLj16EERS_ItLj2EES7_
C0h:_MonoMethodInfo_GetDeclaringType_m4186531677
IJh:_SoapTypeAttribute_SetReflectionObject_m1566293812
ZEh:_DefaultComparer__ctor_m418731767_gshared
aG:__ZN4PPtrI6AvatarE8TransferI18StreamedBinaryReadILb0EEEEvRT_
V3c:__ZN5physx3Ext21InertiaTensorComputer6rotateERKNS_7PxMat33E
tLk:_Enumerator_System_Collections_IEnumerator_Reset_m2573763156_AdjustorThunk
yLh:_RemotingServices_CreateClientProxy_m1631035355
KVj:_UInt64_ToString_m2892887310
lSk:__ZL25UnresolvedVirtualCall_189P12Il2CppObjectaPK10MethodInfo
Y4d:__ZN5physx22PxcDiscreteNarrowPhaseERNS_18PxcNpThreadContextERNS_13PxcNpWorkUnitE
Iua:_stbir_resize
Uqk:_TextEditor_get_hasSelection_m3407150912
nCb:__ZN4PPtrI4MeshE8TransferI14SafeBinaryReadEEvRT_
WKc:__ZN24b2ChainAndCapsuleContact6CreateEP9b2FixtureiS1_iP16b2BlockAllocator
qPa:__Z37ReadDirectoryInfo_UnityWebAndUnityRawR12FileAccessorRKN20ArchiveStorageHeader6HeaderERNS1_13DirectoryInfoE
ESe:_Array_InternalArray__IEnumerable_GetEnumerator_TisInt64_t909078037_m1219751804_gshared
d6:__ZNSt3__26__treeINS_12__value_typeIPKciEENS_19__map_value_compareIS3_S4_15compare_tstringIS3_ELb1EEENS_9allocatorIS4_EEE7destroyEPNS_11__tree_nodeIS4_PvEE
Poi:__ZL96RuntimeTypeHandle_t2330101084_CustomAttributesCacheGenerator_RuntimeTypeHandle_Equals_m452760426P21CustomAttributesCache
GJk:_EqualityComparer_1_System_Collections_IEqualityComparer_Equals_m1960102236_gshared
nDh:_Dictionary_2_ToTValue_m1381983709_gshared
KTg:_MulticastDelegate_KPM_m1592985119
KKl:__ZNSt3__26locale5__imp7installINS_5ctypeIcEEEEvPT_
zhi:_RaycastHit2D_get_collider_m2568504212_AdjustorThunk
Rag:_Collection_1_ConvertItem_m3941916604_gshared
PGe:__ZN2UI6Canvas26MarkAllNestedCanvasesDirtyEv
NKa:__ZN16GeometryJobTasks20ScheduleGeometryJobsER9GfxDevicePFvP15GeometryJobDataEPK22GeometryJobInstructionjb
Lab:__ZN25PathNamePersistentManagerD2Ev
R7:__ZN17PersistentManager48IntegrateObjectAndUnlockIntegrationMutexInternalEi
qI:__ZN15SerializeTraitsI9OffsetPtrIN7mecanim9animation19Blend2dDataConstantEEE8TransferI18StreamedBinaryReadILb1EEEEvRS4_RT_
ogg:_ReadOnlyCollection_1_System_Collections_IList_get_IsReadOnly_m3872065502_gshared
hsi:__ZL112TypeBuilder_t3308873219_CustomAttributesCacheGenerator_TypeBuilder_MakeGenericType_m4282022646____typeArguments0P21CustomAttributesCache
Roj:__Z89RuntimeInvoker_Il2CppObject_Scene_t1684909666_Scene_t1684909666_Il2CppObject_Il2CppObjectPK10MethodInfoPvPS2_
XOc:__ZN9b2Fixture11SynchronizeEP12b2BroadPhaseRK11b2TransformS4_
VTl:_emscripten_glGetFramebufferAttachmentParameteriv__wrapper
BVa:__ZN13RendererScene15InitializeUmbraEv
fqj:_AnimatorTransitionInfo_IsName_m2561957738_AdjustorThunk
Jta:__Z28CalculateGlobalMatrixInverse23TransformAccessReadOnly
vEc:__ZN4PPtrI6ObjectE8TransferI9JSONWriteEEvRT_
LIl:__ZNSt3__29money_putIwNS_19ostreambuf_iteratorIwNS_11char_traitsIwEEEEED0Ev
omg:_PointerEventData_ToString_m1218584363
pAl:___ctype_toupper_loc
nqf:_Char_System_IConvertible_ToChar_m1489061093_AdjustorThunk
iNj:_UTF7Encoding_GetCharCount_m2589913583
Pzd:__ZNK5physx15PxsParticleData15getWorldBoundsVEv
_Ua:_UNITY_png_write_sCAL_s
KIh:__ZN21InterfaceFuncInvoker0IP8String_tE6InvokeEjP11Il2CppClassPv
MNg:_MemoryStream_CalculateNewCapacity_m3533542025
ONi:__ZL66ExcludeFromDocsAttribute_t665825653_CustomAttributesCacheGeneratorP21CustomAttributesCache
R$c:__ZN12_GLOBAL__N_124HfTrianglesEntityReport27onEventEjPj
nhd:__ZNK5physx2Sc15ArticulationSim16createDriveCacheEfj
nCd:__ZN5physx22NpParticleBaseTemplateINS_16PxParticleSystemENS_16NpParticleSystemEE17setStaticFrictionEf
h_j:_InternalEnumerator_1_Dispose_m318835130_AdjustorThunk
$lk:_Uri_Reduce_m2577728307
UQj:_TimeSpan_Equals_m4102942751_AdjustorThunk
gXd:__ZN5physx27solveContactCoulomb_BStaticERKNS_23PxcSolverConstraintDescERNS_16PxcSolverContextE
vkj:__Z59RuntimeInvoker_Void_t1841601450_X509ChainStatus_t4278378721PK10MethodInfoPvPS2_
Syh:_ValueCollection_System_Collections_Generic_ICollectionU3CTValueU3E_Add_m1903672223_gshared
_Jl:__ZNSt3__25ctypeIcE13classic_tableEv
bN:__ZN4FMOD6SoundI7releaseEv
MEd:__ZN5physx20NpRigidActorTemplateINS_14PxRigidDynamicEE15setActorSimFlagEb
UCb:__ZN14SpriteRenderer13AwakeFromLoadE17AwakeFromLoadMode
Smg:_MouseButtonEventData__ctor_m618518000
_Ik:_EqualityComparer_1_get_Default_m3222318365_gshared
bJl:__ZNKSt3__27codecvtIDic11__mbstate_tE5do_inERS1_PKcS5_RS5_PDiS7_RS7_
fQa:__ZN10MemoryFile9SetLengthEy
EJ:__ZN7mecanim10ValueArray8TransferI19StreamedBinaryWriteILb0EEEEvRT_
AJc:__ZNK15b2RevoluteJoint10GetAnchorBEv
p2c:__ZNK5physx3Cct26CharacterControllerManager16getNbControllersEv
pi:_glTexStorage2D
iql:__ZN6il2cpp2os9Directory20GetFileSystemEntriesERKNSt3__212basic_stringIcNS2_11char_traitsIcEENS2_9allocatorIcEEEESA_iiPi
E1b:__ZNK9ShaderLab10SubProgram14EnsureCompiledEv
mOh:_ObjectManager_RecordFixup_m3572285566
GRe:_ExecuteEvents_CanHandleEvent_TisIl2CppObject_m1201779629_gshared
Mqi:__ZL55DaylightTime_t3800227331_CustomAttributesCacheGeneratorP21CustomAttributesCache
Nle:__ZN5physx7profile10DataBufferINS_6shdfnd6MutexTINS0_26WrapperReflectionAllocatorIhEEEENS0_14ScopedLockImplIS6_EEE17handleBufferFlushEPKhj
mxf:_SortedList_InitTable_m460350503
A$j:_InternalEnumerator_1_get_Current_m4279678504_AdjustorThunk
Or:__ZNK16LevelGameManager7GetNameEv
j3f:_Collection_1_System_Collections_IList_get_Item_m2415649949_gshared
mZh:_ILTokenInfo_t149559338_marshal_pinvoke_cleanup
m9f:_Collection_1_Remove_m2358120395_gshared
fh:_JS_SystemInfo_HasWebGL
rMe:__ZN18UnityConnectClient15GetCloudServiceEv
UQb:__Z18Transfer_BlittableI24GenerateTypeTreeTransferLb0EiEvRK29SerializationCommandArgumentsR31RuntimeSerializationCommandInfo
E8d:__ZN5physx20PxsConstraintProjectEPKNS_13PxsConstraintEbf
vsd:__ZN5physx7NpShape7setFlagENS_11PxShapeFlag4EnumEb
B_k:__ZN6il2cpp2os19SocketHandleWrapperD2Ev
AKc:__ZN15b2CircleContact6CreateEP9b2FixtureiS1_iP16b2BlockAllocator
ITl:_emscripten_glBufferData__wrapper
Hkb:__ZN10TagManager32RegisterDefaultTagsAndLayerMasksEv
mIk:_TweenRunner_1_StopTween_m2135918118_gshared
F7f:__ZN21InterfaceFuncInvoker1I22UILineInfo_t3621277874iE6InvokeEjP11Il2CppClassPvi
Ezh:_ValueCollection_get_Count_m4142113966_gshared
vMi:__ZL118AttributeHelperEngine_t958797062_CustomAttributesCacheGenerator_AttributeHelperEngine_GetRequiredComponents_m120894667P21CustomAttributesCache
B4d:__ZN5physx2Sc35ParticleElementRbElementInteraction12onDeactivateEj
mzj:_Playable_CheckInputBounds_m1095657528
kGl:__ZNKSt3__220__time_get_c_storageIcE8__monthsEv
QOj:_SynchronizationLockException__ctor_m549086841
dsf:_ArrayList_InsertRange_m1478230997
zDa:__ZN4gles8InitCapsEP7ApiGLESP12GraphicsCapsR16GfxDeviceLevelGL
Rnf:__ZN21InterfaceFuncInvoker1IP8String_tP12Il2CppObjectE6InvokeEjP11Il2CppClassPvS3_
Goa:__ZN6prcore14BlitImageFloatERK14ImageReferenceRS0_NS0_8BlitModeE
Rmf:_Swapper_EndInvoke_m677693941
Rhb:__ZN21AssetBundleFileSystem4ReadER13FileEntryDatayyPvPy
qdi:_Matrix4x4_Equals_m1321236479_AdjustorThunk
Yi:_glEnable
O_j:_InternalEnumerator_1_get_Current_m966604531_AdjustorThunk
Uib:__ZNK13Lz4Compressor29CalculateCompressedBufferSizeEj
t$k:__ZN6il2cpp2vm19SocketPollingThreadC2Ev
SSd:__ZN5physx2Sq10AABBPrunerC2Eb
pPh:_RuntimeMethodHandle__ctor_m2437574937_AdjustorThunk
hOd:__ZN5physx2Sq8AABBTreeC2Ev
vTj:_UInt16_System_IConvertible_ToInt64_m2835280558_AdjustorThunk
q0g:__ZN18VirtActionInvoker2IP22ByteU5BU5D_t3397334013S1_E6InvokeEjPvS1_S1_
ZFi:__ZL53g_UnityEngine_Assembly_CustomAttributesCacheGeneratorP21CustomAttributesCache
lEk:_Predicate_1_BeginInvoke_m3926587117_gshared
toc:__ZN13MonoBehaviour22StartCoroutineManaged2EP12Il2CppObject
OTh:_AssemblyName_get_Name_m1815759940
lsg:_DefaultControls_CreateToggle_m1568873127
i0f:_List_1__cctor_m1022807427_gshared
Jpi:__ZL63KeyNotFoundException_t1722175009_CustomAttributesCacheGeneratorP21CustomAttributesCache
ZCh:_Dictionary_2_InitArrays_m2270022740_gshared
Ryf:_Convert_ToBoolean_m2188088811
eLe:__ZN11UnityEngine7Connect15DeviceInfoEvent16CollectExtraInfoEv
s5i:__Z115RuntimeInvoker_Boolean_t3825574718_Il2CppObject_Int32_t2071877448_Il2CppObject_SByte_t454417549_Int32U26_t455636984PK10MethodInfoPvPS2_
Cql:__ZN6il2cpp2os11Environment22SetEnvironmentVariableERKNSt3__212basic_stringIcNS2_11char_traitsIcEENS2_9allocatorIcEEEESA_
cAj:_CustomAnimationPlayable__ctor_m2580931540
Gbe:__ZN5physx2Gu10ConvexMeshD2Ev
lkf:_UnicodeEncoding_GetChars_m3765282346
CJg:_IntPtr__ctor_m4104029105
mwi:__ZL114BinaryFormatter_t1866979105_CustomAttributesCacheGenerator_BinaryFormatter_get_DefaultSurrogateSelector_m219714691P21CustomAttributesCache
i6f:_Collection_1_Clear_m4150923953_gshared
vCl:_atol
bvl:__ZN6il2cpp6icalls8mscorlib6System10Reflection9FieldInfo25internal_from_handle_typeE12Il2CppIntPtrS5_
mBf:_Convert_ToDouble_m4236754739
sgh:_SslClientStream_get_PrivateKeyCertSelectionDelegate_m3715949545
Btg:_Dropdown_CreateItem_m2702141380
Lga:__ZNK6Sprite24GetRenderDataForPlayModeEv
qqi:__ZL48Stack_t1043988394_CustomAttributesCacheGeneratorP21CustomAttributesCache
Lp:FUNCTION_TABLE_viifi
Op:FUNCTION_TABLE_viiff
$6h:_GUISettings_get_doubleClickSelectsWord_m106700974
H5c:__ZNK5physx2Sc8ShapeSim10getBodySimEv
N0h:_MonoEvent_GetAddMethod_m4289563120
yoi:__ZL37Type_t_CustomAttributesCacheGeneratorP21CustomAttributesCache
RDe:_UNITY_tt_face_free_hdmx
gal:__ZN6il2cpp2vm14TypeNameParser5ParseEb
PFj:_ReflectionMethodsCache__ctor_m1835220
ytl:_GC_check_finalizer_nested
Ynk:_SliderHandler_ValueForCurrentMousePosition_m1752598323
ozj:_Playable_INTERNAL_CALL_IsValidInternal_m3509544226
t4i:__Z51RuntimeInvoker_Int16_t4041245914_Single_t2076509932PK10MethodInfoPvPS2_
Qpi:__ZL71SynchronizedArrayListWrapper_t3317806524_CustomAttributesCacheGeneratorP21CustomAttributesCache
Uld:__ZN5physx6shdfnd5ArrayIPvNS0_19ReflectionAllocatorINS_2Cm5BlockIhLj128EEEEEE15growAndPushBackERKS2_
yOe:__ZN23UnityPurchasingSettingsC2Ev
LJf:_Double_ToString_m1864290157
z9a:__ZNK9Transform13GetWorldScaleEv
o2j:_InternalEnumerator_1_get_Current_m4154059426_AdjustorThunk
Wad:__ZN5physx2Sc11Interaction10onActivateEj
A_c:__ZNK5physx2Gu29EPASupportMapPairRelativeImplINS0_4BoxVENS0_11ConvexHullVEE6getDirEv
btd:__ZN5physx14NpShapeManager15setupSceneQueryERNS_2Sq17SceneQueryManagerERKNS_12PxRigidActorERKNS_7NpShapeE
Mac:__ZN8Playable22ScheduleForDestructionEv
kda:__ZNSt3__26__treeINS_12__value_typeI18VertexChannelsInfo16MeshVertexFormatEENS_19__map_value_compareIS2_S4_NS_4lessIS2_EELb1EEE13stl_allocatorIS4_L18MemLabelIdentifier16ELi16EEE12__find_equalIS2_EERPNS_16__tree_node_baseIPvEENS_21__tree_const_iteratorIS4_PNS_11__tree_nodeIS4_SF_EEiEESI_RKT_
$8f:_Collection_1_System_Collections_IList_get_Item_m1122792492_gshared
Oua:__ZL37stbir__resample_horizontal_downsampleP11stbir__infoiPf
t1i:__Z78RuntimeInvoker_IntPtr_t_Il2CppObject_Int32U26_t455636984_ModuleU26_t4102634234PK10MethodInfoPvPS2_
lsa:__ZNK5Unity9Component38MarkGameObjectAndComponentDependenciesER27GarbageCollectorThreadState
z8d:__ZN22ScAfterIntegrationTask11runInternalEv
Fdd:__ZNK5physx2Sc9ClothCore23getExternalAccelerationEv
iUa:_UNITY_png_write_data
qU:__ZNK7Texture21GetShadowSamplingModeEv
EZc:__ZN5physx2Gu13coarseCullingERKNS_6PxVec3ES3_ffRKNS_10PxTriangleE
m1:__ZN13ScreenManager21OnWindowRegainedFocusEv
eVb:__Z18Transfer_BlittableI18StreamedBinaryReadILb0EELb1EdEvRK29SerializationCommandArgumentsR31RuntimeSerializationCommandInfo
Wjc:__Z56Register_UnityEngine_Camera_INTERNAL_get_backgroundColorv
wtj:_WillRenderCanvases_BeginInvoke_m1914028027
iMg:_FileStream_get_CanRead_m4148920720
n6k:__ZN6il2cpp2gc19AppendOnlyGCHashMapINSt3__24pairIPK12PropertyInfoP11Il2CppClassEEP24Il2CppReflectionProperty17ReflectionMapHashIS9_E19ReflectionMapEqualsIS9_EE11TryGetValueERKS9_PSB_
b5d:__ZN5physx2Sc5Scene29processNarrowPhaseTouchEventsEv
RFa:__ZN4crnd12symbol_codec32decode_receive_static_data_modelERNS_25static_huffman_data_modelE
KAj:_Playables_GetTimeValidated_m788360268
rqb:__ZN18ScriptingArguments8AddFloatEf
CEg:_GregorianCalendar_set_CalendarType_m2438362222
Erg:_FloatTween_get_targetValue_m2120061648_AdjustorThunk
Yzj:_AnimatorControllerPlayable_get_node_m127621219_AdjustorThunk
elj:__Z71RuntimeInvoker_Void_t1841601450_Int32_t2071877448_UriScheme_t1876590943PK10MethodInfoPvPS2_
wQe:_Array_InternalArray__ICollection_Contains_TisVector2_t2243707579_m3625698589_gshared
Ifd:__ZN5physx6shdfnd5ArrayIPvNS0_15InlineAllocatorILj256ENS0_19ReflectionAllocatorINS_18NpArticulationLinkEEEEEE15growAndPushBackERKS2_
IDc:__Z18Transfer_BlittableI9JSONWriteLb0EaEvRK29SerializationCommandArgumentsR31RuntimeSerializationCommandInfo
Wnk:_SliderHandler_ThumbSelectionRect_m1949915148
sX:__ZN11UnityEngine15CloudWebService14DataDispatcher34OnSessionContainerArchivedAndReadyERNS0_16SessionContainerE
NLc:__ZN7b2World11CreateJointEPK10b2JointDef
MIb:__ZN13EmscriptenWWW10OnResponseEPviS0_jPc
mNl:__ZNSt13runtime_errorD0Ev
c3c:__ZNK5physx3Cct15ObstacleContext11getObstacleEj
fah:_CipherSuiteCollection__ctor_m2154226461
oSb:__Z18Transfer_BlittableI19StreamedBinaryWriteILb0EELb0E8Vector3fEvRK29SerializationCommandArgumentsR31RuntimeSerializationCommandInfo
c6h:_RectOffset__ctor_m2227510254
yve:_gray_move_to
f4k:__ZN15dense_hashtableINSt3__24pairIK10KeyWrapperINS1_IPK9FieldInfoP11Il2CppClassEEEjEES9_17ReflectionMapHashIS8_EN14dense_hash_mapIS9_jSD_19ReflectionMapEqualsIS8_ENS0_9allocatorISB_EEE9SelectKeyESG_SI_ED2Ev
o2a:__Z34GetNonInterpolatedLightAttenuationRK17LightProbeContextjPK15SharedLightData
Nyj:_UnityAction_BeginInvoke_m407736228
nag:_Collection_1_System_Collections_IEnumerable_GetEnumerator_m4174600764_gshared
nfk:_ConstructionCall_InitDictionary_m4046452035
U6k:__ZN6il2cpp2vm10Reflection14GetEventObjectEP11Il2CppClassPK9EventInfo
ufj:__Z43RuntimeInvoker_VerticalWrapMode_t3668245347PK10MethodInfoPvPS2_
zbh:_TlsStream_Write_m2271546135
Lqk:_TextEditor_ReplaceSelection_m356220427
j3:__ZN20LocalFileSystemPosixD0Ev
Mhc:__Z23GetGlobalBoolPreferencePKcb
LMf:_CultureInfo_ConstructInternalLocaleFromCurrentLocale_m1342751405
N4i:__Z50RuntimeInvoker_UInt16_t986882611_Int16_t4041245914PK10MethodInfoPvPS2_
Uhb:__ZN21AssetBundleFileSystem5WriteER13FileEntryDatayPvPy
Gjf:_Latin1Encoding_GetString_m3553289597
HRd:__ZN5physx13IslandManager6resizeEj
Wwe:_tt_cmap_init
Cb:invoke_viidi
KPf:_Enumerator_System_Collections_IEnumerator_get_Current_m3461301268_gshared
Auh:_Enumerator_get_Current_m1020413567_AdjustorThunk
YSf:_List_1_System_Collections_IList_get_IsFixedSize_m1122077912_gshared
Qlj:__Z48RuntimeInvoker_Link_t865133271_Int32_t2071877448PK10MethodInfoPvPS2_
D4b:__ZN9TextAssetC2E18MemLabelIdentifier18ObjectCreationMode
Aad:__ZN5physx6shdfnd8PoolBaseINS_2Cm5BlockIPvLj16EEENS0_19ReflectionAllocatorIS5_EEE17releaseEmptySlabsEv
SRf:_List_1_System_Collections_ICollection_CopyTo_m2020941110_gshared
$wj:_Display_RecreateDisplayList_m3412638488
cCi:__ZL79Convert_t2607082565_CustomAttributesCacheGenerator_Convert_ToUInt64_m2215781574P21CustomAttributesCache
vnj:__Z52RuntimeInvoker_KeyValuePair_2_t38854645_Il2CppObjectPK10MethodInfoPvPS2_
HTb:__ZN19StreamedBinaryWriteILb0EE21TransferSTLStyleArrayINSt3__26vectorINS2_12basic_stringIcNS2_11char_traitsIcEE13stl_allocatorIcL18MemLabelIdentifier1ELi16EEEES7_ISA_LS8_1ELi16EEEEEEvRT_17TransferMetaFlags
OZl:_emscripten_glCheckFramebufferStatus__wrapper
O3c:__ZL20updateMassAndInertiabRN5physx11PxRigidBodyEPKfjPKNS_6PxVec3Eb
XAc:__Z18Transfer_BlittableI8JSONReadLb0EdEvRK29SerializationCommandArgumentsR31RuntimeSerializationCommandInfo
Xle:__ZN5physx24NpPtrTableStorageManagerC2Ev
GH:__ZN7mecanim9animation21BlendTreeNodeConstant35Transfer_4_0_BackwardsCompatibilityI14SafeBinaryReadEEvRT_
vZl:_glCreateShader__wrapper
qKe:__Z44Register_UnityEngine_Canvas_set_sortingOrderv
iPj:_Thread_ClrState_m822263449
CWg:_SimpleCollator_LastIndexOfOrdinalIgnoreCase_m550798345
q3k:__ZN15dense_hashtableINSt3__24pairIK10KeyWrapperINS1_IPK14Il2CppAssemblyP11Il2CppClassEEEjEES9_17ReflectionMapHashIS8_EN14dense_hash_mapIS9_jSD_19ReflectionMapEqualsIS8_ENS0_9allocatorISB_EEE9SelectKeyESG_SI_E13clear_deletedER30dense_hashtable_const_iteratorISB_S9_SD_SK_SG_SI_E
S_k:__ZN6il2cpp2vm21ThreadPoolCompartment13QueueWorkItemEP17Il2CppAsyncResult
Kn:FUNCTION_TABLE_viiiiiifiii
Zya:__ZNK9GfxDevice13GetViewMatrixEv
xKd:__ZN5physx7NpScene15flushSimulationEb
prd:__ZN5physx6shdfnd8PoolBaseINS_10NpMaterialENS0_19ReflectionAllocatorIS2_EEE12allocateSlabEv
Oaa:__ZN8TypeTree8BlobReadERPKhS1_ib
oAk:_BoblinController_OnTriggerEnter2D_m3236095443
jic:__Z36CreateScriptingArrayFromUnityObjectsI13dynamic_arrayIP6ObjectLj4EEEP11Il2CppArrayRKT_i
kfe:__ZN5physx18ReducedVertexCloudC2EPKNS_6PxVec3Ej
Isa:__ZN18LoadSceneOperation23GetAllowSceneActivationEv
Sja:__ZN15SerializeTraitsI14ConstantStringE8TransferI19StreamedBinaryWriteILb0EEEEvRS0_RT_
Hqa:__ZN11prophecysdk4half7convertEi
Mlb:__ZN6CameraD0Ev
bYg:_ModulusRing_Multiply_m386339435
Bea:__ZN31CanvasBatchIntermediateRenderer16StaticInitializeEPv
$vg:_GraphicRaycaster_U3CRaycastU3Em__0_m3971200721
wdg:_ReadOnlyCollection_1_System_Collections_IList_RemoveAt_m3004588099_gshared
UAf:_Decimal_op_Implicit_m4246329390
B4g:_ArgumentNullException__ctor_m2252076819
J7a:__ZN10GameObjectC2E18MemLabelIdentifier18ObjectCreationMode
Bue:_raccess_guess_apple_double
ttk:_Transform_INTERNAL_set_localScale_m3680777866
_ih:_ListDictionary_GetEnumerator_m1511032609
ZWh:_TypeBuilder_get_FullName_m1626507516
JNh:_SerializationInfo__ctor_m4016423422
YGa:__ZL18ProgramUniform1uivPK7ApiGLESjiihPKv
E7b:__ZN14Texture2DArray13RebuildMipMapEv
BVk:__ZN13Il2CppHashSetIPK17Il2CppGenericInstN6il2cpp8metadata21Il2CppGenericInstHashENS4_24Il2CppGenericInstCompareENSt3__29allocatorI10KeyWrapperIS2_EEEEC2EjRKS5_RKS6_
iNb:__Z18Transfer_BlittableI14SafeBinaryReadLb1EaEvRK29SerializationCommandArgumentsR31RuntimeSerializationCommandInfo
Gnl:__ZN6il2cpp2gc16GarbageCollector14RemoveWeakLinkEPPv
S1b:__ZN9ShaderLab20SerializedSubProgram14AddVectorParamEPKcii15ShaderParamTypei
xIe:__ZN2UI14CanvasRenderer12CleanupClassEv
Ejd:__ZNK5physx19NpRigidBodyTemplateINS_18PxArticulationLinkEE27getMinCCDAdvanceCoefficientEv
Hgg:_ReadOnlyCollection_1_System_Collections_IEnumerable_GetEnumerator_m1734360860_gshared
BFh:_DefaultComparer__ctor_m1052417779_gshared
Mcf:_SystemException__ctor_m2688248668
W9j:_ResourceSet_ReadResources_m1669023823
_1g:_PKCS12_RemoveCertificate_m1590055870
dal:__ZN6il2cpp2vm6Thread7SetNameEP12Il2CppThreadP12Il2CppString
Mri:__ZL117GenericTypeParameterBuilder_t1370236603_CustomAttributesCacheGenerator_GenericTypeParameterBuilder_Equals_m2498927509P21CustomAttributesCache
oJi:__ZL107Collision_t2876846408_CustomAttributesCacheGenerator_Collision_t2876846408____frictionForceSum_PropertyInfoP21CustomAttributesCache
Kq:__ZN6Object23VirtualRedirectTransferER19StreamedBinaryWriteILb1EE
pga:__ZN13ScreenManager18SetAllowCursorLockEb
FHb:__ZN30RuntimeInitializeOnLoadManager15ClassMethodInfo8TransferI14SafeBinaryReadEEvRT_
dhl:__ZNK15dense_hashtableINSt3__24pairIK10KeyWrapperINS1_IPKcS4_EEEiEES6_24NamespaceAndNamePairHashN14dense_hash_mapIS6_iS9_26NamespaceAndNamePairEqualsNS0_9allocatorIS8_EEE9SelectKeyESB_SD_E13find_positionERS7_
Zdd:__ZNK5physx2Sc10ClothShape8isActiveEv
oKb:__ZN9TextAsset8TransferI14SafeBinaryReadEEvRT_
CUi:__ZL73CanvasScaler_t2574720772_CustomAttributesCacheGenerator_m_ScreenMatchModeP21CustomAttributesCache
YV:__ZL22InitializeModule_Audiov
kSd:__ZN5physx2Sq11PruningPoolD0Ev
oNc:__ZN16Physics2DManager13DynamicUpdateEv
sdb:__ZN16MemoryFileSystem8IsLockedERK13FileEntryData
c_d:__ZN3MBP15removeBoxPrunerEj
luk:_Vector2_get_Item_m2792130561_AdjustorThunk
u0h:_MonoCMethod_Invoke_m931478014
bak:_SatelliteContractVersionAttribute__ctor_m2605651717
Gl:_emscripten_glBindRenderbuffer
Qxc:__Z32GUIStyle_Set_Custom_PropClippingP12Il2CppObjecti
aif:_DecoderExceptionFallbackBuffer_GetNextChar_m1727394816
ntl:_GC_dirty_init
bmf:_Array_Copy_m1969461849
OMh:_MessageFormatter_ReadMethodResponse_m4134629501
Hkl:__ZN6il2cpp2vm5Field14GetValueObjectEP9FieldInfoP12Il2CppObject
tif:_EncoderExceptionFallback_GetHashCode_m2071009120
TKf:_Environment_get_OSVersion_m1247315981
B0a:__ZN23ForwardShaderRenderLoop23RenderForwardShadowMapsEPK11ActiveLightbN6Camera10RenderFlagER17ShaderPassContext
cXc:__ZL15SweepBoxCapsulePKN5physx3Cct9SweepTestEPKNS0_11SweptVolumeEPKNS0_11TouchedGeomERKNS_14PxExtendedVec3ERKNS_6PxVec3ERNS0_12SweptContactE
Dda:__ZN6Object17FindObjectsOfTypeEPKN5Unity4TypeER13dynamic_arrayIPS_Lj4EEb
ybc:__ZNSt3__26vectorINS_4pairIiiEE13stl_allocatorIS2_L18MemLabelIdentifier1ELi16EEE21__push_back_slow_pathIKS2_EEvRT_
_qh:_Capture_get_Length_m1952322390
CEc:__ZN9JSONWrite8TransferI4PPtrI9Texture2DEEEvRT_PKc17TransferMetaFlags
QGl:__ZNKSt3__220__time_get_c_storageIwE7__weeksEv
PKb:__ZN13MonoBehaviour17RemoveFromManagerEv
Dga:__ZN14GraphicsHelper5ClearEjRK10ColorRGBAffjR17ShaderPassContext
I9d:__ZN5physx2Sc19ParticlePacketShapeD2Ev
GIe:__ZL23RegisterModuleICalls_UIv
nwb:__ZL11DecodeValuePPKcS0_
wwh:_ShimEnumerator_MoveNext_m2013866013_gshared
D$:__ZN13MemoryManagerC2Ev
ztk:_Transform_SetParent_m1963830867
Rw:__ZN15SerializeTraitsI22OffsetPtrArrayTransferIN7mecanim13ValueConstantEEE8TransferI19StreamedBinaryWriteILb0EEEEvRS3_RT_
HRa:__ZN20ArchiveStorageReader28AcquireAndPrefillUnusedBlockEjPNS_11CacheResultE
Y3f:__ZN21InterfaceFuncInvoker1I40CustomAttributeTypedArgument_t1498197914iE6InvokeEjP11Il2CppClassPvi
R5i:__Z78RuntimeInvoker_Il2CppObject_SByte_t454417549_SByte_t454417549_SByte_t454417549PK10MethodInfoPvPS2_
x7b:__Z12NHxRoughnessIA4_tEvP9Texture2DPT_iiii
Gsk:_Touch_get_phase_m196706494_AdjustorThunk
xgk:_MethodDictionary_get_SyncRoot_m673971424
M9:__ZN16ScriptingManager27NativeTypeForScriptingClassEP11Il2CppClass
Oyb:__ZN13TrailRenderer19UpdateTransformInfoEv
$da:__ZN18AsyncUploadManagerD2Ev
hxb:__ZN9Transform5ResetEv
_Qb:__Z22TransferField_NonArrayI24GenerateTypeTreeTransfer16Converter_StringEvRK23StaticTransferFieldInfoR31RuntimeSerializationCommandInfoRT0_
VJb:__ZN9TextAsset9SetScriptERK8UnityStr
Hkh:_HttpWebRequest_System_Runtime_Serialization_ISerializable_GetObjectData_m3671622902
hga:__Z17MainLoopKeepalivePv
rdd:__ZN5physx7NpScene16addActorInternalERNS_7PxActorE
_gk:_MatchCollection__ctor_m1944681790
y4e:_HMACSHA512__ctor_m1667460019
LXa:__Z24ScheduleCullingAllGroupsR8JobFenceRK22SceneCullingParameters4PPtrI6CameraERK13CullingOutputRK13dynamic_arrayIP12CullingGroupLj4EERKS_
G9e:_ToBase64Transform_get_OutputBlockSize_m949275583
zTg:_MonoType_ToString_m473949831
RWa:__Z14CalcHullBoundsPK8Vector3fPKhhRK5PlaneRK10Matrix4x4fR10MinMaxAABB
DKh:_RealProxy__ctor_m2147093603
thi:_RaycastHit2D_get_point_m442317739_AdjustorThunk
YXb:__ZN11PreloadData39ShouldIgnoreInGarbageDependencyTrackingEv
m_f:_List_1__ctor_m3511181530_gshared
s$a:__Z19SetupLODFadeKeywordR17ShaderPassContexti
zwe:_UNITY_FT_Stream_ReadFields
Hdg:_ReadOnlyCollection_1_get_Count_m2180604490_gshared
rEg:_DateTimeFormatInfo_GetAllDateTimePatternsInternal_m1587126173
Trl:_GC_set_fl_marks
rJa:__ZL25CheckCopyTextureArgumentsRK7ApiGLESP11GLESTextureS3_
Wda:__ZN13dynamic_arrayI26EnlightenSystemInformationLj8EE6insertEPS0_PKS0_S4_
rwe:_tt_name_entry_ascii_from_utf16
MTg:_MulticastNotSupportedException__ctor_m2164514827
VDf:_DateTime_System_IConvertible_ToChar_m2489529194_AdjustorThunk
LRb:__Z29Transfer_Blittable_ArrayFieldI24GenerateTypeTreeTransferyEvRT_R9ArrayInfoRK23StaticTransferFieldInfo
aje:__ZN14PhysicsManager23VirtualRedirectTransferER18StreamedBinaryReadILb1EE
gQ:__ZN4FMOD7SystemI9playSoundE17FMOD_CHANNELINDEXPNS_5SoundEbPPNS_7ChannelE
Yoe:__ZN13PhysicsModule31GetColliderComponentsInChildrenERK10GameObjectbbR13dynamic_arrayIPN5Unity9ComponentELj4EE
oZe:_Array_InternalArray__Insert_TisTextEditOp_t3138797698_m1261639558_gshared
JOi:__ZL78ExecuteEvents_t1693084770_CustomAttributesCacheGenerator_U3CU3Ef__mgU24cache10P21CustomAttributesCache
E3:__GLOBAL__sub_I_runtime_graphics_mesh2_lump_cpp
vji:_RectTransformUtility_PixelAdjustRect_m93024038
Pud:__ZNK5physx7NpCloth16getStretchConfigENS_22PxClothFabricPhaseType4EnumE
tPc:__ZN17PhysicsMaterial2D5ResetEv
Uzj:_AnimationPlayableUtilities_SetInputValidated_m2748997465
tw:__ZN18StreamedBinaryReadILb0EE21TransferSTLStyleArrayI13dynamic_arrayI12PPtrKeyframeLj4EEEEvRT_17TransferMetaFlags
BRf:_List_1_Remove_m2616693989_gshared
Tzb:__ZN10VertexData13SwapEndianessEv
LCl:_realloc
Rsc:__Z57Register_UnityEngine_Transform_INTERNAL_get_localRotationv
rHb:__ZN30RuntimeInitializeOnLoadManager23VirtualRedirectTransferER17RemapPPtrTransfer
tQl:dynCall_viif
e1h:_MonoField_get_DeclaringType_m1591666235
OYj:_InternalEnumerator_1__ctor_m2111763266_AdjustorThunk
tth:_Enumerator_MoveNext_m4234629003
L$a:__ZN29MotionVectorRenderLoopScratchD2Ev
epg:_ButtonClickedEvent__ctor_m938038541
B8d:__ZN5physx2Sc24ConstraintProjectionTree11projectPoseERNS0_19ConstraintGroupNodeE
qPb:__ZL26Transfer_SimpleNativeClassI17RemapPPtrTransfer8GradientLb0EEvRK29SerializationCommandArgumentsR31RuntimeSerializationCommandInfo
jC:__ZN17AnimationPlayable26DisconnectNoTopologyChangeEPS_i
Z$k:__ZN6il2cpp6icalls8mscorlib6System8MonoType14get_attributesEP20Il2CppReflectionType
Ggb:__Z43DestroyWithoutLoadingButDontDestroyFromFilei
epe:__ZN13PhysicsModule29GetColliderMaterialInstanceIDER8Collider
CSg:_MonoType_GetDefaultConstructor_m925465120
gjd:__ZNK5physx20NpRigidActorTemplateINS_18PxArticulationLinkEE14getConstraintsEPPNS_12PxConstraintEjj
vIe:__ZZN2UI14CanvasRenderer15InitializeClassEvEN34FunctorImpl_802kCanvasGroupChanged4CallEPviR11MessageData
vOl:dynCall_viiiiiffi
lKi:__ZL95Physics2D_t2540166467_CustomAttributesCacheGenerator_Physics2D_Raycast_m2303387255____distance2P21CustomAttributesCache
jd:_emscripten_glBlendFuncSeparate
CYh:_GenericTypeParameterBuilder_IsPrimitiveImpl_m1198748291
d7:__Z20scripting_string_newPKc
Fqc:__Z43Material_CUSTOM_Internal_CreateWithMaterialP12Il2CppObjectS0_
qpc:__Z86Register_UnityEngine_Experimental_Director_Playable_INTERNAL_CALL_SetPlayStateInternalv
bLg:_Directory_GetCurrentDirectory_m44486537
l1i:__Z45RuntimeInvoker_RuntimeFieldHandle_t2331729674PK10MethodInfoPvPS2_
ehl:__ZNK24NamespaceAndNamePairHashclERKNSt3__24pairIPKcS3_EE
RWk:__ZNK15dense_hashtableINSt3__24pairIK10KeyWrapperINS0_12basic_stringIcNS0_11char_traitsIcEENS0_9allocatorIcEEEEEP11Il2CppClassEES9_N6il2cpp5utils11StringUtils12StringHasherIS8_EEN14dense_hash_mapIS9_SC_SI_NS0_8equal_toIS9_EENS6_ISD_EEE9SelectKeyESL_SM_E5beginEv
dgb:__ZN29AssetBundleLoadAssetOperation34CollectFullPreloadDataDependenciesER13dynamic_arrayIiLj4EE
A1f:_Collection_1_System_Collections_ICollection_CopyTo_m1047946700_gshared
Ynj:__Z36RuntimeInvoker_Enumerator_t975728254PK10MethodInfoPvPS2_
bCf:_Convert_ToInt64_m4057339019
Gjd:__ZNK5physx19NpRigidBodyTemplateINS_18PxArticulationLinkEE27getMaxDepenetrationVelocityEv
Vmh:_AsnEncodedData_Default_m4197142414
Cce:__ZThn8_N5physx2Gu11HeightFieldD1Ev
rcl:__ZNSt3__218uninitialized_copyIPNS_4pairIK10KeyWrapperIP11Il2CppClassES4_EES8_EET0_T_SA_S9_
_Ed:__ZN5physx19NpRigidBodyTemplateINS_14PxRigidDynamicEED0Ev
whd:__ZNK5physx19PxArticulationJoint19getConcreteTypeNameEv
SN:__ZN17AudioCustomFilterD2Ev
bwc:__ZN11IMGUIModule26SetDeveloperConsoleVisibleEb
Kvc:__ZNK8GUIStyle13GetLineHeightEv
uIa:__ZN18GfxFramebufferGLES18ReleaseFramebufferEP17RenderSurfaceBaseP14GfxContextGLES
sdk:_Context_GetDynamicPropertyCollection_m1987747444
goh:_X509Certificate2_get_Version_m1927399907
fCc:__Z18Transfer_BlittableI8JSONReadLb1EiEvRK29SerializationCommandArgumentsR31RuntimeSerializationCommandInfo
Hxg:_Image_RadialCut_m3229543088
w_:__ZN19CloudServiceHandler34HandleSaveFileWebRequestPlayerLoopEv
MC:__ZN7mecanim21ValueArrayReverseCopyEPKNS_18ValueArrayConstantEPKNS_10ValueArrayES2_PS3_PKi
IN:__Z31GetParentSampleClipFromInstancePN11SoundHandle8InstanceE
k5b:__ZNK28RectTransformPropertyBinding13GetFloatValueERKN11UnityEngine9Animation10BoundCurveE
D0c:__ZN5physx11PxHitBufferINS_12PxOverlapHitEE14processTouchesEPKS1_j
eGd:__ZL22addOrRemoveRigidObjectILb0ELb0ELb0ELb1EN5physx3Scb11RigidStaticEEvRNS0_2Sc5SceneERT3_b
Hyl:__ZN6il2cpp2os16ThreadLocalValue8GetValueEPPv
f5j:_InternalEnumerator_1_System_Collections_IEnumerator_Reset_m196087328_AdjustorThunk
I6f:__ZN18VirtActionInvoker2Ii22UICharInfo_t3056636800E6InvokeEjPviS0_
zn:FUNCTION_TABLE_iiiiifiif
G8e:_SHA384Managed_Initialize_m712692291
JZj:_InternalEnumerator_1__ctor_m2688327768_gshared
sMf:_CompareInfo_get_LCID_m3346446356
h6f:_Collection_1_Add_m123318341_gshared
_pk:_TextEditor_MoveWordRight_m2225371862
Nti:__ZL60CallingConvention_t3354538265_CustomAttributesCacheGeneratorP21CustomAttributesCache
Daf:__ZN21InterfaceFuncInvoker2IP8String_tS1_P12Il2CppObjectE6InvokeEjP11Il2CppClassPvS1_S3_
jtc:__Z52Object_CUSTOM_GetOffsetOfInstanceIDInCPlusPlusObjectv
Mad:__ZN5physx6shdfnd4sortIPvNS0_4LessIS2_EENS0_19ReflectionAllocatorINS_2Cm5BlockIS2_Lj8EEEEEEEvPT_jRKT0_RKT1_j
DU:__ZN9AudioClip15InitializeClassEv
Yqd:__ZNK5physx9NpPhysics11getNbShapesEv
Cq:setThrew
JZi:__Z36RuntimeInvoker_IntPtr_t_Il2CppObjectPK10MethodInfoPvPS2_
p7b:__ZL21BuildEmptyCubeTexturePKci11ColorRGBA3217TextureColorSpace
FZb:__ZN14SafeBinaryRead21TransferSTLStyleArrayINSt3__26vectorIN9ShaderLab20SerializedSubProgramENS1_9allocatorIS4_EEEEEEvRT_17TransferMetaFlags
$Ne:__ZN13RuntimeStaticI20HardwareInfoReporterE10InitializeEv
wng:_StandaloneInputModule_set_cancelButton_m2642677329
aCc:__Z15Transfer_StringI8JSONReadLb1EEvRK29SerializationCommandArgumentsR31RuntimeSerializationCommandInfo
Ypa:__ZN6prcoreL17RemapGenericFloatI17TexFormatRGBFloat15TexFormatRGHalfEEvPKNS_9InnerInfoE
H_a:__Z25DoForwardShaderRenderLoopR17RenderLoopContextR13dynamic_arrayI16RenderObjectDataLj4EERK11CullResultsbbbN6Camera10RenderFlagE
Rve:_sfnt_load_face
f1g:_PKCS12_GetSymmetricAlgorithm_m1812022677
ANj:_UTF8Encoding_GetByteCount_m2372933408
pdk:_Context_get_NeedsContextSink_m1907794755
Ive:_UNITY_ft_service_list_lookup
T6g:_ARC4Managed_GenerateKey_m716135508
ZPb:__Z18Transfer_BlittableI17RemapPPtrTransferLb1E11ColorRGBA32EvRK29SerializationCommandArgumentsR31RuntimeSerializationCommandInfo
T8j:__ZN16VirtFuncInvoker2Ii40CustomAttributeTypedArgument_t1498197914S0_E6InvokeEjPvS0_S0_
WVc:__ZN5physx2Gu20intersectTriangleBoxERKNS_6PxVec3ES3_S3_S3_S3_
Tpd:__ZN5physx10NpMaterial8setFlagsENS_7PxFlagsINS_14PxMaterialFlag4EnumEtEE
peb:__ZN13BaseAllocator13TryDeallocateEPv
xTb:__Z29Transfer_Blittable_ArrayFieldI19StreamedBinaryWriteILb0EEfEvRT_R9ArrayInfoRK23StaticTransferFieldInfo
Olf:_Array_CreateInstance_m1054139389
r7h:_GUIStyleState_GetGUIStyleState_m2816150617
c_j:_InternalEnumerator_1__ctor_m967618647_AdjustorThunk
adb:__ZN16MemoryFileSystem5WriteER13FileEntryDatayPvPy
Vwg:_LayoutGroup_GetAlignmentOnAxis_m1783063916
_mb:__ZNSt3__26vectorIN12FlareManager10FlareEntryENS_9allocatorIS2_EEE21__push_back_slow_pathIKS2_EEvRT_
yUh:_Default_check_arguments_with_score_m1714931543
quj:_Collision_get_impactForceSum_m521972354
Z7e:_SHA1_Create_m4086509717
F_i:__Z57RuntimeInvoker_Il2CppObject_RuntimeTypeHandle_t2330101084PK10MethodInfoPvPS2_
TGk:_UnityEvent_1_GetDelegate_m3098147632_gshared
P1h:_MonoMethodInfo_GetMethodInfo_m3298558752
nO:__ZN13AudioListener17RemoveFromManagerEv
ee:_glAttachShader
Ftg:_Dropdown_SetAlpha_m2769981009
pke:__ZN5physx6shdfnd8internal8HashBaseINS0_4PairIKtPKcEEtNS0_4HashItEENS1_11HashMapBaseItS6_S9_NS_7profile26WrapperReflectionAllocatorIS6_EEE6GetKeyESD_Lb1EE6createERS4_Rb
wTa:__ZNK6Camera19GetProjectionMatrixEv
RNk:_Predicate_1_BeginInvoke_m1856151290_gshared
Z9d:__ZNK5physx2Cm12DelegateTaskINS_2Sc5SceneEXadL_ZNS3_18clothPreprocessingEPNS_10PxBaseTaskEEEE7getNameEv
qLd:__ZNK5physx7NpScene24getWakeCounterResetValueEv
pEd:__ZN5physx20NpRigidActorTemplateINS_14PxRigidDynamicEE17resolveReferencesERNS_24PxDeserializationContextE
HCk:_SceneFade_BeginFade_m3185360589
afg:_ReadOnlyCollection_1_System_Collections_IList_Contains_m673434054_gshared
uTk:__ZN15dense_hashtableINSt3__24pairIK10KeyWrapperIPK22Il2CppGenericParameterEP11Il2CppClassEES6_N6il2cpp5utils11PointerHashIS4_EEN14dense_hash_mapIS6_S9_SE_NS0_8equal_toIS6_EENS0_9allocatorISA_EEE9SelectKeyESH_SJ_E8min_sizeEjj
j9i:__Z139RuntimeInvoker_Il2CppObject_Il2CppObject_Int32_t2071877448_SByte_t454417549_SByte_t454417549_SByte_t454417549_SByte_t454417549_Il2CppObjectPK10MethodInfoPvPS2_
$wc:__Z33GUI_CUSTOM_INTERNAL_CALL_DoButtonRK5RectTIfEP12Il2CppObject13Il2Cpp_IntPtr
J0d:__ZN5physx2Gu32PCMConvexVsMeshContactGeneration20generateLastContactsEv
_8:__Z38PreallocateObjectFromPersistentManagerib
hEf:_DateTime_System_IConvertible_ToSingle_m3927769066
CIl:__ZNSt3__211__money_getIwE13__gather_infoEbRKNS_6localeERNS_10money_base7patternERwS8_RNS_12basic_stringIcNS_11char_traitsIcEENS_9allocatorIcEEEERNS9_IwNSA_IwEENSC_IwEEEESJ_SJ_Ri
bqd:__ZThn12_N5physx10NpMaterialD0Ev
vrb:__ZNK9Texture2D20GetUnscaledTextureIDEv
MU:__ZN9AudioClip7PRODUCEE18MemLabelIdentifier18ObjectCreationMode
qLl:__ZNSt3__26vectorIPNS_6locale5facetENS_15__sso_allocatorIS3_Lj28EEEE26__swap_out_circular_bufferERNS_14__split_bufferIS3_RS5_EE
mCf:_Convert_ToSByte_m883113940
lge:__ZN5physx6shdfnd4sortIjNS_19SortBoundsPredicateENS0_19ReflectionAllocatorIjEEEEvPT_jRKT0_RKT1_j
JWl:_glFenceSync__wrapper
BTg:_MonoType_get_ContainsGenericParameters_m3229732653
Bsd:__ZN5physx7NpShape14onRefCountZeroEv
DVe:_Array_InternalArray__IndexOf_TisContactPoint_t1376425630_m3651364246_gshared
$Ri:__ZL53InputField_t1631627530_CustomAttributesCacheGeneratorP21CustomAttributesCache
cwl:__ZN6il2cpp2vm13ComObjectBaseINS0_13ManagedObjectE18Il2CppIInspectableNS0_7details6ComNilES5_S5_S5_S5_S5_S5_E16__CreateInstanceEP12Il2CppObject
L3d:__ZN5physx2Cm18DelegateFanoutTaskINS_2Sc5SceneEXadL_ZNS3_14postBroadPhaseEPNS_10PxBaseTaskEEEED0Ev
Kfe:__ZL15TestContainmentRKN5physx6PxVec3EPKfjPKNS_2Gu15HullPolygonDataE
Arb:__ZNK9Texture2D26CanReuploadDataToGfxDeviceEv
FVb:__ZN18StreamedBinaryReadILb0EE21TransferSTLStyleArrayI13dynamic_arrayI4AABBLj4EEEEvRT_17TransferMetaFlags
pTj:_UInt16_System_IConvertible_ToDouble_m4100549304_AdjustorThunk
U0i:__Z116RuntimeInvoker_Il2CppObject_Il2CppObject_Il2CppObject_Int32_t2071877448_Int32_t2071877448_MonoIOErrorU26_t1029615899PK10MethodInfoPvPS2_
hta:__Z29ClearRepeatingLogMessageStatev
quc:__ZN13TextRendering17TextMeshGenerator13GetTextOffsetERK5RectTIfE
_Lk:_HashSet_1_OnDeserialization_m1222146673_gshared
Lce:__ZN5physx2Gu11HeightField12loadFromDescERKNS_17PxHeightFieldDescEb
Udf:_Single_System_IConvertible_ToInt16_m962677079
rda:__ZN21EnlightenSceneMappingaSERKS_
s9f:_Collection_1_SetItem_m546457615_gshared
_yl:__ZNK6il2cpp8metadata21Il2CppGenericInstHashclEPK17Il2CppGenericInst
gef:_Single_System_IConvertible_ToUInt32_m2447833283
Cfg:_ReadOnlyCollection_1_System_Collections_IList_Add_m3806843030_gshared
sNa:__ZN7ApiGLESD2Ev
b7a:__ZN9Transform47ClearTransformHierarchyAndApplyToSerializedDataEv
W1j:_InternalEnumerator_1_get_Current_m4083613828_AdjustorThunk
wId:__ZN5physx6shdfnd8PoolBaseINS_2Gu30LargePersistentContactManifoldENS0_19ReflectionAllocatorIS3_EEE12allocateSlabEv
Lpd:__ZNK5physx10NpMaterial17getReferenceCountEv
R5e:_RijndaelManaged_GenerateKey_m3366247933
JKg:_BinaryReader_ReadUInt64_m1893783375
Yrj:_Bounds_op_Equality_m2161830280
Sab:__ZN17PersistentManager9AddStreamEv
SQl:dynCall_fidi
Qyc:__Z47Register_UnityEngine_GUIStyle_set_imagePositionv
N4d:__ZN5physx20getVertexEdgeIndicesERKNS_2Gu11HeightFieldEjjjPNS_8EdgeDataE
qyc:__Z49GUIStyle_CUSTOM_INTERNAL_CALL_Internal_DrawCursor13Il2Cpp_IntPtrRK5RectTIfEP12Il2CppObjectiRK10ColorRGBAf
DHj:_ScrollRect_set_movementType_m3292965850
tAi:__ZL59AttributeTargets_t1984597432_CustomAttributesCacheGeneratorP21CustomAttributesCache
DNd:__ZN5physx6shdfnd5ArrayIPNS_2Sc8BodyCoreENS0_19ReflectionAllocatorIS4_EEE6resizeEjRKS4_
Hii:_RectTransform_set_anchorMin_m4247668187
s2c:__ZN5physx3Cct26CharacterControllerManager16createControllerERNS_9PxPhysicsEPNS_7PxSceneERKNS_16PxControllerDescE
vZ:__ZN11UnityEngine15CloudWebService14RestDownloaderD2Ev
Ebb:__Z29StdTemplateConversionFunctionIjhEbPvR14SafeBinaryRead
Qje:__ZNK12PhysXRaycast12BatchOverlapER13dynamic_arrayI15BatchedOverlapsLj4EEPP8Colliderj
jRf:_List_1_GrowIfNeeded_m2986672263_gshared
kYj:_ArrayReadOnlyList_1_Remove_m2325516426_gshared
Xvf:_Hashtable_get_Count_m830088216
khc:__ZNK13MonoBehaviour13GetScriptTypeEv
Zha:__ZN13RenderTexture12SetDimensionE16TextureDimension
Kki:_ScriptableObject_CreateInstance_m3921674852
We:_SDL_FreeRW
KQd:__ZN5physx6shdfnd8PoolBaseINS_2Cm5BlockIhLj128EEENS0_19ReflectionAllocatorIS4_EEE15disposeElementsEv
g8e:_SHA1Internal_FillBuff_m891541953
IDi:__ZL62ResolveEventHandler_t3842432458_CustomAttributesCacheGeneratorP21CustomAttributesCache
NAd:__ZN5physx3Scb14ParticleSystem14setRestOffsetsEjRKNS_16PxStrideIteratorIKjEERKNS2_IKfEE
Kie:__ZN12MeshCollider11CreateShapeEPvPK9RigidbodyRK8Vector3f
lT:__ZN20SoundChannelInstance8getDelayE14FMOD_DELAYTYPEPjS1_
Fhb:__ZN21AssetBundleFileSystemC2EPKc
tBk:_MyUnitySingleton_Awake_m3343884308
h_i:__Z61RuntimeInvoker_Void_t1841601450_Il2CppObject_Int64_t909078037PK10MethodInfoPvPS2_
Kyg:_InputField_set_customCaretColor_m3534590098
NHj:_ScrollRect_set_viewport_m323693490
Pwa:__ZN10UnitySceneD0Ev
JDg:_NumberFormatter_FormatExponential_m3975285307
vqe:__ZNSt3__26vectorIN20TextRenderingPrivate8FontImpl13CharacterInfoE13stl_allocatorIS3_L18MemLabelIdentifier1ELi16EEE8__appendEj
u:tempBigInt
cf:_emscripten_glVertexAttrib1fv
WZb:__ZNSt3__26vectorIN9ShaderLab20SerializedSubProgram12UAVParameterENS_9allocatorIS3_EEE7reserveEj
T2e:_Array_InternalArray__get_Item_TisTypeTag_t141209596_m1747911007_gshared
jjh:_NameObjectCollectionBase__ctor_m2433753948
Yoj:_AnimationCurve_Init_m1486386337
wvj:_Component_GetComponents_m3712441745
qMd:__ZN5physx13NpVolumeCacheC2EPNS_2Sq17SceneQueryManagerEjj
Ibd:__ZThn24_N5physx2Sc20ArticulationJointSimD1Ev
uzg:_InputField_get_selectionAnchorPosition_m466595604
Szi:__ZL99Thread_t241561612_CustomAttributesCacheGenerator_Thread_t241561612____ExecutionContext_PropertyInfoP21CustomAttributesCache
fif:_DecoderReplacementFallback_get_DefaultString_m3399348550
xGk:_UnityAction_4_Invoke_m3312096275_gshared
NVi:__ZL111LayoutUtility_t4076838048_CustomAttributesCacheGenerator_LayoutUtility_U3CGetPreferredHeightU3Em__5_m1524880643P21CustomAttributesCache
emj:__Z57RuntimeInvoker_ResourceInfo_t3933049236_Int32_t2071877448PK10MethodInfoPvPS2_
pTk:__ZN15dense_hashtableINSt3__24pairIK10KeyWrapperIPK22Il2CppGenericParameterEP11Il2CppClassEES6_N6il2cpp5utils11PointerHashIS4_EEN14dense_hash_mapIS6_S9_SE_NS0_8equal_toIS6_EENS0_9allocatorISA_EEE9SelectKeyESH_SJ_EC2ERKSM_j
ZVk:__ZN15dense_hashtableINSt3__24pairIK10KeyWrapperIPK19Il2CppGenericMethodEPK26Il2CppGenericMethodIndicesEES6_N6il2cpp8metadata23Il2CppGenericMethodHashEN14dense_hash_mapIS6_SA_SE_NSD_26Il2CppGenericMethodCompareENS0_9allocatorISB_EEE9SelectKeyESG_SI_E13set_empty_keyERKSB_
OAd:__ZN5physx2Sc18ParticleSystemCore14setRestOffsetsEjRKNS_16PxStrideIteratorIKjEERKNS2_IKfEE
lWc:__ZN5physx2Gu16testPolyDataAxisERKNS0_8CapsuleVERKNS0_13PolygonalDataEPNS0_12SupportLocalERKNS_6shdfnd3aos6FloatVERSB_RNSA_5Vec3VE
mji:_RectTransformUtility_ScreenPointToRay_m1842507230
D5a:__ZN16ReflectionProbes16UpdateSampleDataEv
m_i:__Z71RuntimeInvoker_Int32_t2071877448_Il2CppObject_Il2CppObject_Il2CppObjectPK10MethodInfoPvPS2_
zed:__ZN5physx2Sc17ParticleSystemSimD0Ev
ajl:__ZNK15dense_hashtableI10KeyWrapperIP18Il2CppGenericClassES3_N6il2cpp8metadata22Il2CppGenericClassHashEN14dense_hash_setIS3_S6_NS5_25Il2CppGenericClassCompareENSt3__29allocatorIS3_EEE8IdentityES8_SB_E10test_emptyERK30dense_hashtable_const_iteratorIS3_S3_S6_SD_S8_SB_E
Mth:_Enumerator_VerifyState_m2118679243_gshared
DBk:_PauseMenu_OnGUI_m1266844056
sYb:__ZN14SafeBinaryRead21TransferSTLStyleArrayI10vector_setI4PPtrI10MonoScriptENSt3__24lessIS4_EE13stl_allocatorIS4_L18MemLabelIdentifier76ELi16EEEEEvRT_17TransferMetaFlags
k2i:__Z103RuntimeInvoker_Il2CppObject_Il2CppObject_StreamingContext_t1417235061_ISurrogateSelectorU26_t2635255864PK10MethodInfoPvPS2_
mbk:_SafeHandle_Finalize_m1839546519
gyb:__ZN14Texture2DArray5ResetEv
ICc:__ZN8JSONRead21TransferSTLStyleArrayINSt3__26vectorI10RectOffset13stl_allocatorIS3_L18MemLabelIdentifier1ELi16EEEEEEvRT_S5_17TransferMetaFlags
B6j:_InternalEnumerator_1_MoveNext_m252820768_AdjustorThunk
_dk:_Context_AllocateNamedDataSlot_m3200404053
l_a:__ZN14BatchAllocator6CommitE18MemLabelIdentifier
enh:_X509EnhancedKeyUsageExtension_Decode_m3866320499
FDg:_NumberFormatter_AppendIntegerStringWithGroupSeparator_m1401773574
Y_f:_List_1_Remove_m1237648310_gshared
u9g:_CipherSuite_get_ServerHMAC_m3566778727
wqi:__ZL64DebuggerBrowsableState_t944457511_CustomAttributesCacheGeneratorP21CustomAttributesCache
Af:_JS_Sound_Play
YRk:__ZL25UnresolvedVirtualCall_174P12Il2CppObject23RaycastResult_t21186376S1_PK10MethodInfo
Wxg:_Image_IsRaycastLocationValid_m864962354
LFl:__ZNSt3__219__libcpp_asprintf_lEPPcP15__locale_structPKcz
hZb:__ZN9ShaderLab16SerializedShader8TransferI14SafeBinaryReadEEvRT_
Pva:__ZN5Mutex7TryLockEv
tZi:__Z51RuntimeInvoker_Int16_t4041245914_Decimal_t724701077PK10MethodInfoPvPS2_
HYj:_InternalEnumerator_1_get_Current_m2151132603_gshared
iuj:_Collision_get_collider_m3340328360
FE:__ZN7mecanim8skeleton13SkeletonAlignEPKNS0_8SkeletonERKN4math7_float4ES7_i
Lkb:__ZN14SafeBinaryRead21TransferSTLStyleArrayIN4core12basic_stringIcNS1_20StringStorageDefaultIcEEEEEEvRT_17TransferMetaFlags
$Kh:_RemotingConfiguration_RegisterWellKnownServiceType_m2491506630
xHi:__ZL89Screen_t786852042_CustomAttributesCacheGenerator_Screen_t786852042____height_PropertyInfoP21CustomAttributesCache
aF:__ZNK26AnimatorControllerPlayable34GetAnimatorStateInfoFromStateIndexEiiR17AnimatorStateInfo
Hui:__ZL55_TypeBuilder_t2783404358_CustomAttributesCacheGeneratorP21CustomAttributesCache
ASk:__ZL25UnresolvedVirtualCall_204P12Il2CppObjectPK10MethodInfo
gcb:__Z29StdTemplateConversionFunctionIayEbPvR14SafeBinaryRead
LFd:__ZNK5physx20NpRigidActorTemplateINS_13PxRigidStaticEE14getConstraintsEPPNS_12PxConstraintEjj
JYc:__ZN25MeshMTDGenerationCallbackD0Ev
aCg:_LayoutRebuilder_Initialize_m2671585490
JVf:_List_1_System_Collections_IList_IndexOf_m4061554721_gshared
a_:__ZN11UnityEngine15CloudWebService14DataDispatcher4StopEv
_zh:_ValueCollection_System_Collections_IEnumerable_GetEnumerator_m499957484_gshared
YZb:__ZNSt3__26vectorIN9ShaderLab20SerializedSubProgram12UAVParameterENS_9allocatorIS3_EEE8__appendEj
yPf:_Enumerator_System_Collections_IEnumerator_Reset_m4029239424_AdjustorThunk
d4f:_Collection_1_GetEnumerator_m434271983_gshared
YAk:_IntroMenu_ShowBackButton_m3460826588
avc:__ZN5IMGUI9GUIWindow5OnGUIER8GUIState
yKe:__ZN22BaseUnityConnectClient24OnSaveFileFromServerDoneERK8UnityStrS2_bi
UI:__ZN18StreamedBinaryReadILb0EE19TransferSTLStyleMapINSt3__23mapIj8UnityStrNS2_4lessIjEENS2_9allocatorINS2_4pairIKjS4_EEEEEEEEvRT_17TransferMetaFlags
Tec:__ZNK17AnimationCurveTplI11QuaternionfE8GetRangeEv
$ck:_LifetimeServices_set_LeaseTime_m1487876644
KVh:_ConstructorBuilder_not_supported_m3687319507
voi:__ZL48IList_t3321498491_CustomAttributesCacheGeneratorP21CustomAttributesCache
lDc:__Z33EmitSerializationCommandsForFieldI9JSONWriteEvR18TransferField_InfoR32SerializationCommandQueueBuilderRP20AllowNameConversions
Hkd:__ZN5physx12NpConstraint8comShiftEPNS_12PxRigidActorE
Zdf:_Single_System_IConvertible_ToInt64_m3555853323_AdjustorThunk
SXb:__Z23TransferScriptingObjectI19StreamedBinaryWriteILb0EEEvRT_P12Il2CppObjectP11Il2CppClassPK15MonoScriptCache
sPl:dynCall_iifiii
Fej:__Z48RuntimeInvoker_PersistentListenerMode_t857969000PK10MethodInfoPvPS2_
Ehj:__Z77RuntimeInvoker_Boolean_t3825574718_AspectModeU26_t218518220_Int32_t2071877448PK10MethodInfoPvPS2_
Yjl:__ZNK15dense_hashtableINSt3__24pairIK10KeyWrapperIP12Il2CppObjectEN6il2cpp2gc9CachedCCWEEES5_NS7_5utils11PointerHashIS3_EEN14dense_hash_mapIS5_S9_SD_NS0_8equal_toIS5_EENS0_9allocatorISA_EEE9SelectKeyESG_SI_E3endEv
d2i:__Z87RuntimeInvoker_Il2CppObject_Il2CppObject_Il2CppObject_Il2CppObject_StringU26_t638738783PK10MethodInfoPvPS2_
Dua:__Z21HasAlphaTextureFormat13TextureFormat
iV:__ZN12AudioManager6UpdateEv
Bua:__ZN14ImageReference9BlitImageERKS_NS_8BlitModeE
E1h:_MonoMethod_get_MethodHandle_m1882915015
Dx:__ZN8Animator12AddToManagerEv
Ksi:__ZL93ConstructorInfo_t2851816542_CustomAttributesCacheGenerator_ConstructorInfo_Invoke_m2144827141P21CustomAttributesCache
x4a:__ZNK9ShaderLab9IntShader6GetTagEib
lVc:__ZNK5physx2Gu16SupportLocalImplINS0_11ConvexHullVEE9doSupportERKNS_6shdfnd3aos5Vec3VERNS5_6FloatVESA_
dLb:__ZN23CachedSerializationDataD2Ev
gSc:__ZNK5physx3Cct13BoxController8getActorEv
Zob:__ZN14RenderSettings23VirtualRedirectTransferER14SafeBinaryRead
wHc:__ZNK13b2CircleShape5CloneEP16b2BlockAllocator
kml:__ZN6il2cpp2os10ThreadImpl15CurrentThreadIdEv
_8f:_Collection_1_System_Collections_IList_get_IsReadOnly_m4005091053_gshared
lD:__ZN30dense_hashtable_const_iteratorINSt3__24pairIKN11UnityEngine9Animation14GenericBindingENS3_10BoundIndexEEES4_NS3_25GenericBindingHashFunctorEN14dense_hash_mapIS4_S6_S8_NS3_30GenericBindingValueArrayUniqueE13stl_allocatorIS7_L18MemLabelIdentifier1ELi16EEE9SelectKeyESA_SD_E30advance_past_empty_and_deletedEv
rmc:__Z36Renderer_Set_Custom_PropSortingOrderP12Il2CppObjecti
hQe:_Array_InternalArray__ICollection_Contains_TisColor32_t874517518_m2818328910_gshared
Snb:__ZN17GlobalGameManager8TransferI17RemapPPtrTransferEEvRT_
Cde:__ZN5physx6shdfnd8internal8HashBaseIPNS_2Gu12TriangleMeshES5_NS0_4HashIS5_EENS1_11HashSetBaseIS5_S7_NS0_9AllocatorELb1EE6GetKeyES9_Lb1EE5eraseERKS5_
i4g:_AppDomainInitializer_EndInvoke_m4003801172
shi:_RaycastHit2D_get_point_m442317739
d6i:__Z72RuntimeInvoker_Il2CppObject_Il2CppObject_Decimal_t724701077_Il2CppObjectPK10MethodInfoPvPS2_
Kob:__ZN16LevelGameManager8TransferI18StreamedBinaryReadILb0EEEEvRT_
WDe:_UNITY_tt_face_load_fpgm
dEb:__ZN12InputManagerD0Ev
Vwl:__ZN6il2cpp6icalls8mscorlib6System11Diagnostics10StackTrace9get_traceEP15Il2CppExceptionib
Zrg:_DefaultControls_CreateUIObject_m2810394112
Cfj:__Z37RuntimeInvoker_FillMethod_t1640962579PK10MethodInfoPvPS2_
c9h:_GUIStyle_get_overflow_m1125058093
KHj:_ScrollRect_get_scrollSensitivity_m1160815603
fkf:_UnicodeEncoding_GetBytes_m1337660232
xNc:__ZN16Physics2DManager10CircleCastERK8Vector2ffS2_fiffPK10Collider2DbP12RaycastHit2Di
nnk:_SerializePrivateVariables__ctor_m806793207
dld:__ZN5physx2Sc9RigidCore20removeShapeFromSceneERNS0_9ShapeCoreEb
lke:__ZN5physx6shdfnd8internal8HashBaseINS0_4PairIKPKcjEES5_NS0_4HashIS5_EENS1_11HashMapBaseIS5_jS9_NS_7profile26WrapperReflectionAllocatorIjEEE6GetKeyESD_Lb1EE15reserveInternalEj
nAl:___ctype_b_loc
n5:__ZN13RuntimeStaticI11WindManagerE16StaticInitializeEPv
iFj:_VertexHelper_GetUIVertexStream_m3849188814
mYa:__ZNK19RenderEventsContext21ExecuteCommandBuffersEiR17ShaderPassContextRK15RenderNodeQueueP19ProfilerInformationi
gge:__ZN5physx11RTreeCooker18buildFromTrianglesERNS_2Gu5RTreeEPKNS_6PxVec3EjPKtPKjjRNS_6shdfnd5ArrayIjNSB_19ReflectionAllocatorIjEEEEPNS0_13RemapCallbackEfNS_17PxMeshCookingHint4EnumE
ofd:__ZN5physx6shdfnd5ArrayIPvNS0_15InlineAllocatorILj256ENS0_19ReflectionAllocatorINS_14NpArticulationEEEEEE15growAndPushBackERKS2_
a1f:_List_1_get_Count_m1249351212_gshared
y7j:_InternalEnumerator_1_get_Current_m747506907_AdjustorThunk
qsj:_Camera_get_eventMask_m4241372419
OAf:_Decimal_op_Implicit_m623319612
T6h:_GUILayoutUtility_LayoutFromEditorWindow_m1847418289
m9g:_CertificateValidationCallback2_BeginInvoke_m3996282202
qgh:_SslClientStream_get_ClientCertSelectionDelegate_m2316959461
Itf:_SynchronizedArrayListWrapper_get_SyncRoot_m1466044127
b9:__ZNK15MonoScriptCache7ReleaseEv
okg:_EventTrigger_OnPointerExit_m2119176877
n2d:__ZN5physx9PxTaskMgrC2EPNS_15PxCpuDispatcherEPNS_15PxGpuDispatcherEPNS_15PxSpuDispatcherE
Pg:_glBindTexture
a4f:_Collection_1_ClearItems_m3585785594_gshared
TAl:_snprintf
Geg:_ReadOnlyCollection_1_System_Collections_IList_get_IsReadOnly_m2918085566_gshared
TUi:__ZL84HorizontalOrVerticalLayoutGroup_t1968298610_CustomAttributesCacheGenerator_m_SpacingP21CustomAttributesCache
dUh:_Binder__ctor_m1361613966
rzg:_InputField_set_caretPosition_m888572237
dZh:_ILGenerator__cctor_m3943061018
Ysf:_ArrayListWrapper_Clone_m1506311066
J9g:_CipherSuite_set_Context_m4127897124
lLa:__ZN16UniformCacheGLES6CreateERK20GpuProgramParameters
JNj:_UTF8Encoding_Fallback_m811555654
FI:__ZN7mecanim12statemachine13StateConstant8TransferI24GenerateTypeTreeTransferEEvRT_
Pki:_ScriptableObject_t1975622470_marshal_pinvoke_cleanup
ijf:_Encoding_GetString_m1894033578
Vdg:_ReadOnlyCollection_1_System_Collections_IList_Clear_m1918003010_gshared
Yrk:_TextGenerator_t647235000_marshal_pinvoke_cleanup
TTl:_emscripten_glGetProgramInfoLog__wrapper
SKi:__ZL94Font_t4239498691_CustomAttributesCacheGenerator_Font_InvokeTextureRebuilt_Internal_m2007522718P21CustomAttributesCache
Nba:__ZN17PersistentManager23DestroyFromFileInternalEi
UIi:__ZL98Object_t1021602117_CustomAttributesCacheGenerator_Object_DoesObjectWithInstanceIDExist_m2570795274P21CustomAttributesCache
IKf:_Enum_ToString_m2112979707
xrk:_TextGenerator_ValidatedSettings_m1640214759
fwi:__ZL55SoapServices_t3397513225_CustomAttributesCacheGeneratorP21CustomAttributesCache
sIh:_MonoMethodMessage_get_MethodName_m3580519713
vF:__ZN26AnimatorControllerPlayable18PrepareForPlaybackERN7mecanim6memory9AllocatorE
vUd:__ZN5physx19PxsMaterialCombiner24combineIsotropicFrictionERKNS_15PxsMaterialDataES3_
PKf:_Enum_t2459695545_marshal_pinvoke_cleanup
ENj:_UTF8Encoding_GetBytes_m4170182058
a4e:_Mesh_GetAllocArrayFromChannel_TisColor32_t874517518_m2030100417_gshared
UBd:__ZN5physx22NpParticleBaseTemplateINS_16PxParticleSystemENS_16NpParticleSystemEE20lockParticleReadDataEv
Dla:__ZN22CreateGpuProgramOutputC2Ev
zci:_Object__ctor_m197157284
dOh:_ObjectManager_GetObject_m2241027343
yNg:_MemoryStream_InternalConstructor_m2423667240
zkk:_CapturingGroup_set_Index_m2175936006
MLl:__ZNSt13runtime_errorC2ERKNSt3__212basic_stringIcNS0_11char_traitsIcEENS0_9allocatorIcEEEE
EWi:__Z70RuntimeInvoker_Il2CppObject_Il2CppObject_Il2CppObject_SByte_t454417549PK10MethodInfoPvPS2_
qJh:_SoapMethodAttribute_SetReflectionObject_m3431595769
oee:__ZN5physx7Cooking16cookTriangleMeshERKNS_18PxTriangleMeshDescERNS_14PxOutputStreamE
ysj:_Camera_INTERNAL_set_rect_m610424166
oKj:_Slider_set_maxValue_m2951480075
_8b:__ZN8GUILayer12CleanupClassEv
Acd:__ZN5physx2Sc7ElementD0Ev
Nge:__ZN5physx6shdfnd10Foundation7releaseEv
pUk:__ZN6il2cpp2vm5Class4InitEP11Il2CppClass
x5:__ZN19ShaderPropertySheet27AddNewPropertyUninitializedERKN9ShaderLab16FastPropertyNameENS_12PropertyTypeEijj
dd:invoke_vidi
lec:__ZNK15GUIEventManager15GetEventAtIndexEi
pHe:__ZN2UI14CanvasRenderer17SyncDirtyElementsER8JobFence
rUb:__Z18Transfer_BlittableI18StreamedBinaryReadILb0EELb0ExEvRK29SerializationCommandArgumentsR31RuntimeSerializationCommandInfo
Qqg:_ColorBlock_op_Inequality_m1517672458
kll:__ZN6il2cpp5utils11StringUtils15StringDuplicateEPKc
pgl:__ZN6il2cpp2vm9Exception32GetPlatformNotSupportedExceptionEPKc
Wka:__ZNK9ShaderLab21ShaderRasterStateDesc16ToGfxRasterStateEPK19ShaderPropertySheetS3_R14GfxRasterState
Ryg:_InputField_set_onValueChange_m1749304609
C1a:__Z16RenderShadowMapsPK18ShadowMapJobHeaderR17ShaderPassContext
eRh:_CspParameters__ctor_m2480441577
Xyl:__ZN6il2cpp2os9EventImplC2Ebb
Bdk:_DynamicPropertyCollection_NotifyMessage_m840388347
Klk:_Uri_ParseUri_m5711497
AJ:__ZN4PPtrI13MonoBehaviourE8TransferI19StreamedBinaryWriteILb0EEEEvRT_
$pe:__ZN14SafeBinaryRead21TransferSTLStyleArrayINSt3__26vectorI8UnityStr13stl_allocatorIS3_L18MemLabelIdentifier34ELi16EEEEEEvRT_17TransferMetaFlags
dkb:__ZNK5Unity9Component26GetTypeInfoVirtualInternalEv
U5:__Z20IsMatrixBuiltinParamPKcPi
Y5i:__Z63RuntimeInvoker_Void_t1841601450_Il2CppObject_Decimal_t724701077PK10MethodInfoPvPS2_
RSi:__ZL108MaskableGraphic_t540192618_CustomAttributesCacheGenerator_MaskableGraphic_ParentMaskStateChanged_m3643747340P21CustomAttributesCache
tzj:_Playable_INTERNAL_CALL_GetInputInternal_m1720243548
P7b:__ZN8Renderer19PostInitializeClassEv
Cca:__ZN13RuntimeStaticINSt3__23mapINS0_12basic_stringIcNS0_11char_traitsIcEENS0_9allocatorIcEEEES7_NS0_4lessIS7_EE13stl_allocatorINS0_4pairIKS7_S7_EEL18MemLabelIdentifier12ELi16EEEEE16StaticInitializeEPv
ote:__ZN20TextRenderingPrivate15DynamicFontDataD2Ev
eZj:_InternalEnumerator_1_get_Current_m1943362081_AdjustorThunk
kvk:_Vector3_get_sqrMagnitude_m1814096310_AdjustorThunk
vFl:__ZNKSt3__27num_getIwNS_19istreambuf_iteratorIwNS_11char_traitsIwEEEEE15__do_get_signedIxEES4_S4_S4_RNS_8ios_baseERjRT_
yul:__ZN6il2cpp6icalls8mscorlib6System8Delegate23CreateDelegate_internalEP20Il2CppReflectionTypeP12Il2CppObjectP22Il2CppReflectionMethodb
wDl:__ZNSt3__214basic_iostreamIcNS_11char_traitsIcEEED0Ev
sUh:_Default_check_type_m2363631305
_Kb:__ZN18DelayedCallManager18CancelCallDelayed2E4PPtrI6ObjectEPF15CallObjectStatePS1_PvES7_
DVf:_List_1__cctor_m911493842_gshared
ueb:__ZN25ThreadsafeLinearAllocator10ReallocateEPvji
_Mb:__Z18Transfer_BlittableI14SafeBinaryReadLb1E11QuaternionfEvRK29SerializationCommandArgumentsR31RuntimeSerializationCommandInfo
Kid:__ZNK5physx18PxArticulationLink8isKindOfEPKc
JVe:_Array_InternalArray__IndexOf_TisRaycastHit2D_t4063908774_m3739817942_gshared
n2h:_MonoProperty_GetAccessors_m3704698731
w1i:__Z146RuntimeInvoker_Il2CppObject_Int32_t2071877448_Il2CppObject_ObjectU5BU5DU26_t3223402458_Il2CppObject_Il2CppObject_Il2CppObject_ObjectU26_t597476745PK10MethodInfoPvPS2_
noe:__Z25CreatePxMeshFromUnityMeshP4MeshbbRK10Matrix4x4f13TransformTypef
_tl:_GC_disable
nAb:__ZN10Matrix4x4f8TransferI14SafeBinaryReadEEvRT_
sn:FUNCTION_TABLE_vifiiiiiiiiiiiiiiiiii
QQg:_UnmanagedMemoryStream_ReadByte_m2501145010
DCh:_Dictionary_2__ctor_m406310120_gshared
ct:__ZN15SerializeTraitsI13dynamic_arrayIN11UnityEngine9Animation14GenericBindingELj4EEE19ResizeSTLStyleArrayERS4_i18MemLabelIdentifier
ZMh:_ObjectRecord_UnchainFixup_m3025030310
tF:__ZN14AvatarPlayback8StopTimeEv
RIl:__ZNSt3__28messagesIcED0Ev
Lmi:__ZL60MulticastDelegate_t3201952435_CustomAttributesCacheGeneratorP21CustomAttributesCache
Voe:__ZN14PhysicsManager7PRODUCEE18MemLabelIdentifier18ObjectCreationMode
f8b:__ZN19ShaderPropertySheet16SetVectorIndexedERKN9ShaderLab16FastPropertyNameEifRK8Vector4fNS_8SetFlagsE
Zra:__ZL14OnWorldStoppedv
ZVb:__Z18Transfer_BlittableI18StreamedBinaryReadILb1EELb0E8Vector3fEvRK29SerializationCommandArgumentsR31RuntimeSerializationCommandInfo
Paj:__Z35RuntimeInvoker_Playable_t3667545548PK10MethodInfoPvPS2_
Wgb:__ZN14CachingManager15ClearTempFolderEv
URi:__ZL61Image_t2042527209_CustomAttributesCacheGenerator_m_FillCenterP21CustomAttributesCache
qEa:__ZN7ApiGLES18ClearBufferSubDataEjN2gl12BufferTargetEll
KL:__ZN8Animator7SetBoolEib
Ejc:__Z37Camera_Get_Custom_PropAllCamerasCountv
Byb:__ZN14Texture2DArray8TransferI18StreamedBinaryReadILb0EEEEvRT_
emd:__ZN5physx15NpActorTemplateINS_18PxArticulationLinkEED2Ev
Jyc:__Z38Register_UnityEngine_GUIStyle_get_namev
RMg:_FileStreamAsyncResult__ctor_m1096228032
xye:_Split_Cubic
nb:invoke_fiiii
JHb:__ZNSt3__26vectorIN30RuntimeInitializeOnLoadManager15ClassMethodInfoE13stl_allocatorIS2_L18MemLabelIdentifier12ELi16EEE26__swap_out_circular_bufferERNS_14__split_bufferIS2_RS5_EE
Qng:_StandaloneInputModule_ProcessMouseEvent_m3840335260
dGf:_DBNull_System_IConvertible_ToSByte_m1228193074
I3f:_Collection_1__ctor_m2818834331_gshared
o3e:_Array_InternalArray__get_Item_TisUICharInfo_t3056636800_m3872982785_gshared
Zne:__Z19ExtractDataFromMeshR4MeshR13dynamic_arrayI8Vector3fLj4EERS1_ItLj2EES6_
cBj:_Playables_InternalDestroy_m3873600434
mml:__ZN6il2cpp2os10ThreadImpl22CreateForCurrentThreadEv
a7f:_Collection_1_Insert_m3041550124_gshared
ewf:_Hashtable_PutImpl_m3318435614
XJl:__ZNKSt3__25ctypeIcE9do_narrowEPKcS3_cPc
wnd:__ZN5physx2Sc16ArticulationCore26setMaxProjectionIterationsEj
pMg:_FileStream_FlushBuffer_m2594140542
n0c:__ZN26IntersectAnyVsMeshCallbackILi1ELb0EED2Ev
jzc:__Z64Register_UnityEngine_GUIStyle_GetFontInternalDuringLoadingThreadv
plj:__Z76RuntimeInvoker_Void_t1841601450_Int32U5BU5DU26_t1341332175_Int32_t2071877448PK10MethodInfoPvPS2_
aRc:__ZN15ContactFilter2D13ShouldCollideEP9b2FixtureS1_
jye:_ft_black_render
wql:__ZN6il2cpp2vm8Profiler12GCHeapResizeEx
ZQl:dynCall_viiifi
_Ha:__ZN18GfxFramebufferGLES20ActiveContextChangedEPP17RenderSurfaceBaseS2_
nDi:__ZL51TimeSpan_t3430258949_CustomAttributesCacheGeneratorP21CustomAttributesCache
WHa:__Z19PluginsRenderMarkeri
YIi:__ZL80Object_t1021602117_CustomAttributesCacheGenerator_Object_Instantiate_m2439155489P21CustomAttributesCache
dL:__ZN10HumanTrait18InitializeBoneNameEv
nCf:_Convert_ToSByte_m1570938941
g3k:__ZN6il2cpp2gc19AppendOnlyGCHashMapINSt3__24pairIPK14Il2CppAssemblyP11Il2CppClassEEP24Il2CppReflectionAssembly17ReflectionMapHashIS9_E19ReflectionMapEqualsIS9_EE11TryGetValueERKS9_PSB_
iVb:__Z29Transfer_Blittable_ArrayFieldI18StreamedBinaryReadILb0EEyEvRT_R9ArrayInfoRK23StaticTransferFieldInfo
GGh:_EqualityComparer_1_get_Default_m875724809_gshared
x$a:__ZN14qsort_internal6_QSortIP15RODataDepthPassi17ROSorterDepthPassEEvT_S4_T0_T1_
$hl:__ZNSt3__214__split_bufferIN6il2cpp2vm5Image20EmbeddedResourceDataERNS_9allocatorIS4_EEEC2EjjS7_
zVa:__ZN5Image13ReformatImageERK14ImageReferenceii13TextureFormatNS0_8BlitModeE
Tti:__ZL57DispIdAttribute_t607560947_CustomAttributesCacheGeneratorP21CustomAttributesCache
_N:__ZN12AudioManager17RemoveAudioSourceEP11AudioSource
kwj:_CullingGroup_Finalize_m3172731580
Obe:__ZNK5physx2Gu10ConvexMesh17getReferenceCountEv
$2e:_Array_InternalArray__get_Item_TisUInt64_t2909196914_m2580870875_gshared
OLd:__ZN5physx2Sc5Scene22setNbContactDataBlocksEj
I2g:_SecurityParser_OnEndElement_m2909940377
pW:__ZN5physx14PxLightCpuTask12addReferenceEv
PNc:__Z10b2DistanceP16b2DistanceOutputP14b2SimplexCachePK15b2DistanceInput
Ntb:__ZN21EnlightenSceneMapping8TransferI19StreamedBinaryWriteILb0EEEEvRT_
gkl:__ZN6il2cpp2gc16GarbageCollector19InitializeFinalizerEv
o6j:_InternalEnumerator_1_System_Collections_IEnumerator_get_Current_m3349211177_AdjustorThunk
Ruc:__ZN10GUIManager10DoGUIEventER10InputEventb
$9g:_Context_get_ClientWriteKey_m2235605337
dxi:__ZL66DESCryptoServiceProvider_t933603253_CustomAttributesCacheGeneratorP21CustomAttributesCache
arl:_GC_bl_init_no_interiors
pxl:__ZN6il2cpp2vm13LibraryLoader21SetFindPluginCallbackEPFPKcS3_E
P5:__Z20CalculateSqrDistanceRK8Vector3fRK4AABB
w0j:_InternalEnumerator_1_get_Current_m2415979394_AdjustorThunk
lgb:__Z20GetAssetBundlePrefixRKNSt3__212basic_stringIcNS_11char_traitsIcEENS_9allocatorIcEEEE
Foe:__ZN14PhysicsManager15ProcessContactsEv
RZc:__ZN21BoxTraceSegmentReport7onEventEjPj
rid:__ZN5physx2Sc21ArticulationJointCore13setSwingLimitEff
ZR:__Z32AudioMixerDuckingProcessCallbackP21UnityAudioEffectStatePfS1_jii
CVc:__ZL20HullProjectionCB_BoxRKN5physx2Gu13PolygonalDataERKNS_6PxVec3ERKNS_2Cm8Matrix34ERKNS7_23FastVertex2ShapeScalingERfSE_
cVh:_CustomAttributeTypedArgument_GetHashCode_m999147081_AdjustorThunk
kXi:__Z48RuntimeInvoker_Void_t1841601450_SByte_t454417549PK10MethodInfoPvPS2_
MNd:__ZN5physx17PxcNpMemBlockPool19releaseUnusedBlocksEv
zMg:_FileStream_Read_m3880951166
n_d:__ZN5physx14PxsAABBManager21selfCollideAggregatesEPKNS_19AggregateSortedDataE
JO:__ZN12AudioManager8TransferI24GenerateTypeTreeTransferEEvRT_
Boa:__Z25GetBytesFromTextureFormat13TextureFormat
yua:__ZN9Texture3D19UnloadFromGfxDeviceEb
v6d:__ZN5physx12_GLOBAL__N_112innerProductERKNS_14Px1DConstraintERS1_RKNS0_9MassPropsE
SIl:__ZNKSt3__28messagesIcE7do_openERKNS_12basic_stringIcNS_11char_traitsIcEENS_9allocatorIcEEEERKNS_6localeE
fOc:__ZNK10Collider2D12OverlapPointERK8Vector2f
oRe:_Array_InternalArray__ICollection_Remove_TisContactPoint_t1376425630_m2242111467_gshared
rPl:dynCall_iifff
v0a:__Z26FindForwardLightsForObjectR13dynamic_arrayIhLj1EEPK11CulledLightjRK12ActiveLightsRK10RenderNodebRK23FindForwardLightsParams
xj:_emscripten_webgl_init_context_attributes
Bt:__Z14resize_trimmedINSt3__26vectorIN13AnimationClip9PPtrCurveE13stl_allocatorIS3_L18MemLabelIdentifier25ELi16EEEEEvRT_j
QNc:__ZN9b2Simplex9ReadCacheEPK14b2SimplexCachePK15b2DistanceProxyRK11b2TransformS5_S8_
IAh:_Dictionary_2_Resize_m2532139610_gshared
apk:_StackTraceUtility__cctor_m1132099289
T_f:_List_1_IndexOf_m2019441835_gshared
BWd:__ZN5physx26PxcFrictionPatchStreamPairC2ERNS_17PxcNpMemBlockPoolE
QQj:_TimeSpan_Equals_m2029123271_AdjustorThunk
IZk:__ZN6il2cpp2vm13MetadataCache23GetInvokerMethodPointerEPK10MethodInfoPK20Il2CppGenericContext
wMa:__ZN9GfxDevice21RegisterNativeTextureE9TextureIDi16TextureDimension
HMf:_CultureInfo__ctor_m456863818
Kvl:__ZN6il2cpp6icalls8mscorlib6System10Reflection4Emit11TypeBuilder20create_generic_classEP27Il2CppReflectionTypeBuilder
v6k:__ZNK15dense_hashtableINSt3__24pairIK10KeyWrapperINS1_IPK12PropertyInfoP11Il2CppClassEEEjEES9_17ReflectionMapHashIS8_EN14dense_hash_mapIS9_jSD_19ReflectionMapEqualsIS8_ENS0_9allocatorISB_EEE9SelectKeyESG_SI_E13find_positionERSA_
P0k:__ZNSt3__26vectorIPK10MethodInfoNS_9allocatorIS3_EEE26__swap_out_circular_bufferERNS_14__split_bufferIS3_RS5_EE
Vga:__ZN12ScriptMapper10FindShaderERKNSt3__212basic_stringIcNS0_11char_traitsIcEENS0_9allocatorIcEEEE
XWf:_List_1_AsReadOnly_m1925066867_gshared
ZPf:_Enumerator_MoveNext_m2504790928_gshared
I7h:_GUISkin_set_button_m412653849
H0:__ZN3WWW20GetCachedErrorStringEv
Aok:_SliderState__ctor_m1096533539
q2b:__ZN12ScriptMapperD2Ev
sma:__ZNSt3__26__treeINS_12__value_typeI8UnityStrS2_EENS_19__map_value_compareIS2_S3_NS_4lessIS2_EELb1EEE13stl_allocatorIS3_L18MemLabelIdentifier1ELi16EEE7destroyEPNS_11__tree_nodeIS3_PvEE
dWl:b100
MOi:__ZL85AxisEventData_t1524870173_CustomAttributesCacheGenerator_U3CmoveDirU3Ek__BackingFieldP21CustomAttributesCache
Ynd:__ZNK5physx14NpSceneQueries10multiQueryINS_12PxOverlapHitEEEbRKNS_15MultiQueryInputERNS_13PxHitCallbackIT_EENS_7PxFlagsINS_9PxHitFlag4EnumEtEEPKNS_12PxQueryCacheERKNS_17PxQueryFilterDataEPNS_21PxQueryFilterCallbackEPNS_20BatchQueryFilterDataE
oBg:_LayoutElement_get_preferredWidth_m3246897845
exk:_X509Certificate_PEM_m49854707
_ne:__ZL21GetMeshLocationDetailR4Mesh
hnh:_X509BasicConstraintsExtension__ctor_m3320418592
owk:_ExtendedKeyUsageExtension_Decode_m901297139
Z_b:__Z32TransferEnumWithNameForceIntSizeI14SafeBinaryRead7FogModeEvRT_RT0_PKc17TransferMetaFlags
Urc:__Z52Register_UnityEngine_RenderTexture_Internal_GetWidthv
qpi:__ZL89SafeWaitHandle_t481461830_CustomAttributesCacheGenerator_SafeWaitHandle__ctor_m1710231470P21CustomAttributesCache
Ksl:_GC_check_leaked
$0b:__ZN9ShaderLab20SerializedSubProgram16TextureParameter8TransferI19StreamedBinaryWriteILb0EEEEvRT_
Gb:invoke_fiiiiiiiifiiiif
vZe:_Array_InternalArray__Insert_TisVector4_t2243707581_m1643342708_gshared
a9k:__ZN15dense_hashtableINSt3__24pairIK10KeyWrapperINS1_IPK14Il2CppAssemblyP11Il2CppClassEEEjEES9_17ReflectionMapHashIS8_EN14dense_hash_mapIS9_jSD_19ReflectionMapEqualsIS8_ENS0_9allocatorISB_EEE9SelectKeyESG_SI_EC2EjRKSD_RKSG_RKSK_
f9a:__Z18SkinGenericMathLibILi4ELb0ELb0EEvR12SkinMeshInfo
XDj:_Mask_OnSiblingGraphicEnabledDisabled_m865494155
Jjh:_KeysCollection_System_Collections_ICollection_get_SyncRoot_m2289369147
j_:__ZN11UnityEngine15CloudWebService16SessionContainer8AddEventEPNS0_14CloudEventInfoE
akc:__Z45Register_UnityEngine_Camera_set_targetTexturev
xLj:_Text_set_resizeTextMaxSize_m4034967714
Yoi:__ZL55GuidAttribute_t222072359_CustomAttributesCacheGeneratorP21CustomAttributesCache
y7h:_GUIStyle_SetDefaultFont_m2095841351
SUh:_CustomAttributeNamedArgument_Equals_m2691468532
Pil:__ZN15dense_hashtableI10KeyWrapperIP18Il2CppGenericClassES3_N6il2cpp8metadata22Il2CppGenericClassHashEN14dense_hash_setIS3_S6_NS5_25Il2CppGenericClassCompareENSt3__29allocatorIS3_EEE8IdentityES8_SB_E14squash_deletedEv
Vli:__ZL74String_t_CustomAttributesCacheGenerator_String_Concat_m3881798623____args0P21CustomAttributesCache
Zwi:__ZL103CryptoConfig_t896479599_CustomAttributesCacheGenerator_CryptoConfig_CreateFromName_m2169102076____args1P21CustomAttributesCache
Szb:__ZN10VertexData8TransferI14SafeBinaryReadEEvRT_
yhd:__ZN5physx19NpArticulationJointD0Ev
aQ:__ZN4FMOD8ChannelI8setDelayE14FMOD_DELAYTYPEjj
$xf:_Stack__ctor_m2410583781
$4k:__ZN6il2cpp2gc19AppendOnlyGCHashMapINSt3__24pairIPK10MethodInfoP11Il2CppClassEEP22Il2CppReflectionMethod17ReflectionMapHashIS9_E19ReflectionMapEqualsIS9_EE11TryGetValueERKS9_PSB_
agb:__ZN15SerializeTraitsINSt3__24pairI8UnityStrN11AssetBundle9AssetInfoEEEE8TransferI18StreamedBinaryReadILb0EEEEvRS5_RT_
Bpe:__Z59Register_UnityEngine_Physics_INTERNAL_CALL_Internal_Raycastv
l5k:__ZNK19ReflectionMapEqualsINSt3__24pairIPK10MethodInfoP11Il2CppClassEEEclERK10KeyWrapperIS7_ESC_
qUh:_Default_GetBetterMethod_m4255740863
VVh:_ConstructorBuilder_GetILGenerator_m1731893569
oKd:__ZNK5physx7NpScene17getFilterCallbackEv
joj:__Z48RuntimeInvoker_UIVertex_t1204258818_Il2CppObjectPK10MethodInfoPvPS2_
bil:__ZNSt3__214__split_bufferIN6il2cpp2vm5Image20EmbeddedResourceDataERNS_9allocatorIS4_EEED2Ev
_Hl:__ZNKSt3__210moneypunctIwLb0EE14do_frac_digitsEv
Z7:__ZL20SortItemByInstanceIDRKN18AwakeFromLoadQueue4ItemES2_
tme:__ZN5physx6shdfnd5ArrayIPvNS0_15InlineAllocatorILj256ENS0_19ReflectionAllocatorINS_24NpPtrTableStorageManager8PtrBlockILi16EEEEEEEE15growAndPushBackERKS2_
H_h:_TypeBuilder_create_runtime_class_m2719530260
Q6e:_RNGCryptoServiceProvider_RngClose_m2921734810
n9a:__Z26SkinVerticesGenericMathLibILi1ELb1ELb1EEvPKhiiiiPhiPKvS4_
nTe:_Array_InternalArray__IEnumerable_GetEnumerator_TisVector2_t2243707579_m829381124_gshared
sNe:__ZN20UnityConnectSettings8TransferI24GenerateTypeTreeTransferEEvRT_
dE:__ZN34BlobWriteTransferSTLStyleArrayImplI22OffsetPtrArrayTransferIbEEclERS1_17TransferMetaFlagsR9BlobWrite
SFi:__ZL199U3CCreateWhereIteratorU3Ec__Iterator1D_1_t2523986802_CustomAttributesCacheGenerator_U3CCreateWhereIteratorU3Ec__Iterator1D_1_System_Collections_Generic_IEnumeratorU3CTSourceU3E_get_Current_m517722874P21CustomAttributesCache
Hmj:__Z37RuntimeInvoker_LabelFixup_t4090909514PK10MethodInfoPvPS2_
Vbg:_ReadOnlyCollection_1_Contains_m1227826160_gshared
Qak:_GCHandle_GetHashCode_m1664905595_AdjustorThunk
QVg:_SimpleCollator_IsHalfKana_m4255579023
whh:_InternalAsyncResult_get_Count_m1291942796
E1f:_Collection_1_System_Collections_IList_Contains_m3365884450_gshared
tsd:__ZN5physx7NpShape13setRestOffsetEf
r9f:_Collection_1_set_Item_m3440986310_gshared
Y$g:_KeyGeneratedEventHandler_Invoke_m760006389
Xog:_BaseMeshEffect__ctor_m2843647600
l6g:_ASN1__ctor_m3688855288
Vsd:__ZN5physxL11getTriangleERKNS_2Gu12TriangleMeshEjPNS_6PxVec3EPKS4_PKvRKNS_2Cm8Matrix34Eb
UU:__ZN13AudioListener12CleanupClassEv
Tjl:__ZN15dense_hashtableINSt3__24pairIK10KeyWrapperIP12Il2CppObjectEN6il2cpp2gc9CachedCCWEEES5_NS7_5utils11PointerHashIS3_EEN14dense_hash_mapIS5_S9_SD_NS0_8equal_toIS5_EENS0_9allocatorISA_EEE9SelectKeyESG_SI_E9copy_fromERKSL_j
uje:__ZN14SafeBinaryRead21TransferSTLStyleArrayINSt3__26vectorIjNS1_9allocatorIjEEEEEEvRT_17TransferMetaFlags
Ubh:_ClientSessionInfo_Dispose_m2571428025
zda:__Z13GetIEnlightenv
mfh:_RecordProtocol_decryptRecordFragment_m2510859489
$td:__ZNK5physx7NpCloth16lockParticleDataEv
Bjg:_BaseRaycaster_get_sortOrderPriority_m3340181311
ZEb:__ZN11TimeManager8TransferI19StreamedBinaryWriteILb0EEEEvRT_
iNg:_DelegatePInvokeWrapper_ReadDelegate_t3184826381
NFi:__ZL91HashSet_1_t2624254809_CustomAttributesCacheGenerator_HashSet_1_OnDeserialization_m627602129P21CustomAttributesCache
wze:_compare_uni_maps
rEe:__ZL34RegisterModuleICalls_TextRenderingv
HLe:__ZN11UnityEngine15PlatformWrapper27GetGraphicsCapsSupportFlagsEv
GFe:__ZNSt3__218__insertion_sort_3IRPFbPN2UI6CanvasES3_EPS3_EEvT0_S8_T_
lmi:__ZL80Decimal_t724701077_CustomAttributesCacheGenerator_Decimal_op_Explicit_m714968249P21CustomAttributesCache
uHf:_Decimal_Equals_m1115043331
APd:__ZN5physx13NpRigidStatic9visualizeERNS_2Cm12RenderOutputEPNS_7NpSceneE
GTb:__ZN12NativeBufferI16Converter_StringE15SetupForWritingER9ArrayInfo
eYl:___cxa_end_catch__wrapper
xHl:__ZNSt3__210moneypunctIcLb0EED0Ev
Xj:_emscripten_glVertexAttrib3fv
wCd:__ZNK5physx22NpParticleBaseTemplateINS_16PxParticleSystemENS_16NpParticleSystemEE13getRestOffsetEv
WRd:__ZN5physx6shdfnd8PoolBaseINS_2Sc35ParticleElementRbElementInteractionENS0_19ReflectionAllocatorIS3_EEE15disposeElementsEv
tzh:_ValueCollection_System_Collections_Generic_ICollectionU3CTValueU3E_Clear_m231380274_gshared
Ekg:_Entry__ctor_m1176697586
IKg:_BinaryReader_ReadUInt32_m1363572147
uTg:_MonoType_get_Module_m3769241394
XBi:__ZL79Convert_t2607082565_CustomAttributesCacheGenerator_Convert_ToUInt32_m3391339025P21CustomAttributesCache
ooj:__Z37RuntimeInvoker_Enumerator_t1147558387PK10MethodInfoPvPS2_
s7a:__ZN13MonoBehaviour22DoScriptRebuildWarningEv
GLj:_Text_get_verticalOverflow_m3134063496
cel:__ZN6il2cpp6icalls8mscorlib6System5Array13ClearInternalEP11Il2CppArrayii
qbj:__Z155RuntimeInvoker_Boolean_t3825574718_Vector3_t2243707580_Vector3_t2243707580_RaycastHitU26_t1969197280_Single_t2076509932_Int32_t2071877448_Int32_t2071877448PK10MethodInfoPvPS2_
JEe:__Z38TextGenerator_Get_Custom_PropLineCountP12Il2CppObject
WZc:__ZN5physx2Gu26EPASupportMapPairLocalImplINS0_9TriangleVENS0_4BoxVEED0Ev
UNl:_llvm_cttz_i32
Cnh:_PublicKey_DecodeDSA_m1169363495
Zcl:__ZNK15dense_hashtableINSt3__24pairIK10KeyWrapperINS1_IP11Il2CppClassjEEES4_EES6_N6il2cpp8metadata14ArrayClassHashEN14dense_hash_mapIS6_S4_SB_NSA_17ArrayClassCompareENS0_9allocatorIS8_EEE9SelectKeyESD_SF_E12test_deletedEj
$vc:__ZN11IMGUIModule25GetGUIStyleScriptingClassEv
uCe:_tt_get_interface
OQh:_AsymmetricKeyExchangeFormatter__ctor_m3362140205
Ajh:_NameObjectCollectionBase_BaseGet_m667273025
uIe:__ZZN2UI14CanvasRenderer15InitializeClassEvEN32FunctorImpl_801kTransformChanged4CallEPviR11MessageData
x_d:__ZN5physx14PxsAABBManager16processBPResultsERKNS_20PxsComputeAABBParamsE
nFc:__ZN9JSONWrite8TransferI13dynamic_arrayIiLj4EEEEvRT_PKc17TransferMetaFlags
EYd:__ZN5physx23PxsBroadPhaseContextSapD2Ev
nge:__ZN5physx12SubSortQuickC2EPjPKNS_10PxBounds3VEjf
JJl:__ZNSt3__2L13utf8_to_utf16EPKhS1_RS1_PtS3_RS3_mNS_12codecvt_modeE
f7:__Z18ConvertUTF16toUTF8PPKtS0_PPhS2_15ConversionFlags
Epl:__ZN6il2cpp2os20PathErrnoToErrorCodeERKNSt3__212basic_stringIcNS1_11char_traitsIcEENS1_9allocatorIcEEEEi
gSj:_TypeLoadException__ctor_m1903359728
oOk:__ZL16my_g_bit_nth_msfj
txh:_Transform_1_BeginInvoke_m3014766640_gshared
Mjl:__ZN14dense_hash_mapI10KeyWrapperIP12Il2CppObjectEN6il2cpp2gc9CachedCCWENS4_5utils11PointerHashIS1_EENSt3__28equal_toIS3_EENSA_9allocatorINSA_4pairIKS3_S6_EEEEE15set_deleted_keyERSF_
O8a:__Z20DeformSkinnedMeshJobP12SkinMeshInfo
I4e:_KeySizes__ctor_m3526899007
DGg:_Int16_System_IConvertible_ToInt32_m191782913_AdjustorThunk
cSk:__ZL25UnresolvedVirtualCall_180P12Il2CppObject19Vector3_t2243707580S1_PK10MethodInfo
wkl:__ZN15dense_hashtableINSt3__24pairIK10KeyWrapperIP12Il2CppObjectEN6il2cpp2gc9CachedCCWEEES5_NS7_5utils11PointerHashIS3_EEN14dense_hash_mapIS5_S9_SD_NS0_8equal_toIS5_EENS0_9allocatorISA_EEE9SelectKeyESG_SI_E15insert_noresizeERKSA_
uNi:__ZL69ArgumentCache_t4810721_CustomAttributesCacheGenerator_m_FloatArgumentP21CustomAttributesCache
E2f:_Collection_1_CopyTo_m1578267616_gshared
Cif:_EncoderReplacementFallback__ctor_m2208438262
p7e:_RSACryptoServiceProvider__ctor_m2716420409
FUk:__ZN6il2cpp2vm5Class15GetInstanceSizeEPK11Il2CppClass
ZAh:_Dictionary_2__ctor_m871840915_gshared
$a:invoke_iiiifiiii
uNj:_UTF7Decoder_GetChars_m2790530452
MGc:__ZN9rapidjson8internal6u64toaEyPc
zHk:_EventFunction_1_BeginInvoke_m3064802067_gshared
FCi:__ZL67IndexOutOfRangeException_t3527622107_CustomAttributesCacheGeneratorP21CustomAttributesCache
zwd:__ZNK5physx2Sc9ClothCore16getRestPositionsEPNS_6PxVec4E
lVd:__ZN5physx20PxcSweepConvexConvexERKNS_11PxsCCDShapeES2_PKNS_12PxsRigidBodyES5_RKNS_11PxTransformES8_S8_S8_fRNS_6PxVec3ESA_RNS_10PxcNpCacheERNS_18PxcNpThreadContextEf
mLg:_Directory_GetFiles_m4036267478
eKf:_Enum_System_IConvertible_ToType_m2669300536
Gzd:__ZN5physx15PxsParticleDataD0Ev
CIa:__ZL19BlitFramebufferImplRN4gles23BlitFramebufferDrawQuadER9GfxDevice9TextureIDRK8Vector4f
uPb:__Z18Transfer_BlittableI17RemapPPtrTransferLb0EhEvRK29SerializationCommandArgumentsR31RuntimeSerializationCommandInfo
eee:__ZN5physx6shdfnd5ArrayIPvNS0_19ReflectionAllocatorIN17PxcPoolMallocData9PoolData8EEEE15growAndPushBackERKS2_
GWi:__Z44RuntimeInvoker_Byte_t3683104436_Il2CppObjectPK10MethodInfoPvPS2_
kcg:_ReadOnlyCollection_1_System_Collections_IList_Add_m2333231354_gshared
gBi:__ZL78Convert_t2607082565_CustomAttributesCacheGenerator_Convert_ToSByte_m2470292806P21CustomAttributesCache
vse:_UNITY_FT_List_Add
x_h:_OpCodes__cctor_m939885911
r7b:__ZN14Texture2DArray11InitTextureEiii13TextureFormatb
V7g:_PKCS1_RSASP1_m1748738009
lNh:_ObjectReader_ReadPrimitiveTypeValue_m3808038676
Ohe:__ZN5physx15PxGeometryQuery14getWorldBoundsERKNS_10PxGeometryERKNS_11PxTransformEf
Sfh:_RSASslSignatureDeformatter_SetHashAlgorithm_m4048969080
Oxd:__ZN5physx2Sc9ClothCore18setSolverFrequencyEf
Xmk:_UriParser_InitializeAndValidate_m251943319
x9e:_SymmetricAlgorithm_set_Padding_m3081984460
GEb:__ZN9InputAxis8TransferI18StreamedBinaryReadILb0EEEEvRT_
Ace:__ZN5physx2Gu11HeightField8requiresERNS_23PxProcessPxBaseCallbackE
$Oh:_StreamingContext_t1417235061_marshal_pinvoke_back
hVc:__ZN5physx2Gu16buildPartialHullERKNS0_13PolygonalDataEPNS0_12SupportLocalERNS0_14SeparatingAxesERKNS_6shdfnd3aos5Vec3VESC_
gsf:_ArrayList_RemoveAt_m2578928333
kgf:_String_ToString_m3226660001
qbg:_ReadOnlyCollection_1_System_Collections_IList_set_Item_m1233322304_gshared
vwk:_GeneralNames_get_DNSNames_m2721668874
WJf:_Enum_System_IConvertible_ToByte_m38374586
_ag:_ReadOnlyCollection_1_System_Collections_Generic_IListU3CTU3E_RemoveAt_m1592158292_gshared
rSl:_emscripten_glFrustum__wrapper
Mgd:__ZNK5physx2Sc16ArticulationCore17releaseDriveCacheERNS_9PxcFsDataE
Ffh:_ReceiveRecordAsyncResult_get_CompletedWithError_m2670396551
fHf:_Decimal_Equals_m1798565377
Pnb:__ZN17GlobalGameManager8TransferI24GenerateTypeTreeTransferEEvRT_
vsl:_GC_push_all
Y4c:__ZN5physx11NpAggregate7releaseEv
nSi:__ZL66InputField_t1631627530_CustomAttributesCacheGenerator_m_CaretColorP21CustomAttributesCache
gXh:_TypeBuilder_check_created_m2929267877
Ww:__ZN19StreamedBinaryWriteILb0EE8TransferIKN4math7_float3EEEvRT_PKc17TransferMetaFlags
$Ja:__ZN15TextureTFMethod20IsBoneCountSupportedEi
W7h:_GUISkin_set_horizontalScrollbarThumb_m2119687595
JJh:_ObjRef__ctor_m1486312270
uBf:_Convert_ToInt16_m416789348
gEf:_DateTime_System_IConvertible_ToSByte_m2575078084_AdjustorThunk
Xzh:_ValueCollection_System_Collections_Generic_ICollectionU3CTValueU3E_Remove_m2910793619_gshared
IPb:__Z22TransferField_NonArrayI17RemapPPtrTransfer27Converter_SimpleNativeClassI8GUIStyleEEvRK23StaticTransferFieldInfoR31RuntimeSerializationCommandInfoRT0_
cqj:_AnimatorStateInfo_IsTag_m1529621725_AdjustorThunk
nsd:__ZN5physx7NpShape12setMaterialsEPKPNS_10PxMaterialEt
Q5b:__ZNK17AnimationCurveTplIfE20EvaluateWithoutCacheEfRf
Dol:__ZN6il2cpp2os6Thread12QueueUserAPCEPFvPvES2_
Qjd:__ZNK5physx18NpArticulationLink13isSubordinateEv
pSe:_Array_InternalArray__IEnumerable_GetEnumerator_TisDictionaryEntry_t3048875398_m3498834924_gshared
yai:_GUIStyleState__ctor_m3611888666
p4f:_Collection_1_IsValidItem_m1304951912_gshared
Fcc:__ZN4Mesh10SetNormalsEPK8Vector3fj
d2h:_PropertyInfo__ctor_m1808219471
WRc:__Z66Register_UnityEngine_Physics2D_INTERNAL_CALL_GetRayIntersectionAllv
oAf:_Convert_ToDateTime_m4161927553
B7i:__Z76RuntimeInvoker_Void_t1841601450_RegexOptionsU26_t3063574985_SByte_t454417549PK10MethodInfoPvPS2_
mXh:_TypeBuilder_GetConstructors_m774120094
Pt:__ZN17AnimationCurveTplIfE8TransferI14SafeBinaryReadEEvRT_
cKl:__ZNKSt3__28numpunctIcE16do_thousands_sepEv
llk:_RegularExpression_set_GroupCount_m2991393456
O2c:__ZN5physx2Gu9RadixSortD2Ev
FLf:_Calendar_get_EraNames_m452820602
Uvb:__ZNSt3__26vectorIN15QualitySettings14QualitySettingENS_9allocatorIS2_EEE6assignIPS2_EENS_9enable_ifIXaasr21__is_forward_iteratorIT_EE5valuesr16is_constructibleIS2_NS_15iterator_traitsIS9_E9referenceEEE5valueEvE4typeES9_S9_
okb:__ZNK5Unity9Component10GetEnabledEv
L0c:__Z15raycast_capsuleRKN5physx10PxGeometryERKNS_11PxTransformERKNS_6PxVec3ES8_fNS_7PxFlagsINS_9PxHitFlag4EnumEtEEjPNS_12PxRaycastHitEbPFbRSD_PvESG_
RYa:__ZNK19ShaderPropertySheet11HasPropertyERKN9ShaderLab16FastPropertyNameE
RKa:__ZN14DrawBufferGLESI12VertexBuffer27VertexBufferUsageMapperGLESE8EndWriteEj
TDf:_DateTime_System_IConvertible_ToByte_m2670443498_AdjustorThunk
xyd:__ZNK5physx15NpActorTemplateINS_15PxParticleFluidEE14getOwnerClientEv
mRi:__ZL58FontData_t2614388407_CustomAttributesCacheGenerator_m_FontP21CustomAttributesCache
e2k:_il2cpp_class_get_image
znk:_SliderHandler__ctor_m1547880569_AdjustorThunk
hba:__Z16AsyncReadRequestP16AsyncReadCommand
YEi:__ZL81BigInteger_t925946153_CustomAttributesCacheGenerator_BigInteger__ctor_m4013661868P21CustomAttributesCache
o7d:__ZNK5physx34PxsSolverConstraintPostProcessTask7getNameEv
I5g:_BigInteger_op_Addition_m1734797151
hfj:__Z110RuntimeInvoker_Boolean_t3825574718_Vector2_t2243707579_Vector2_t2243707579_Single_t2076509932_SByte_t454417549PK10MethodInfoPvPS2_
rWc:__ZN5physx2Gu23distancePointBoxSquaredERKNS_6PxVec3ES3_S3_RKNS_7PxMat33EPS1_
Eme:__ZN5physx9NpPhysics20MeshDeletionListener28onGuMeshFactoryBufferReleaseEPKNS_6PxBaseEtb
l3f:_Collection_1_System_Collections_IList_set_Item_m3488446830_gshared
KXh:_EnumBuilder_CreateNotSupportedException_m62763134
Noh:_X509Chain_CheckRevocation_m2480313486
$5e:_RijndaelManagedTransform_TransformBlock_m2558865851
J3f:_Collection_1_System_Collections_Generic_ICollectionU3CTU3E_get_IsReadOnly_m4096071066_gshared
wEb:__ZN9InputAxis8TransferI14SafeBinaryReadEEvRT_
n8:__ZNK21ExecutionOrderManager30GetCustomAwakeFromLoadQueueForEPKN5Unity4TypeE
JJd:__ZNK5physx7NpScene9getActorsENS_7PxFlagsINS_15PxActorTypeFlag4EnumEtEEPPNS_7PxActorEjj
BOe:__Z27RegisterModule_UnityConnectv
rQf:_Enumerator_Dispose_m3717265706_AdjustorThunk
vBd:__ZN5physx15PxParticleFluidD0Ev
ARd:__ZN5physx11NodeManagerD0Ev
Dyl:__ZN6il2cpp2os20ThreadLocalValueImpl8SetValueEPv
$xh:_Enumerator__ctor_m908409898_gshared
Prj:_Bounds_get_size_m1728027642_AdjustorThunk
yKh:_RealProxy__ctor_m3041043303
ZCg:_NumberFormatter_Init_m2654758994
A5c:__ZNK5physx2Sc8BodyCore6getSimEv
pLl:__ZNSt3__214__split_bufferIPNS_6locale5facetERNS_15__sso_allocatorIS3_Lj28EEEEC2EjjS6_
sne:__ZNK5physx2Gu15HeightFieldUtil18getVertexFaceIndexEjjj
Jtk:_Transform_Rotate_m2449860094
Vjl:__ZN15dense_hashtableINSt3__24pairIK10KeyWrapperIP12Il2CppObjectEN6il2cpp2gc9CachedCCWEEES5_NS7_5utils11PointerHashIS3_EEN14dense_hash_mapIS5_S9_SD_NS0_8equal_toIS5_EENS0_9allocatorISA_EEE9SelectKeyESG_SI_E8min_sizeEjj
wR:__ZN10ObjectPoolIN4FMOD12ChannelGroupENS0_13ChannelGroupIEE7SetSizeEi
NYg:_PrimalityTest_BeginInvoke_m966469054
Reg:_ReadOnlyCollection_1_System_Collections_Generic_ICollectionU3CTU3E_Clear_m1785953911_gshared
iLc:__ZNSt3__26__sortIR26ColliderIdentityComparitorPP10Collider2DEEvT0_S6_T_
hVj:_UInt64_System_IConvertible_ToInt16_m2797150165_AdjustorThunk
gFh:_DefaultComparer__ctor_m2036092614_gshared
N2e:_Array_InternalArray__get_Item_TisLabelData_t3712112744_m863115768_gshared
hIg:_Int32_Parse_m753946802
lw:__ZN18StreamedBinaryReadILb0EE21TransferSTLStyleArrayI22OffsetPtrArrayTransferIN7mecanim9animation10ValueDeltaEEEEvRT_17TransferMetaFlags
Oci:_Material_DisableKeyword_m1204728089
f0:__Z22ValidateTlsfAllocationPvjiS_
hja:__ZN18StreamedBinaryReadILb1EE21TransferSTLStyleArrayINSt3__212basic_stringIcNS2_11char_traitsIcEE13stl_allocatorIcL18MemLabelIdentifier1ELi16EEEEEEvRT_17TransferMetaFlags
trd:__ZN5physx2Cm12RefCountable14onRefCountZeroEv
ZG:__ZN15SerializeTraitsINSt3__24pairI8StateKey10StateRangeEEE8TransferI14SafeBinaryReadEEvRS4_RT_
a$h:_UnmanagedMarshal_ToMarshalAsAttribute_m3695569337
Jud:__ZNK5physx7NpCloth25getMotionConstraintConfigEv
cOb:__Z14resize_trimmedINSt3__26vectorI17AnimationCurveTplIfE13stl_allocatorIS3_L18MemLabelIdentifier1ELi16EEEEEvRT_j
GSk:__ZL25UnresolvedVirtualCall_210P12Il2CppObject38CustomAttributeNamedArgument_t94157543PK10MethodInfo
kjb:__Z12GUIDToStringRK9UnityGUID
mBg:_LayoutElement_get_minHeight_m2070403283
vll:__ZN6il2cpp6icalls8mscorlib6System4Enum12get_hashcodeEP12Il2CppObject
FN:__ZN11SoundHandleC2ERKS_
YDj:_Mask_OnEnable_m501850981
SCc:__ZN8JSONRead21TransferSTLStyleArrayI13dynamic_arrayI10ColorRGBAfLj4EEEEvRT_18MemLabelIdentifier17TransferMetaFlags
jtj:_Canvas_get_targetDisplay_m316548313
zG:__ZN18AnimatorController23VirtualRedirectTransferER18StreamedBinaryReadILb0EE
VId:__ZThn8_N5physx2Sc24ElementInteractionMarker7destroyEv
x2b:__ZN12ScriptMapper23VirtualRedirectTransferER18StreamedBinaryReadILb1EE
sv:__ZN11Quaternionf8TransferI18StreamedBinaryReadILb1EEEEvRT_
Ibb:__Z29StdTemplateConversionFunctionItxEbPvR14SafeBinaryRead
fdk:_FormatterData__ctor_m3974986124
jri:__ZL64FileNotFoundException_t4200667904_CustomAttributesCacheGeneratorP21CustomAttributesCache
WAj:_CustomAnimationPlayable_SetInputs_m1393448423
Z5e:_RijndaelManagedTransform_get_CanReuseTransform_m3735256596
B2c:__ZN5physx3Cct26CharacterControllerManager24setOverlapRecoveryModuleEb
lvf:_Comparer__cctor_m1327316974
hLg:_MonoIO_ExistsFile_m1421941572
qFf:_DateTime_op_GreaterThanOrEqual_m3818963848
mya:__ZNSt3__26__treeINS_12__value_typeI18VertexChannelsInfoP17VertexDeclarationEENS_19__map_value_compareIS2_S5_NS_4lessIS2_EELb1EEE13stl_allocatorIS5_L18MemLabelIdentifier14ELi16EEE12__find_equalIS2_EERPNS_16__tree_node_baseIPvEENS_21__tree_const_iteratorIS5_PNS_11__tree_nodeIS5_SG_EEiEESJ_RKT_
QL:__ZNSt3__212basic_stringIcNS_11char_traitsIcEE13stl_allocatorIcL18MemLabelIdentifier66ELi16EEE6resizeEjc
asg:_DefaultControls_SetDefaultTextValues_m1707718380
_ng:_TouchInputModule_UseFakeInput_m2112019004
Ujg:_EventSystem_get_baseEventDataCache_m4294741599
CNl:___cxa_guard_release
cpb:__ZN14RenderSettings18TransferDeprecatedI14SafeBinaryReadEEvRT_
fYc:__ZN24ConvexVsHeightfieldSweepD0Ev
z3g:__ZN6il2cpp2vm13ComObjectBaseI34__Il2CppComDelegate_t3311706788CCW18Il2CppIInspectableNS0_7details6ComNilES5_S5_S5_S5_S5_S5_ED2Ev
L2:__ZN12TLSAllocatorI14StackAllocatorE8AllocateEji
q9:__ZN16ScriptingManager18GetMonoScriptCacheEi
W5h:_GUIStyle_get_stretchHeight_m3396762700
oPa:__ZN20ArchiveStorageHeader13GetDataOffsetERKNS_6HeaderE
KXk:__ZN13dynamic_arrayIPK10Il2CppTypeLj4EEC2ERKS3_
pwg:_GridLayoutGroup_CalculateLayoutInputHorizontal_m2355123124
KFi:__ZL84Locale_t4255929017_CustomAttributesCacheGenerator_Locale_GetText_m512920887____args1P21CustomAttributesCache
pNb:__Z18Transfer_BlittableI14SafeBinaryReadLb1EyEvRK29SerializationCommandArgumentsR31RuntimeSerializationCommandInfo
ZAc:__ZN8JSONRead8TransferIfEEvRT_PKc17TransferMetaFlagsb
vJi:__ZL105Physics_t634932869_CustomAttributesCacheGenerator_Physics_Raycast_m3475924638____queryTriggerInteraction4P21CustomAttributesCache
QI:__ZN25RuntimeAnimatorController8TransferI17RemapPPtrTransferEEvRT_
kt:__ZN14SafeBinaryRead21TransferSTLStyleArrayI19StaticArrayTransferIiLi155EEEEvRT_17TransferMetaFlags
JLd:__ZNK5physx2Sc10NPhaseCore39getDefaultContactReportStreamBufferSizeEv
Jfg:_ReadOnlyCollection_1_System_Collections_ICollection_get_IsSynchronized_m4063596282_gshared
bMl:__ZNSt3__212basic_stringIcNS_11char_traitsIcEENS_9allocatorIcEEE6appendEPKcj
bsi:__ZL54TypeBuilder_t3308873219_CustomAttributesCacheGeneratorP21CustomAttributesCache
uvd:__ZN5physx7NpCloth25setSelfCollisionStiffnessEf
TUd:__ZZN5physx28PxcSweepEstimateAnyShapeMeshERKNS_11PxsCCDShapeES2_PKNS_12PxsRigidBodyES5_RKNS_11PxTransformES8_fEN2CBD0Ev
d5f:_Collection_1_CheckWritable_m691269733_gshared
mYh:_GenericTypeParameterBuilder_GetAttributeFlagsImpl_m3338182267
NW:__ZN13Simd4iFactoryIN6detail9FourTupleEEC2Eiiii
GPg:_SynchronizedReader__ctor_m1408327515
Bzk:_X509Store_LoadCrl_m1146720614
f3:__ZL41FileEntryInfoListToFolderContentsAbsoluteRK13dynamic_arrayI13FileEntryInfoLj8EERNSt3__23setINS4_12basic_stringIcNS4_11char_traitsIcEENS4_9allocatorIcEEEENS4_4lessISB_EENS9_ISB_EEEE
unj:__Z54RuntimeInvoker_KeyValuePair_2_t3716250094_Il2CppObjectPK10MethodInfoPvPS2_
Jgg:_ReadOnlyCollection_1_System_Collections_IList_Clear_m1858417639_gshared
$Lc:__ZN10Collider2D14FinalizeCreateERK10Matrix4x4fR12b2FixtureDefP6b2BodyPK13dynamic_arrayIP7b2ShapeLj4EE
ISa:__ZZ23InitPlayerLoopCallbacksvEN38PostLateUpdateShaderHandleErrorsstruct7ForwardEv
btb:__ZN15SerializeTraitsI33EnlightenTerrainChunksInformationE8TransferI14SafeBinaryReadEEvRS0_RT_
Mz:__ZN7mecanim9animation16MotionOutputCopyEPNS0_12MotionOutputEPKS1_bbRKNS_6bitsetILj66EEE
jpd:__ZN5physx2Sc14ConstraintCoreD2Ev
WOc:__ZN6b2Body12SetTransformERK6b2Vec2f
c8b:__ZNK32RendererMaterialAnimationBinding9BindValueER6ObjectRKN11UnityEngine9Animation14GenericBindingERNS3_10BoundCurveE
T$i:__Z112RuntimeInvoker_Int32_t2071877448_Il2CppObject_Int32_t2071877448_Int32_t2071877448_Il2CppObject_Int32_t2071877448PK10MethodInfoPvPS2_
hmd:__ZN5physx15NpActorTemplateINS_18PxArticulationLinkEE13setActorFlagsENS_7PxFlagsINS_11PxActorFlag4EnumEtEE
w9a:__Z13GetIAnimationv
Uua:__ZL18stbir__support_onef
Ode:__ZN5physx6shdfnd8internal8HashBaseIPNS_11PxAggregateES4_NS0_4HashIS4_EENS1_11HashSetBaseIS4_S6_NS0_9AllocatorELb0EE6GetKeyES8_Lb0EE15reserveInternalEj
RTf:_List_1_System_Collections_IList_Remove_m2040310137_gshared
Zgk:_Match_get_Regex_m3526002767
vri:__ZL49Stream_t3255436806_CustomAttributesCacheGeneratorP21CustomAttributesCache
tDc:__Z26Transfer_UnityEngineObjectI9JSONWriteLb0EEvRK29SerializationCommandArgumentsR31RuntimeSerializationCommandInfo
Gif:_EncoderReplacementFallback_CreateFallbackBuffer_m3579126537
oUj:_UInt32_System_IConvertible_ToInt16_m2251335934_AdjustorThunk
DGe:__ZNSt3__27__sort5IRNS_6__lessIN2UI14DepthSortEntryES3_EEPS3_EEjT0_S7_S7_S7_S7_T_
uWi:__Z31RuntimeInvoker_Void_t1841601450PK10MethodInfoPvPS2_
Cnf:_Boolean_System_IConvertible_ToType_m3990189691
D5k:__ZN24dense_hashtable_iteratorINSt3__24pairIK10KeyWrapperINS1_IPK10MethodInfoP11Il2CppClassEEEjEES9_17ReflectionMapHashIS8_EN14dense_hash_mapIS9_jSD_19ReflectionMapEqualsIS8_ENS0_9allocatorISB_EEE9SelectKeyESG_SI_E30advance_past_empty_and_deletedEv
h6k:__ZNSt3__218uninitialized_copyIPNS_4pairIK10KeyWrapperINS1_IPK11Il2CppImageP11Il2CppClassEEEjEESC_EET0_T_SE_SD_
Ha:invoke_vdd
wo:FUNCTION_TABLE_fiii
r3j:_InternalEnumerator_1_Dispose_m3838127340_AdjustorThunk
Ndj:__Z36RuntimeInvoker_FontStyle_t2764949590PK10MethodInfoPvPS2_
xJf:_Double_System_IConvertible_ToUInt32_m624993430
Ao:FUNCTION_TABLE_fiif
gPi:__ZL89PointerEventData_t1599784723_CustomAttributesCacheGenerator_U3CdraggingU3Ek__BackingFieldP21CustomAttributesCache
C6b:__ZNK30SpriteRendererAnimationBinding12GetPPtrValueERKN11UnityEngine9Animation10BoundCurveE
lGl:__ZNKSt3__220__time_get_c_storageIcE7__am_pmEv
LPj:_Scheduler_Add_m376749205
fYi:__Z98RuntimeInvoker_Void_t1841601450_Int32_t2071877448_Il2CppObject_Int32_t2071877448_Int32_t2071877448PK10MethodInfoPvPS2_
lxl:__ZN6il2cpp6icalls8mscorlib4Mono8Security12Cryptography18KeyPairPersistence19_IsMachineProtectedEP12Il2CppString
EEl:__ZNSt3__215__num_get_floatIeEET_PKcS3_Rj
Qvj:_ContactPoint2D_t3659330976_marshal_pinvoke_cleanup
f7b:__Z14RandomRotationP9Texture2DPhiiii
WUg:_OutOfMemoryException__ctor_m1932883273
V1j:_InternalEnumerator_1_MoveNext_m1594563423_AdjustorThunk
ole:__ZThn132_N5physx7profile8ZoneImplINS_28PxProfileNameProviderForwardEED1Ev
MPb:__Z65EmitSerializationCommandsForLinearCollectionOfManagedObjectsFieldI17RemapPPtrTransferEvRK23TransferArrayField_InfoR20SerializationCommandR32SerializationCommandQueueBuilderRP20AllowNameConversions
fij:__Z76RuntimeInvoker_Boolean_t3825574718_DirectionU26_t743901654_Int32_t2071877448PK10MethodInfoPvPS2_
xNh:__ZN16VirtFuncInvoker0ItE6InvokeEjPv
C0i:__Z35RuntimeInvoker_TimeSpan_t3430258949PK10MethodInfoPvPS2_
nXk:__ZN15dense_hashtableI10KeyWrapperIPK19Il2CppGenericMethodES4_N6il2cpp8metadata23Il2CppGenericMethodHashEN14dense_hash_setIS4_S7_NS6_26Il2CppGenericMethodCompareENSt3__29allocatorIS4_EEE8IdentityES9_SC_E8min_sizeEjj
BYf:_List_1_System_Collections_IList_Insert_m2036969360_gshared
Ozg:_InputField_GetUnclampedCharacterLineFromPosition_m1912794077
Dok:_SpaceAttribute__ctor_m1444406696
gKd:__ZN5physx7NpScene27setCCDContactModifyCallbackEPNS_26PxCCDContactModifyCallbackE
HMg:_ReadDelegate__ctor_m885671467
Ree:__ZNK5physx17ConvexHullBuilder17ComputeGeomCenterERNS_6PxVec3E
PFf:_DateTimeOffset_ToString_m2121173678_AdjustorThunk
tFi:__ZL50X509Crl_t1699034837_CustomAttributesCacheGeneratorP21CustomAttributesCache
eZd:__ZN3MBPD0Ev
Y_:__ZNK13EmscriptenWWW14GetPartialDataEv
AYl:_glDeleteProgram__wrapper
_jc:__Z50Register_UnityEngine_Camera_INTERNAL_get_pixelRectv
lra:__ZN19RuntimeSceneManager14LoadSceneAsyncERK8UnityStrS2_S2_RK9UnityGUIDiNS_11LoadingModeEbRP10UnityScene
dij:__Z53RuntimeInvoker_UIVertex_t1204258818_Int32_t2071877448PK10MethodInfoPvPS2_
Nuj:_Color_GetHashCode_m3182525367
Dpa:__ZN6prcoreL18BlitFloatToIntegerERK14ImageReferenceRS0_
Ulj:__Z57RuntimeInvoker_KeyValuePair_2_t38854645_Int32_t2071877448PK10MethodInfoPvPS2_
q2g:_X509CertificateCollection_get_Item_m410866272
D5h:_Rect_get_yMax_m2915146103
MJk:_EqualityComparer_1_System_Collections_IEqualityComparer_Equals_m1705945391_gshared
nNd:__ZNK5physx10PxsContext18getBounceThresholdEv
$Il:__ZNSt3__217__widen_from_utf8ILj32EED0Ev
mPc:__ZN7b2Timer5ResetEv
zZ:__ZN11UnityEngine15CloudWebService14RestDownloader17OnCompleteContentEv
Jwg:_LayoutGroup_SetChildAlongAxis_m1615929339
pBk:_LobsterProjectile_Kill_m710524201
pId:__ZN5physx6shdfnd5ArrayIPvNS0_15InlineAllocatorILj256ENS0_19ReflectionAllocatorINS_2Gu31SpherePersistentContactManifoldEEEEEE15growAndPushBackERKS2_
w9d:__ZN5physx2Cm18DelegateFanoutTaskINS_2Sc5SceneEXadL_ZNS3_17finalizationPhaseEPNS_10PxBaseTaskEEEE11runInternalEv
wpl:__ZNK15dense_hashtableINSt3__24pairIK10KeyWrapperIPK19Il2CppGenericMethodEP10MethodInfoEES6_N6il2cpp8metadata23Il2CppGenericMethodHashEN14dense_hash_mapIS6_S9_SD_NSC_26Il2CppGenericMethodCompareENS0_9allocatorISA_EEE9SelectKeyESF_SH_E13find_positionERS7_
w$f:_List_1_System_Collections_ICollection_get_SyncRoot_m1429670979_gshared
bb:invoke_vifff
NYj:_InternalEnumerator_1__ctor_m2111763266_gshared
qpf:_Byte_System_IConvertible_ToInt16_m1575115635_AdjustorThunk
uzd:__ZN5physx15NpParticleFluid15exportExtraDataERNS_22PxSerializationContextE
eXl:_glGetVertexAttribiv__wrapper
bld:__ZN5physx6shdfnd15atomicDecrementEPVi
zf:_emscripten_request_fullscreen
q9d:__ZN5physx2Cm12DelegateTaskINS_2Sc5SceneEXadL_ZNS3_11postCCDPassEPNS_10PxBaseTaskEEEED0Ev
A5h:_Rect_get_xMin_m1161102488
S1:__ZN20LocalFileSystemWebGL6DeleteER13FileEntryDatab
TGf:_Decimal_System_IConvertible_ToUInt16_m1621568250
Bf:_emscripten_glDisableVertexAttribArray
WIi:__ZL79Object_t1021602117_CustomAttributesCacheGenerator_Object_Instantiate_m938141395P21CustomAttributesCache
ro:FUNCTION_TABLE_iiiifiiii
GQj:_TimeSpan_get_TotalMinutes_m1645177229_AdjustorThunk
Ac:invoke_fifffi
kQ:__ZN4FMOD5Sound15getNumSubSoundsEPi
HEa:__ZN4gles23ClearCurrentFramebufferEP7ApiGLESbbbRK10ColorRGBAffi
KA:__ZN7mecanim12statemachine20CreateStateWorkspaceEjjjRNS_6memory9AllocatorE
BJe:__Z64Register_UnityEngine_CanvasRenderer_SplitIndiciesStreamsInternalv
n9i:__Z34RuntimeInvoker_Vector3_t2243707580PK10MethodInfoPvPS2_
xee:__ZN5physx2Gu11HeightField13releaseMemoryEb
Mf:_emscripten_glDeleteObjectARB
Hg:_IMG_Load
yQg:_UnexceptionalStreamReader_Read_m3839775235
Uqa:__ZN6prcoreL27StretchGenericFloatBilinearI18TexFormatARGBFloatEEvPKNS_9InnerInfoE
NNa:__ZN10FileSystem25MountDataFolderFileSystemERKNSt3__212basic_stringIcNS0_11char_traitsIcEENS0_9allocatorIcEEEES8_
Wrc:__Z53Register_UnityEngine_RenderTexture_Internal_GetHeightv
NKh:_RealProxy_SetTargetDomain_m3940877656
eKi:__ZL97Physics2D_t2540166467_CustomAttributesCacheGenerator_Physics2D_Linecast_m3607674036____layerMask2P21CustomAttributesCache
Eqa:__ZN6prcoreL17RemapGenericFloatI17TexFormatRGBAHalf18TexFormatARGBFloatEEvPKNS_9InnerInfoE
aKf:_Enum_System_IConvertible_ToInt32_m2459904362
Dvc:__ZNK8GUIStyle21DrawWithTextSelectionER8GUIStateRK5RectTIfER10GUIContentbbbbbiiRK10ColorRGBAfSA_
Lfc:__ZN10systeminfo21SupportsAccelerometerEv
Rvc:__Z14GetBuiltinSkini
nif:_DecoderReplacementFallbackBuffer_Reset_m2576819665
sAj:_CustomAnimationPlayable_GetOutput_m2109551724
ywf:_Enumerator__cctor_m298562758
sLk:_Enumerator_System_Collections_IEnumerator_Reset_m2573763156_gshared
JSg:_MonoType_GetConstructors_internal_m2709619723
wcf:_WindowsIdentity_Dispose_m2649088337
Bwb:__ZN2UI13RectTransform23VirtualRedirectTransferER14SafeBinaryRead
LQj:_TimeSpan_CompareTo_m2891128664
RKd:__ZN5physx7NpScene17flushQueryUpdatesEv
Gca:__ZNSt3__26__treeINS_12__value_typeINS_12basic_stringIcNS_11char_traitsIcEENS_9allocatorIcEEEES7_EENS_19__map_value_compareIS7_S8_NS_4lessIS7_EELb1EEE13stl_allocatorIS8_L18MemLabelIdentifier12ELi16EEE7destroyEPNS_11__tree_nodeIS8_PvEE
a3f:_Collection_1_System_Collections_IList_Contains_m323652826_gshared
dRf:_List_1_System_Collections_ICollection_get_SyncRoot_m3733894943_gshared
oWf:_List_1_Reverse_m302978607_gshared
nV:__ZZL31InitializeAudioManagerCallbacksvEN33FixedUpdateAudioFixedUpdatestruct7ForwardEv
$$b:__ZN24GenerateTypeTreeTransfer8TransferINSt3__23mapI8UnityStriNS1_4lessIS3_EENS1_9allocatorINS1_4pairIKS3_iEEEEEEEEvRT_PKc17TransferMetaFlags
j$b:__ZNSt3__26vectorIN9ShaderLab20SerializedSubProgramENS_9allocatorIS2_EEE6assignIPS2_EENS_9enable_ifIXaasr21__is_forward_iteratorIT_EE5valuesr16is_constructibleIS2_NS_15iterator_traitsIS9_E9referenceEEE5valueEvE4typeES9_S9_
JAc:__Z18Transfer_BlittableI8JSONReadLb0E8BitFieldEvRK29SerializationCommandArgumentsR31RuntimeSerializationCommandInfo
OLh:_SoapServices_RegisterInteropXmlType_m2949236705
iXf:_List_1_Remove_m1211693753_gshared
Kab:__ZN17PersistentManagerC2Eii
mxc:__Z46Register_UnityEngine_GUI_get_usePageScrollbarsv
XVb:__ZL17Transfer_GUIStyleI18StreamedBinaryReadILb1EELb0EEvRK29SerializationCommandArgumentsR31RuntimeSerializationCommandInfo
chf:_String_CharCopy_m2550399897
G3b:__ZN11TypeManager20RegisterNonClassTypeEiP4RTTIPKcS3_
hLd:__ZN5physx7NpScene10unlockReadEv
BZb:__ZN9ShaderLab14SerializedPass8TransferI14SafeBinaryReadEEvRT_
rxc:__Z71Register_UnityEngine_GUILayoutUtility_INTERNAL_CALL_Internal_MoveWindowv
dV:__ZN12AudioManager16SetListenerPauseEb
tHl:__ZNKSt3__28time_putIwNS_19ostreambuf_iteratorIwNS_11char_traitsIwEEEEE6do_putES4_RNS_8ios_baseEwPK2tmcc
D3f:_Collection_1_IsValidItem_m2254106115_gshared
wXh:_TypeBuilder_GetEvent_m3876348075
NKj:_Slider_OnMove_m641164662
da:invoke_viiiiiiiiiii
qzl:___syscall_ret
OPj:_Scheduler__ctor_m3716265742
r$g:_MACAlgorithm_Final_m4076939925
ral:__ZNSt3__212basic_stringIcNS_11char_traitsIcEENS_9allocatorIcEEE6assignINS_11__wrap_iterIPKcEEEENS_9enable_ifIXaasr21__is_forward_iteratorIT_EE5valuesr38__libcpp_string_gets_noexcept_iteratorISC_EE5valueERS5_E4typeESC_SC_
Feh:_TlsServerKeyExchange_ProcessAsSsl3_m462106368
OBb:__ZN11ChannelInfo8TransferI19StreamedBinaryWriteILb0EEEEvRT_
sZj:_InternalEnumerator_1_System_Collections_IEnumerator_get_Current_m3583252352_gshared
Fel:__ZN6il2cpp2vm14PlatformInvoke21SetFindPluginCallbackEPFPKcS3_E
mJb:__ZN23ArchiveStorageConverter24ReadHeaderFromMemoryFileEv
YWh:_EnumBuilder_get_FullName_m2818393911
Lwd:__ZN5physx2Sc9ClothCore22setFrictionCoefficientEf
WBc:__Z18Transfer_BlittableI8JSONReadLb1E10ColorRGBAfEvRK29SerializationCommandArgumentsR31RuntimeSerializationCommandInfo
Jqd:__ZNK5physx9NpPhysics17getNbConvexMeshesEv
FOg:_StreamAsyncResult_get_Done_m2858832609
EKd:__ZNK5physx7NpScene29getContactCorrelationDistanceEv
hmc:__Z34Register_UnityEngine_Gradient_Initv
Bgk:_DictionaryEnumerator_get_Entry_m1597857786
zKa:__Z26TransformVerticesInnerLoopILb1ELb1ELb0EEvPhRK10Matrix4x4fRK10Matrix3x3fjPKhiiiS8_ii25GfxTransformVerticesFlags
RIk:_ObjectPool_1_set_countAll_m1742773675_gshared
AOh:_SerializationEntry_get_Value_m1628109884_AdjustorThunk
rjg:_BaseInputModule_GetAxisEventData_m3903709281
a3e:_Array_InternalArray__get_Item_TisUriScheme_t1876590943_m1821482697_gshared
P$e:_Array_Sort_TisIl2CppObject_m1954851512_gshared
K4g:_BigInteger__ctor_m3239748086
l1:__ZN13ScreenManager23SetIsOrientationEnabledE18EnabledOrientationb
PPk:__ZL24UnresolvedVirtualCall_57P12Il2CppObjectiPK10MethodInfo
xBi:__ZL79Convert_t2607082565_CustomAttributesCacheGenerator_Convert_ToUInt16_m1043031438P21CustomAttributesCache
HEb:__ZN9InputAxis8TransferI19StreamedBinaryWriteILb0EEEEvRT_
kzc:__Z45Register_UnityEngine_GUIStyle_GetFontInternalv
f4c:__ZN5physx6shdfnd8SyncImpl4waitEj
C7f:_Collection_1_System_Collections_IList_get_IsFixedSize_m3946690039_gshared
wEh:_DefaultComparer_GetHashCode_m2506382068_gshared
Fvj:_Component_SendMessageUpwards_m19741277
WAk:_IntroMenu_BeginPage_m623540166
bJk:_EqualityComparer_1_System_Collections_IEqualityComparer_GetHashCode_m1012273405_gshared
bXe:_Array_InternalArray__ICollection_Add_TisHitInfo_t1761367055_m2956071622_gshared
oob:__Z28BuildSingleStreamChannelInfojRK20VertexChannelsLayoutjS1_P11ChannelInfo
N3j:_InternalEnumerator_1_MoveNext_m470170271_AdjustorThunk
U7a:__ZN10GameObject23VirtualRedirectTransferER18StreamedBinaryReadILb0EE
Onl:__ZN6il2cpp2gc16GarbageCollector13AllocateFixedEjPv
l7j:_InternalEnumerator_1_Dispose_m2270401482_AdjustorThunk
eMh:_ArrayFixupRecord_FixupImpl_m2377725358
ch:_glFrontFace
aOh:_ObjectRecord_get_IsUnsolvedObjectReference_m2202692850
orh:_FactoryCache_Cleanup_m4130035987
aW:__Z35AudioListener_Set_Custom_PropVolumef
wfe:__ZNK5physx20BigConvexDataBuilder4SaveERNS_14PxOutputStreamEbjPKNS_16HullTriangleDataE
xFb:__ZN13BuildSettings8TransferI18StreamedBinaryReadILb1EEEEvRT_
wMd:__ZN5physx13NpVolumeCache17getNbCachedShapesEv
E2a:__ZNSt3__26vectorI16ShadowCasterData13stl_allocatorIS1_L18MemLabelIdentifier2ELi16EEE21__push_back_slow_pathIKS1_EEvRT_
m0k:__ZN6il2cpp6icalls8mscorlib6SystemL16GetFieldFromTypeINS_5utils10functional6FilterINSt3__212basic_stringIcNS7_11char_traitsIcEENS7_9allocatorIcEEEENS4_11StringUtils23CaseInsensitiveComparerEEEEEP21Il2CppReflectionFieldP11Il2CppClassSK_iRKT_
RFh:_DefaultComparer_GetHashCode_m918846970_gshared
jtk:_Vector3_get_forward_m1201659139
Z$f:_List_1_Sort_m269561757_gshared
XEe:__Z51Register_UnityEngine_TextGenerator_GetLinesInternalv
peg:_ReadOnlyCollection_1_System_Collections_Generic_ICollectionU3CTU3E_Remove_m2970185170_gshared
NLk:_HashSet_1_Init_m1258286688_gshared
cwa:__ZN17PersistentManager12UnloadStreamERKNSt3__212basic_stringIcNS0_11char_traitsIcEENS0_9allocatorIcEEEEb
Lcb:__Z24CreateDirectoryRecursiveRKNSt3__212basic_stringIcNS_11char_traitsIcEENS_9allocatorIcEEEE
qcg:_ReadOnlyCollection_1_System_Collections_IList_RemoveAt_m525136953_gshared
uh:_strftime_l
HB:__ZN26AnimatorControllerPlayable27SetupStateMachineBehavioursEP6Object
Buj:_Collision2D_get_gameObject_m4234358314
Vpa:__ZN6prcoreL17RemapGenericFloatI17TexFormatRGBFloat18TexFormatRGBAFloatEEvPKNS_9InnerInfoE
RC:__Z16AppendPathToHashRKN7mecanim5crc32EPKc
EEc:__ZN6HelperI9JSONWrite23TransferArrayField_InfoE24SerializationFunctionForERKS1_R23StaticTransferFieldInfoPb
_Nd:__ZN5physx2Sc5Scene15getRenderBufferEv
XUj:_UInt64_System_IConvertible_ToBoolean_m3012279573_AdjustorThunk
n2i:__Z48RuntimeInvoker_Il2CppObject_StringU26_t638738783PK10MethodInfoPvPS2_
xYl:_glClearStencil__wrapper
LSj:_Type_get_IsGenericTypeDefinition_m2147901038
cOa:__ZN12HandlerChain10ToAbsoluteEPKc
paj:__Z36RuntimeInvoker_Matrix4x4_t2933234003PK10MethodInfoPvPS2_
vCg:_GregorianCalendar__ctor_m3794576475
NUj:_UInt32_TryParse_m4283512434
BKb:__ZN13MonoBehaviour23VirtualRedirectTransferER19StreamedBinaryWriteILb0EE
tN:__ZN9AudioClip11CreateSoundEv
MDb:__ZN8Material14DisableKeywordERKNSt3__212basic_stringIcNS0_11char_traitsIcEENS0_9allocatorIcEEEE
bwh:_ShimEnumerator_MoveNext_m3313047792_gshared
q4f:_Collection_1_ConvertItem_m2185647560_gshared
lRj:_TimeSpan_op_Inequality_m257547441
yOj:_ExecutionContext_GetObjectData_m1456913356
jjl:__ZN14dense_hash_setI10KeyWrapperIP18Il2CppGenericClassEN6il2cpp8metadata22Il2CppGenericClassHashENS5_25Il2CppGenericClassCompareENSt3__29allocatorIS3_EEE6insertERKS3_
Sei:_Object_set_hideFlags_m2204253440
Rnl:__ZN6il2cpp2gc16GarbageCollector21CallWithAllocLockHeldEPFPvS2_ES2_
QWh:_EnumBuilder_get_Assembly_m4285228003
QBa:__ZN13GfxDeviceGLES20CreateComputeProgramEPKhj
oEg:_DateTimeFormatInfo_get_RoundtripPattern_m562440017
cOe:__ZN11UnityEngine7Connect16PersistentValues13RestoreValuesER8JSONRead
EAi:__ZL76Convert_t2607082565_CustomAttributesCacheGenerator_Convert_ToByte_m791636053P21CustomAttributesCache
yFh:_DefaultComparer__ctor_m3947565964_gshared
cJf:_Double_System_IConvertible_ToByte_m3004284950_AdjustorThunk
TLh:_TypeEntry_get_AssemblyName_m1762285107
J4d:__ZNK5physx2Gu11HeightField17getHeightInternalEff
_ml:__ZN6il2cpp2vmL11GetIdentityEP14Il2CppIUnknown
tsl:_GC_push_gc_structures
YJd:__ZNK5physx7NpScene22getClientBehaviorFlagsEh
ord:__ZN5physx9NpFactory14createMaterialEfff
PWk:__ZN15dense_hashtableINSt3__24pairIK10KeyWrapperINS0_12basic_stringIcNS0_11char_traitsIcEENS0_9allocatorIcEEEEEP11Il2CppClassEES9_N6il2cpp5utils11StringUtils12StringHasherIS8_EEN14dense_hash_mapIS9_SC_SI_NS0_8equal_toIS9_EENS6_ISD_EEE9SelectKeyESL_SM_E8min_sizeEjj
wSc:__ZNK5physx3Cct13BoxController8getStatsERNS_17PxControllerStatsE
Vxf:_Enumerator_get_Current_m1271212567
QW:__ZN5physx5cloth11PhaseConfigC2Et
qLa:__Z22GetShaderCachePathGLESv
Woe:__ZN13PhysicsModule21OverlapBoxUserCollectERK8Vector3fS2_RK11Quaternionfi23QueryTriggerInteractionRN8IPhysics12IUserCollectE
ySc:__ZN5physx3Cct13BoxControllerD2Ev
Lbi:_Input_set_compositionCursorPos_m1615567306
Sma:__ZN18StreamedBinaryReadILb1EE19TransferSTLStyleMapINSt3__23mapIN9ShaderLab16FastPropertyNameEN18UnityPropertySheet11UnityTexEnvENS2_4lessIS5_EENS2_9allocatorINS2_4pairIKS5_S7_EEEEEEEEvRT_17TransferMetaFlags
DBj:_Playable_GetInputWeightInternal_m381407588
Ykh:_IPAddress_ParseIPV6_m2209709575
IId:__ZThn8_N5physx2Sc19ShapeInstancePairLLD0Ev
o_:__ZN19CloudServiceHandler18SaveFileFromServerERK8UnityStrS2_PN11UnityEngine15CloudWebService16WWWRestHeaderMapE
J$d:__ZN5physx19PxcContactSphereBoxERKNS_2Gu13GeometryUnionES3_RKNS_11PxTransformES6_RKfRNS_10PxcNpCacheERNS0_13ContactBufferE
gMj:_Toggle_set_group_m3833595685
fCg:_LayoutRebuilder_ForceRebuildLayoutImmediate_m566681977
kKd:__ZNK5physx7NpScene21getBroadPhaseCallbackEh
J9c:__ZN5physx6shdfnd5ArrayIPNS_12PxConstraintENS0_19ReflectionAllocatorIS3_EEE15growAndPushBackERKS3_
Qgd:__ZNK5physx2Sc15ArticulationSim11checkResizeEv
jXe:_Array_InternalArray__ICollection_Add_TisVector4_t2243707581_m698578249_gshared
h6:__ZN8keywords6CreateEPKc
OWc:__ZN5physx2Gu11gjkRelativeINS0_8CapsuleVENS0_11ConvexHullVEEEjRKT_RKT0_RKNS_6shdfnd3aos15PsMatTransformVERNSB_5Vec3VESG_SG_RNSB_6FloatVE
GYi:__Z89RuntimeInvoker_Il2CppObject_Il2CppObject_Int32_t2071877448_Int32_t2071877448_Il2CppObjectPK10MethodInfoPvPS2_
WRb:__ZN24GenerateTypeTreeTransfer8TransferINSt3__26vectorI17AnimationCurveTplIfE13stl_allocatorIS4_L18MemLabelIdentifier1ELi16EEEEEEvRT_PKc17TransferMetaFlags
R:Math_imul
N8h:_GUIStyle_set_active_m2896743432
HDb:__ZN14SpriteRenderer15SetupPropertiesEv
Adf:_SecurityFrame_t1002202659_marshal_pinvoke_back
wfi:_Physics_Raycast_m2036777053
FEe:__Z45TextGenerator_CUSTOM_INTERNAL_get_rectExtentsP12Il2CppObjectP5RectTIfE
h9g:_CertificateValidationCallback_Invoke_m2500463874
PRe:_SetPropertyUtility_SetStruct_TisChar_t3454481338_m2333420724_gshared
V4f:__ZN23InterfaceActionInvoker2Ii18Color32_t874517518E6InvokeEjP11Il2CppClassPviS0_
G3f:_Collection_1_IsSynchronized_m2601980439_gshared
owf:_Hashtable_ContainsKey_m2716576664
g8k:__ZN15dense_hashtableINSt3__24pairIK10KeyWrapperIPK10Il2CppTypeEjEES6_N6il2cpp8metadata14Il2CppTypeHashEN14dense_hash_mapIS6_jSB_NSA_17Il2CppTypeCompareENS0_9allocatorIS8_EEE9SelectKeyESD_SF_EC2EjRKSB_RKSD_RKSH_
Ahk:_PatternCompiler_EmitCategory_m1696942454
cHf:_Decimal_decimalFloorAndTrunc_m3655683429
DXe:_Array_InternalArray__ICollection_CopyTo_TisInt32_t2071877448_m984622488_gshared
LIe:__Z39CanvasGroup_Get_Custom_PropInteractableP12Il2CppObject
QMc:__ZN16CircleCollider2D23VirtualRedirectTransferER18StreamedBinaryReadILb0EE
gUl:_emscripten_glStencilOpSeparate__wrapper
rBe:_cf2_getLanguageGroup
I5a:__ZN13ProbeRenderer8ConvolveEbijjb
UEa:__ZN17GenericDynamicVBOC2ER9GfxDevice13GfxBufferModejj
Fdk:_Context_get_HasDynamicSinks_m1998518649
Gwc:__Z40Register_UnityEngine_Event_get_modifiersv
MOc:__Z28GetPhysics2DScriptingClassesv
nGd:__ZNK5physx2Sc5Scene7isValidEv
I6b:__ZN12ScriptMapper7PRODUCEE18MemLabelIdentifier18ObjectCreationMode
yY:__ZN11UnityEngine15CloudWebService17SessionEventQueue10PurgeItemsEj
nMd:__ZN5physx2Sq17SceneQueryManager29setDynamicTreeRebuildRateHintEj
Nzh:_ValueCollection_System_Collections_Generic_ICollectionU3CTValueU3E_get_IsReadOnly_m1530798787_gshared
vig:_AbstractEventData_get_used_m4208553917
Rkf:_Array_System_Collections_IList_get_Item_m2088124007
jlf:_Array_GetLength_m2083296647
yyi:__ZL58SecurityElement_t2325568386_CustomAttributesCacheGeneratorP21CustomAttributesCache
Ljb:__ZN16LevelGameManager23VirtualRedirectTransferER24GenerateTypeTreeTransfer
$tf:_SynchronizedArrayListWrapper_ToArray_m1522185111
s6i:__Z55RuntimeInvoker_TimeSpan_t3430258949_DateTime_t693205669PK10MethodInfoPvPS2_
ZWb:__Z18Transfer_BlittableI18StreamedBinaryReadILb1EELb1EtEvRK29SerializationCommandArgumentsR31RuntimeSerializationCommandInfo
Bcf:_SecurityContext_get_FlowSuppressed_m420202521
gAa:__ZN9GfxDevice20DeallocRenderSurfaceEP17RenderSurfaceBase
Ffd:__ZN5physx6shdfnd5ArrayIPvNS0_19ReflectionAllocatorINS_18NpArticulationLinkEEEE4copyINS0_15InlineAllocatorILj256ES5_EEEEvRKNS1_IS2_T_EE
IWj:_ValueType_ToString_m3796301715
VSc:__ZNK5physx3Cct10Controller12getKineShapeEv
V3i:__Z62RuntimeInvoker_Int64_t909078037_Il2CppObject_Int32_t2071877448PK10MethodInfoPvPS2_
Gnc:__Z53Register_UnityEngine_Quaternion_INTERNAL_CALL_Inversev
T_e:_Array_qsort_TisUICharInfo_t3056636800_m2607408901_gshared
Z7c:__ZN5physx6shdfnd4sortIPvNS0_4LessIS2_EENS0_19ReflectionAllocatorINS_2Sc18TriggerInteractionEEEEEvPT_jRKT0_RKT1_j
b6h:_GUILayoutGroup__ctor_m992523271
Alb:__ZN12BaseRenderer23RendererBecameInvisibleEv
yEd:__ZNK5physx2Sc8BodyCore14getMaxAngVelSqEv
Kqe:__ZN20TextRenderingPrivate8FontImpl13CharacterInfo8TransferI18StreamedBinaryReadILb0EEEEvRT_
KRb:__Z29Transfer_Blittable_ArrayFieldI24GenerateTypeTreeTransferfEvRT_R9ArrayInfoRK23StaticTransferFieldInfo
L4i:__Z51RuntimeInvoker_Single_t2076509932_Int16_t4041245914PK10MethodInfoPvPS2_
lvb:__ZN8Gradient8TransferI14SafeBinaryReadEEvRT_
p1i:__Z41RuntimeInvoker_StackBehaviour_t1390406961PK10MethodInfoPvPS2_
nHk:_UnityEvent_1_Invoke_m1533100983_gshared
Hml:__ZNK15dense_hashtableINSt3__24pairIK10KeyWrapperIP14Il2CppIUnknownEjEES5_N6il2cpp5utils11PointerHashIS3_EEN14dense_hash_mapIS5_jSB_NS0_8equal_toIS5_EENS0_9allocatorIS7_EEE9SelectKeyESE_SG_E5beginEv
lkh:_FileWebRequest__ctor_m4003648606
gUi:__ZL71SpriteState_t1353336012_CustomAttributesCacheGenerator_m_DisabledSpriteP21CustomAttributesCache
Exa:__ZN16MeshVertexFormat23CreateVertexDeclarationEjPKS_
Wmj:__Z34RuntimeInvoker_HitInfo_t1761367055PK10MethodInfoPvPS2_
cKf:_Enum_System_IConvertible_ToSByte_m3488526280
tMa:__ZN9GfxDevice9SkinOnGPUERK18VertexStreamSourceP9GfxBufferP17GPUSkinPoseBufferS4_iijb
S_h:_TypeBuilder_ToString_m1952363535
Kek:_Identity_set_Disposed_m628843469
yei:_MonoBehaviour_StopAllCoroutines_m1675795839
Hva:__ZN18IDCollectorFunctorD0Ev
I0d:__ZN5physx2Gu32PCMConvexVsMeshContactGeneration15processTriangleEPKNS_6PxVec3EjhPKj
H7a:__ZN23ManagedAttributeManager21GetRequiredComponentsEP11Il2CppClass
RIi:__ZL82Object_t1021602117_CustomAttributesCacheGenerator_Object_DestroyObject_m2343493981P21CustomAttributesCache
aUg:_NumberFormatter_Init_m1022036773
nrl:_GC_new_free_list_inner
iEh:_DefaultComparer_Equals_m85211180_gshared
S6b:__ZN14RenderSettings7PRODUCEE18MemLabelIdentifier18ObjectCreationMode
x7f:_Collection_1_System_Collections_IList_IndexOf_m1950953062_gshared
LSg:_MonoType_InternalGetEvent_m532443236
C5f:_Collection_1_IndexOf_m2700825189_gshared
k4d:__ZN5physx6shdfnd5ArrayINS_2Cm8Matrix34ENS0_19ReflectionAllocatorIS3_EEE15growAndPushBackERKS3_
P8j:_Comparer_1_get_Default_m2605397692_gshared
P0d:__ZN5physx2Gu32PCMConvexVsMeshContactGeneration31generatePolyDataContactManifoldERNS0_9TriangleVEjjhPNS0_21MeshPersistentContactERjRKNS_6shdfnd3aos6FloatVERNS8_5Vec3VE
sge:__ZN5physx10SubSortSAH5splitEPjj
OG:__ZN25RuntimeAnimatorController8TransferI14SafeBinaryReadEEvRT_
iBc:__ZN8JSONRead8TransferI10RectOffsetEEvRT_PKc17TransferMetaFlagsb
CG:__ZN18AnimatorController23VirtualRedirectTransferER18StreamedBinaryReadILb1EE
HGl:__ZNSt3__28time_getIwNS_19istreambuf_iteratorIwNS_11char_traitsIwEEEEED2Ev
Phf:_Decoder__ctor_m2623573910
HWa:__Z21ClearFenceWithoutSyncR8JobFence
oYc:__ZN5physx2Gu3EPA8addFacetEjjjRKNS_6shdfnd3aos6FloatVES6_
pQ:__ZN12SoundManager20RegisterModifiedClipEP10SampleClip
h9:__Z21FormatScriptTypeError14MonoScriptTypeRKNSt3__212basic_stringIcNS0_11char_traitsIcEENS0_9allocatorIcEEEE
ECb:__ZN12MeshRenderer15AddAsRenderNodeER15RenderNodeQueueRK20DeprecatedSourceData
p_i:__Z108RuntimeInvoker_Void_t1841601450_Il2CppObject_Int64_t909078037_Il2CppObject_Int64_t909078037_Int64_t909078037PK10MethodInfoPvPS2_
QS:__ZN11AudioSource4PlayEd
gLb:__Z26scripting_class_get_fieldsP11Il2CppClassRNSt3__26vectorIP9FieldInfo13stl_allocatorIS4_L18MemLabelIdentifier1ELi16EEEE
nil:__ZN6il2cpp2vm6Object16GetVirtualMethodEP12Il2CppObjectPK10MethodInfo
TK:__ZZN8Animator15InitializeClassEvEN31FunctorImpl_388kDidModifyMotion4CallEPviR11MessageData
Y3c:__ZN5physx3Cct9CCTParamsC2Ev
kud:__ZN5physx7NpCloth21setStiffnessFrequencyEf
K1:__ZNK20LocalFileSystemPosix8IsHiddenERK13FileEntryData
Dsc:__Z37Transform_CUSTOM_INTERNAL_CALL_LookAtP12Il2CppObjectRK8Vector3fS3_
Ece:__ZThn8_N5physx2Gu11HeightField14onRefCountZeroEv
Pxk:_X501__cctor_m2610532554
tub:__ZThn28_NK8Renderer8GetLayerEv
r7c:__ZN5physx2Sc5Actor9setActiveEbj
DWc:__ZN12_GLOBAL__N_127SphereMeshContactGeneration15processTriangleEjRKN5physx6PxVec3ES4_S4_PKj
Zal:__ZNSt3__214__split_bufferINS_12basic_stringIcNS_11char_traitsIcEENS_9allocatorIcEEEERNS4_IS6_EEED2Ev
X_f:_List_1_CheckCollection_m2220107869_gshared
prb:__ZN7Cubemap23VirtualRedirectTransferER18StreamedBinaryReadILb0EE
xbh:_RecordProtocol_EncodeRecord_m3884270352
t8e:_SHA256_Create_m896954069
_Ce:_Read_CVT
inf:__ZN16VirtFuncInvoker0IP12MemberInfo_tE6InvokeEjPv
$Cf:_Convert_ToUInt32_m776714429
UWc:__ZN5physx2Gu22barycentricCoordinatesERKNS_6shdfnd3aos5Vec3VES5_S5_RNS2_6FloatVE
ePa:__ZN12FileAccessor4SeekEx10FileOrigin
MQb:__ZL26Transfer_SimpleNativeClassI24GenerateTypeTreeTransfer17AnimationCurveTplIfELb0EEvRK29SerializationCommandArgumentsR31RuntimeSerializationCommandInfo
Otd:__ZN5physx15NpActorTemplateINS_7PxClothEE12setActorFlagENS_11PxActorFlag4EnumEb
jtg:__ZN16VirtFuncInvoker1IP22GameObject_t1756533147S1_E6InvokeEjPvS1_
M9i:__Z77RuntimeInvoker_Vector3_t2243707580_Quaternion_t4030073918_Vector3_t2243707580PK10MethodInfoPvPS2_
Mee:__ZL18TestUnifiedNormalsjPKN5physx6PxVec3EjPNS_2Gu9TriangleTIjEEb
wej:__Z54RuntimeInvoker_Boolean_t3825574718_Vector2_t2243707579PK10MethodInfoPvPS2_
hwj:_Coroutine_t2299508840_marshal_pinvoke
pda:__ZN16LightmapSettings20DidChangeActiveSceneEP10UnitySceneS1_
$8k:__ZN15dense_hashtableINSt3__24pairIK10KeyWrapperINS1_IPK14Il2CppAssemblyP11Il2CppClassEEEjEES9_17ReflectionMapHashIS8_EN14dense_hash_mapIS9_jSD_19ReflectionMapEqualsIS8_ENS0_9allocatorISB_EEE9SelectKeyESG_SI_E13set_empty_keyERKSB_
hWi:__ZL59g_AssemblyU2DCSharp_Assembly_CustomAttributesCacheGeneratorP21CustomAttributesCache
msc:__Z39Register_UnityEngine_Time_get_timeScalev
IR:__ZN10AudioMixer11SetupGroupsEv
mIi:__ZL91Resources_t339470017_CustomAttributesCacheGenerator_Resources_GetBuiltinResource_m582410469P21CustomAttributesCache
Cwc:__Z35Register_UnityEngine_Event_get_typev
R$g:_PrivateKeyInfo_DecodeRSA_m1427048948
S5g:_BigInteger_op_GreaterThanOrEqual_m2643115413
pTh:_Assembly_FillName_m1934025015
eUa:_UNITY_png_free
YJg:_IntPtr_op_Explicit_m1073656736
lSl:_emscripten_glDepthRange__wrapper
Nff:_String_IndexOf_m2126171214
wJg:_Int64_ToString_m1544341651_AdjustorThunk
nbe:__ZNK5physx13GuMeshFactory17getNbConvexMeshesEv
LFg:_Guid_CheckNull_m2903986431
ADi:__ZL62CrossContextDelegate_t754146990_CustomAttributesCacheGeneratorP21CustomAttributesCache
Erj:_Bounds__ctor_m1202659404
sIi:__ZL97Texture2D_t3542995729_CustomAttributesCacheGenerator_Texture2D_SetPixels_m1131483856____miplevel5P21CustomAttributesCache
c8:__Z63ThreadAndSerializationSafeCheckGetMonoBehaviourBeingTransferredv
Ztl:_GC_enable
vdh:_TlsClientCertificateVerify_ProcessAsSsl3_m3377063356
H_i:__Z97RuntimeInvoker_Il2CppObject_Il2CppObject_Int32_t2071877448_Il2CppObject_Il2CppObject_Il2CppObjectPK10MethodInfoPvPS2_
Z5b:__ZN14LineParametersD2Ev
ong:_StandaloneInputModule_set_repeatDelay_m2820945738
ALg:_EndOfStreamException__ctor_m4268387737
XTj:_UInt16_ToString_m4213290405
hnc:__Z37Register_UnityEngine_Input_GetAxisRawv
L0f:_List_1_GetIndex_m433539411_gshared
Kwi:__ZL59StreamingContext_t1417235061_CustomAttributesCacheGeneratorP21CustomAttributesCache
Jag:_Collection_1_Remove_m3355928137_gshared
jKf:_Enum_GetName_m1226611481
v2i:__Z113RuntimeInvoker_Il2CppObject_Byte_t3683104436_Il2CppObject_SByte_t454417549_Il2CppObject_Il2CppObject_Il2CppObjectPK10MethodInfoPvPS2_
ES:__ZN11AudioSource5ResetEv
Ew:__ZN13AnimationClip12Vector3Curve8TransferI19StreamedBinaryWriteILb0EEEEvRT_
kyb:__ZN14Texture2DArray23VirtualRedirectTransferER18StreamedBinaryReadILb0EE
Gyb:__ZN13TrailRenderer5ResetEv
rwb:__ZN2UI13RectTransform13AwakeFromLoadE17AwakeFromLoadMode
JYa:__ZL27GetDestRenderTargetSurfacesP13RenderTextureR12ObjectHandleI17RenderSurface_TagP17RenderSurfaceBaseES6_
fbj:__Z32RuntimeInvoker_Scene_t1684909666PK10MethodInfoPvPS2_
W5d:__ZN5physx23PxsSolverSetupSolveTaskD2Ev
mNb:__Z18Transfer_BlittableI14SafeBinaryReadLb1EiEvRK29SerializationCommandArgumentsR31RuntimeSerializationCommandInfo
fak:_DefaultDependencyAttribute__ctor_m107693037
q1b:__ZNSt3__26vectorINS_4pairINS_12basic_stringIcNS_11char_traitsIcEENS_9allocatorIcEEEES7_EENS5_IS8_EEE21__push_back_slow_pathIKS8_EEvRT_
Fdg:_ReadOnlyCollection_1_GetEnumerator_m713393110_gshared
FKh:_ProxyAttribute_GetPropertiesForNewContext_m3587421540
imf:_Array_LastIndexOf_m4096535198
Wrf:_ArrayList_Add_m1719188324
sod:__ZN18MultiQueryCallbackIN5physx12PxOverlapHitEE6invokeERfPKNS0_2Sq13PrunerPayloadEj
sJf:_Double_System_IConvertible_ToSByte_m1653690240_AdjustorThunk
uAl:_opendir
C_c:__ZN5physx2Gu18gjkRelativeRayCastINS0_4BoxVES2_NS0_10ShrunkBoxVES3_EEbRT_RT0_RKNS_6shdfnd3aos15PsMatTransformVERKNS9_6FloatVERKNS9_5Vec3VESI_RSD_RSG_SK_fb
ml:_glGetStringi
Fai:_GUIStyleState_t3801000545_marshal_pinvoke
Tyd:__ZN5physx22NpParticleBaseTemplateINS_15PxParticleFluidENS_15NpParticleFluidEE14setRestitutionEf
izb:__ZN18StreamedBinaryReadILb0EE21TransferSTLStyleArrayI13dynamic_arrayI8Vector4fLj4EEEEvRT_17TransferMetaFlags
Vbe:__ZThn8_N5physx2Gu10ConvexMeshD0Ev
lph:_X509Chain_get_CertificateCollection_m324631835
iXk:__ZN15dense_hashtableI10KeyWrapperIPK19Il2CppGenericMethodES4_N6il2cpp8metadata23Il2CppGenericMethodHashEN14dense_hash_setIS4_S7_NS6_26Il2CppGenericMethodCompareENSt3__29allocatorIS4_EEE8IdentityES9_SC_EC2ERKSF_j
vHh:_EqualityComparer_1__cctor_m1011898363_gshared
sSd:__ZNK5physx2Sq12BucketPruner7raycastERKNS_6PxVec3ES4_RfRNS0_14PrunerCallbackE
PUe:_Array_InternalArray__IndexOf_TisClientCertificateType_t4001384466_m1168139450_gshared
Ajj:__Z49RuntimeInvoker_Int32_t2071877448_Link_t2723257478PK10MethodInfoPvPS2_
$Xh:_FieldBuilder_get_Name_m2243491233
VQc:__ZN15dense_hashtableINSt3__24pairIKNS1_IPK10Collider2DS4_EE11Collision2DEES5_NS2_23ColliderPairHashFunctorEN14dense_hash_mapIS5_S7_S9_NS0_8equal_toIS5_EE13stl_allocatorIS8_L18MemLabelIdentifier65ELi16EEE9SelectKeyESC_SF_E14squash_deletedEv
fcf:_StringBuilder_Append_m3618697540
rSf:_List_1_GetEnumerator_m3294992758_gshared
Y0:__ZN13ScreenManager16SetScreenTimeoutEi
CPb:__Z18Transfer_BlittableI17RemapPPtrTransferLb0EdEvRK29SerializationCommandArgumentsR31RuntimeSerializationCommandInfo
q9e:_SymmetricAlgorithm_set_IV_m4262655606
gLj:_StencilMaterial__cctor_m2963056855
SJk:_EqualityComparer_1_System_Collections_IEqualityComparer_Equals_m315020809_gshared
VYf:_List_1_Find_m3680710386_gshared
vqk:_TextEditor_SelectGraphicalLineStart_m171383526
ZDh:_Dictionary_2_OnDeserialization_m2691688467_gshared
YUh:_CustomAttributeNamedArgument_GetHashCode_m3715408876_AdjustorThunk
MEe:__Z38Register_UnityEngine_Font_HasCharacterv
qoh:_X509Certificate2_AppendBuffer_m3517242299
WXa:__Z35IntersectSpherePlaneBoundsOptimizedRKN4math7_float4EPS1_i
YMf:_CultureInfo_get_IsNeutralCulture_m3874876470
THf:_Delegate_CreateDelegate_m3813023227
CFl:__ZNKSt3__27num_putIcNS_19ostreambuf_iteratorIcNS_11char_traitsIcEEEEE6do_putES4_RNS_8ios_baseEcx
q2i:__Z46RuntimeInvoker_WellKnownObjectMode_t2630225581PK10MethodInfoPvPS2_
J5c:__ZN5physx2Sc8ShapeSim20createLowLevelVolumeEjRKNS_9PxBounds3EjNS_9AABBMgrIdE
umk:_Uri_get_AbsoluteUri_m2120317928
BFl:__ZNKSt3__27num_putIcNS_19ostreambuf_iteratorIcNS_11char_traitsIcEEEEE6do_putES4_RNS_8ios_baseEcl
DFl:__ZNKSt3__27num_putIcNS_19ostreambuf_iteratorIcNS_11char_traitsIcEEEEE6do_putES4_RNS_8ios_baseEcm
Nll:__ZN6il2cpp2os5posix15PosixWaitObject13InterruptWaitEv
pud:__ZNK5physx7NpCloth22getAngularInertiaScaleEv
nx:__ZN7mecanim6memory16ChainedAllocator10DeallocateEPv
yjg:_BaseInputModule_IsModuleSupported_m4272494372
p0c:__ZN26IntersectAnyVsMeshCallbackILi1ELb1EE10processHitERKN5physx12PxRaycastHitERKNS1_6PxVec3ES7_S7_RfPKj
GFl:__ZNKSt3__27num_putIcNS_19ostreambuf_iteratorIcNS_11char_traitsIcEEEEE6do_putES4_RNS_8ios_baseEce
AFl:__ZNKSt3__27num_putIcNS_19ostreambuf_iteratorIcNS_11char_traitsIcEEEEE6do_putES4_RNS_8ios_baseEcb
bbd:__ZN5physx2Sc13ConstraintSim15needsProjectionEv
Yca:__Z22CleanupLODGroupManagerPv
dXe:_Array_InternalArray__ICollection_Add_TisContentType_t1028629049_m2984242302_gshared
INd:__ZN5physx6shdfnd5ArrayINS_2Sc5Scene14SimpleBodyPairENS0_19ReflectionAllocatorIS4_EEE8recreateEj
Xl:_glUniform3fv
LGb:__ZNSt3__218__insertion_sort_3IRN15ResourceManager10Dependency6SorterEPS2_EEvT0_S6_T_
zQf:_Enumerator_System_Collections_IEnumerator_Reset_m3796537546_AdjustorThunk
jEe:_UNITY_FT_Init_Class_tt_service_gx_multi_masters
n3j:_InternalEnumerator_1_System_Collections_IEnumerator_Reset_m3249248421_AdjustorThunk
sSg:_IntComparer_Compare_m3057931085
D0a:__ZNK16LightmapSettings31GetRealtimeLightmapDecodeValuesEv
dS:__ZN5audio5mixer12SetSuspendedERNS0_16AudioMixerMemoryEb
Bsa:__ZN17PersistentManager21UnloadNonDirtyStreamsEv
KGi:__ZL85Component_t3819376471_CustomAttributesCacheGenerator_Component_SendMessage_m913946877P21CustomAttributesCache
lZi:__Z78RuntimeInvoker_Int32_t2071877448_DecimalU26_t1613489971_DecimalU26_t1613489971PK10MethodInfoPvPS2_
Nel:__ZN6il2cpp2vm13LivenessStateC2EP11Il2CppClassjPFvPP12Il2CppObjectiPvES7_PFvvESB_
mfj:__Z41RuntimeInvoker_ColorTweenMode_t1328781136PK10MethodInfoPvPS2_
BRi:__ZL61Graphic_t2426225576_CustomAttributesCacheGenerator_m_MaterialP21CustomAttributesCache
Fmh:_Oid__ctor_m1936781897
wme:__ZN5physx6shdfnd8PoolBaseINS_24NpPtrTableStorageManager8PtrBlockILi4EEENS0_19ReflectionAllocatorIS4_EEE12allocateSlabEv
Hei:_Object_INTERNAL_CALL_Internal_InstantiateSingleWithParent_m1401308849
hxc:__Z34Register_UnityEngine_GUI_set_depthv
O9j:_ResourceSet__ctor_m1222864106
W8d:__ZN5physx2Sc5Scene13ccdBroadPhaseEPNS_10PxBaseTaskE
N1f:_Collection_1_System_Collections_IList_get_Item_m3376056117_gshared
YNb:__ZN12NativeBufferI27Converter_SimpleNativeClassI8GradientEE19ProcessAfterReadingER9ArrayInfoP11Il2CppClass
rm:_emscripten_glDepthMask
K0d:__ZN5physx2Gu24PCMMeshContactGeneration15processContactsEhb
Bli:__ZL76UInt16_t986882611_CustomAttributesCacheGenerator_UInt16_TryParse_m1818885113P21CustomAttributesCache
yQf:_Enumerator_VerifyState_m3639069574_gshared
VFa:__ZN4crnd25static_huffman_data_model22prepare_decoder_tablesEv
tsb:__ZN9Texture2D23VirtualRedirectTransferER17RemapPPtrTransfer
nke:__ZN5physx7profile8ZoneImplINS_28PxProfileNameProviderForwardEE9doAddNameEPKctb
I$e:_Array_Sort_TisIl2CppObject_TisIl2CppObject_m1915706600_gshared
o5g:_ModulusRing_Difference_m662924064
Q2j:_InternalEnumerator_1_MoveNext_m1869236997_gshared
Ypg:_CanvasUpdateRegistry_ObjectValidForUpdate_m855695984
Syg:_InputField_set_onValueChanged_m2406388125
oKi:__ZL95Physics2D_t2540166467_CustomAttributesCacheGenerator_Physics2D_Raycast_m2303387255____maxDepth5P21CustomAttributesCache
mbg:_ReadOnlyCollection_1_System_Collections_ICollection_get_SyncRoot_m2702046016_gshared
U3:__ZL22CleanupUnityWebStreamsPv
Ygk:_Regex_get_RightToLeft_m529734879
eUb:__Z18Transfer_BlittableI18StreamedBinaryReadILb0EELb0E10ColorRGBAfEvRK29SerializationCommandArgumentsR31RuntimeSerializationCommandInfo
bjh:_ListDictionary_Add_m4276262662
GLl:__Znaj
C6e:_RIPEMD160Managed_GGG_m1639995340
_Yl:_emscripten_glEnableClientState__wrapper
Rxh:_Enumerator_System_Collections_IEnumerator_get_Current_m1648049763_gshared
jxl:__ZN6il2cpp6icalls8mscorlib4Mono8Security12Cryptography18KeyPairPersistence15_ProtectMachineEP12Il2CppString
L$i:__Z57RuntimeInvoker_DSAParameters_t1872138834_SByte_t454417549PK10MethodInfoPvPS2_
PDf:_DateTime__cctor_m2173182045
ulb:__ZN11GameManager15ThreadedCleanupEv
pZf:_List_1__ctor_m1337392449_gshared
ZWd:__ZN5physxL26solveFriction4_StaticBlockEPKNS_23PxcSolverConstraintDescERNS_16PxcSolverContextE
clf:_Array_System_Collections_IList_Remove_m2438892375
hPg:_TextWriter__ctor_m2225796097
h7h:_ScriptableObject_Internal_CreateScriptableObject_m1778903390
D$d:__ZN5physx30PxcGetMaterialShapeHeightFieldEPKNS_12PxsShapeCoreES2_RNS_18PxcNpThreadContextEPNS_15PxsMaterialInfoE
fka:__ZNK6Camera16GetStereoEnabledEv
yag:__ZN21InterfaceFuncInvoker1I19Vector4_t2243707581iE6InvokeEjP11Il2CppClassPvi
Lt:__ZN13AnimationClip9PPtrCurveaSERKS0_
I7b:__ZN12LightManager15InitializeClassEv
F9d:__ZN5physx6shdfnd8PoolBaseINS_2Sc19ParticlePacketShapeENS0_19ReflectionAllocatorIS3_EEE12allocateSlabEv
l9h:_GUIStyle_GetFontInternal_m3509743324
Vac:__ZN18ScriptingArgumentsC2Ev
uRj:_TimeZone_IsDaylightSavingTime_m875882154
N8k:__ZN13Il2CppHashMapINSt3__24pairIPK9FieldInfoP11Il2CppClassEEj17ReflectionMapHashIS7_E19ReflectionMapEqualsIS7_ENS0_9allocatorINS1_IK10KeyWrapperIS7_EjEEEEEC2EjRKS9_RKSB_
Xcj:__Z93RuntimeInvoker_Int32_t2071877448_Rect_t3681755626_Int32_t2071877448_Il2CppObject_Il2CppObjectPK10MethodInfoPvPS2_
zYj:_ArrayReadOnlyList_1_Insert_m503707439_gshared
eUl:_emscripten_glBlendFuncSeparate__wrapper
CZi:__Z52RuntimeInvoker_Single_t2076509932_Decimal_t724701077PK10MethodInfoPvPS2_
iah:_CipherSuiteCollection_System_Collections_IList_set_Item_m750275607
_7e:_SHA1CryptoServiceProvider__ctor_m3127563759
gr:__ZN8Vector3f8TransferI14SafeBinaryReadEEvRT_
XVi:__ZL103BaseVertexEffect_t2504093552_CustomAttributesCacheGenerator_BaseVertexEffect_ModifyVertices_m3446986347P21CustomAttributesCache
Jp:FUNCTION_TABLE_ii
Dyh:_Enumerator_MoveNext_m335649778_AdjustorThunk
mlb:__ZN10TagManager8TransferI18StreamedBinaryReadILb0EEEEvRT_
DDc:__Z18Transfer_BlittableI9JSONWriteLb0E8BitFieldEvRK29SerializationCommandArgumentsR31RuntimeSerializationCommandInfo
RUj:_UInt32_ToString_m3894907091_AdjustorThunk
ngc:__Z35scripting_class_get_field_from_nameP11Il2CppClassPKc
tSl:b44
Jb:invoke_diiii
sLc:__ZNK13BoxCollider2D26GetTypeInfoVirtualInternalEv
u$c:__ZL17sweepVolumeVsMeshPKN5physx3Cct9SweepTestEPKNS0_11TouchedMeshERNS0_12SweptContactERKNS_6PxVec3ERKNS_10PxGeometryERKNS_11PxTransformEjPKNS_10PxTriangleEj
kwh:_ShimEnumerator_get_Key_m616785465_gshared
I_g:_SmallXmlParser_Error_m1832158746
ksh:_RepeatContext_get_IsLazy_m1620488045
End:__ZNK5physx12NpBatchQuery19getFilterShaderDataEv
Y3d:__ZN5physx2Gu31checkOverlapOBB_heightFieldGeomERKNS_10PxGeometryERKNS_11PxTransformERKNS0_3BoxE
nok:_SliderHandler_SliderState_m3520725942_AdjustorThunk
A0b:__ZN9ShaderLab20SerializedSubProgram8TransferI18StreamedBinaryReadILb0EEEEvRT_
JOg:_StreamAsyncResult_get_AsyncWaitHandle_m4218169359
gci:_LayerMask_op_Implicit_m2135076047
oSl:b40
kUc:__ZN5physx2Gu23findRotationMatrixFromZERKNS_6PxVec3E
hWa:__Z9EndJobSetR8JobFence11JobPriority
e3e:_Array_InternalArray__get_Item_TisContactPoint2D_t3659330976_m825151777_gshared
pFe:__ZN2UI13CanvasManager9AddCanvasEPNS_6CanvasE
e2a:__ZN14qsort_internal6_QSortIP21ForwardRenderPassDataiN23ForwardShaderRenderLoop18RenderObjectSorterILb0EEEEEvT_S6_T0_T1_
LVa:__ZNK6Camera22CalculateRenderingPathEv
rEc:__ZN9JSONWrite8TransferI5RectTIfEEEvRT_PKc17TransferMetaFlags
uMd:__ZN5physx13NpVolumeCache10invalidateEv
O8g:_ContentInfo_get_Content_m1802070908
tt:__ZN15SerializeTraitsIKN4math7_float4EE8TransferI14SafeBinaryReadEEvRS2_RT_
ZOb:__ZL12InvokeMethodI17RemapPPtrTransferEvRK29SerializationCommandArgumentsR31RuntimeSerializationCommandInfo
h2g:_X509Certificate_get_PublicKey_m714501701
_Ag:_U3CMouseDragOutsideRectU3Ec__Iterator1_System_Collections_IEnumerator_get_Current_m561728752
Cwe:_tt_sbit_decoder_load_image
Jia:__Z14IsHalfRTFormat19RenderTextureFormat
$ff:_String_LastIndexOf_m290475879
qIc:__ZN15b2DistanceJointD0Ev
Vxg:_Image_get_layoutPriority_m2151045813
Zs:__ZNSt3__26vectorI14AnimationEvent13stl_allocatorIS1_L18MemLabelIdentifier25ELi16EEE8__appendEj
Jhj:__Z71RuntimeInvoker_Void_t1841601450_CornerU26_t4129226442_Int32_t2071877448PK10MethodInfoPvPS2_
$Pg:_TextReader_Read_m975794707
_uc:__ZNSt3__24listIN10GUIManager12SortedScriptE11memory_poolIS2_EE6__sortI13OldSortScriptEENS_15__list_iteratorIS2_PvEESA_SA_jRT_
i6c:__ZN5physx6shdfnd5ArrayIPvNS0_19ReflectionAllocatorINS_2Sc10NPhaseCore16ClothListElementEEEE15growAndPushBackERKS2_
$Uj:_UInt64_System_IConvertible_ToChar_m1930853313_AdjustorThunk
qdh:_TlsClientCertificate_SendCertificates_m1096074091
oog:_UIBehaviour_OnCanvasHierarchyChanged_m762109874
axf:_SyncHashtable_get_Item_m408601391
exi:__ZL45DSA_t903174880_CustomAttributesCacheGeneratorP21CustomAttributesCache
Hbe:__ZN5physx2Gu10ConvexMeshD0Ev
q1f:_Stack_1_System_Collections_ICollection_CopyTo_m2104527616_gshared
dtl:_GC_add_map_entry
Zjf:_StringBuilder_AppendFormat_m1666670800
m3a:__ZN18DeferredRenderLoop13RenderGBufferEP13RenderTexturePS1_b8JobFencePK25DeferredRenderLoopScratchRi
DDl:__ZNSt3__219__iostream_categoryD0Ev
$aj:__Z67RuntimeInvoker_Double_t4078015681_Playable_t3667545548_Il2CppObjectPK10MethodInfoPvPS2_
Yv:__ZN13AnimationClip8TransferI17RemapPPtrTransferEEvRT_
_Pb:__Z18Transfer_BlittableI17RemapPPtrTransferLb1E8BitFieldEvRK29SerializationCommandArgumentsR31RuntimeSerializationCommandInfo
ndl:__ZN6il2cpp6icalls8mscorlib6System9ThreadingL11ThreadStartEPv
Sxl:__ZN6il2cpp2vm9LastError31InitializeLastErrorThreadStaticEv
nMa:__ZN9GfxDevice12DeleteBufferEP9GfxBuffer
Hfg:_ReadOnlyCollection_1_System_Collections_IList_Remove_m3878418841_gshared
Xyg:_InputField_EnforceContentType_m1902926812
y$a:__ZN14qsort_internal31_FindAndMovePivotToLastPositionIP15RODataDepthPassi17ROSorterDepthPassEEvT_S4_T0_T1_
zpc:__Z97Register_UnityEngine_Experimental_Director_Playable_INTERNAL_CALL_SetInputWeightFromIndexInternalv
eja:__ZN12CachedReader10Align4ReadEv
cNc:__ZN15b2WorldManifold10InitializeEPK10b2ManifoldRK11b2TransformfS5_f
Eag:_Collection_1_CopyTo_m42272870_gshared
Ubj:__Z154RuntimeInvoker_RaycastHit2D_t4063908774_Vector2_t2243707579_Vector2_t2243707579_Single_t2076509932_Int32_t2071877448_Single_t2076509932_Single_t2076509932PK10MethodInfoPvPS2_
Bgl:__ZN6il2cpp2vm9Exception28GetMarshalDirectiveExceptionEPKc
ETg:_MulticastDelegate_GetObjectData_m3187757658
xpg:_CanvasScaler_set_referencePixelsPerUnit_m1188599784
pgg:_ReadOnlyCollection_1_System_Collections_IList_get_Item_m887129009_gshared
_od:__ZN5physx2Sc14ConstraintCore13setBreakForceEff
u9:__Z26scripting_class_is_genericP11Il2CppClass
X4b:__ZNK28MonoBehaviourPropertyBinding12SetPPtrValueERKN11UnityEngine9Animation10BoundCurveEi
Wpe:__ZN20TextRenderingPrivate8FontImpl8TransferI14SafeBinaryReadEEvRT_
ORk:__ZL25UnresolvedVirtualCall_164P12Il2CppObject20UIVertex_t1204258818PK10MethodInfo
fhj:__Z59RuntimeInvoker_Boolean_t3825574718_KeyValuePair_2_t38854645PK10MethodInfoPvPS2_
DLb:__ZN9Scripting35ErrorMessageForUnsupportedEnumFieldEP9FieldInfo
GJd:__ZN5physx7NpScene15removeAggregateERNS_11PxAggregateEb
s9h:_GUIStyle_Draw_m4006459684
xGf:_Decimal_System_IConvertible_ToType_m3828527724_AdjustorThunk
_Aa:__ZN9GfxDevice17ImmediateTexCoordEifff
xik:_Parser_ParseRegularExpression_m2390577313
gye:_ft_black_new
rHl:__ZNSt3__28time_putIwNS_19ostreambuf_iteratorIwNS_11char_traitsIwEEEEED2Ev
OUg:_OperatingSystem_Clone_m1943707477
Hjk:_Alternation_AddAlternative_m623421443
Nph:_X509CertificateEnumerator_System_Collections_IEnumerator_Reset_m327358896
aoj:__Z36RuntimeInvoker_Enumerator_t402048720PK10MethodInfoPvPS2_
sXe:_Array_InternalArray__ICollection_CopyTo_TisKeyValuePair_2_t1174980068_m1818152223_gshared
Sbf:_Hash__ctor_m2554411450
i9e:_SHAConstants__cctor_m2781430679
rib:__ZN17FileSystemHandler4CopyER13FileEntryDataS1_
Pdf:_Single_System_IConvertible_ToDateTime_m2510003459_AdjustorThunk
mIf:_Delegate_RemoveImpl_m3666700529
bSl:_emscripten_glUniform4f__wrapper
wjh:_NameObjectCollectionBase_OnDeserialization_m3478980442
txg:_Image_get_mainTexture_m1027716278
Jyg:_InputField_set_caretColor_m2252440840
Z6d:__ZN5physx6shdfnd5ArrayINS_25PxcThresholdStreamElementENS0_19ReflectionAllocatorIS2_EEE8recreateEj
cG:__ZN8Animator8TransferI19StreamedBinaryWriteILb0EEEEvRT_
jXa:__ZNK6Camera16GetProjectionFarEv
E6a:__Z24InverseTransformRotationRK23TransformAccessReadOnlyRKN4math7_float4E
MS:__ZN11AudioSource6UpdateEv
Yqf:_Char_GetHashCode_m2343577184
epk:_StateMachineBehaviour_OnStateExit_m1490844990
NAa:__ZN9GfxDevice21ResetDynamicResourcesEv
Gxl:__ZN6il2cpp2os9FastMutex4LockEv
qvd:__ZN5physx7NpCloth21setCollisionMassScaleEf
l4d:__ZN5physx6shdfnd5ArrayINS_7PxPlaneENS0_19ReflectionAllocatorIS2_EEE8recreateEj
CMk:_Comparison_1_EndInvoke_m4174686984_gshared
WOh:_StreamingContext__ctor_m3063421596_AdjustorThunk
_oe:__ZN13PhysicsModule17GetRigidBodyStateERK9RigidbodyPN8IPhysics14RigidBodyStateE
iNe:__ZN20UnityConnectSettings23VirtualRedirectTransferER18StreamedBinaryReadILb1EE
ufg:_ReadOnlyCollection_1_System_Collections_Generic_IListU3CTU3E_Insert_m3054305464_gshared
Bmi:__ZL70IntPtr_t_CustomAttributesCacheGenerator_IntPtr_op_Explicit_m3896766622P21CustomAttributesCache
eRk:__ZL25UnresolvedVirtualCall_128P12Il2CppObject17Color_t2020392075PK10MethodInfo
SF:__ZN8Animator8TransferI14SafeBinaryReadEEvRT_
mWi:__ZL59PixelPerfectScale_t186103817_CustomAttributesCacheGeneratorP21CustomAttributesCache
Wjb:__ZN17GlobalGameManager23VirtualRedirectTransferER18StreamedBinaryReadILb0EE
rVe:_Array_InternalArray__IndexOf_TisTypeTag_t141209596_m2882894956_gshared
rKj:_Slider_get_value_m4182660424
hHc:__ZNK14b2CapsuleShape5CloneEP16b2BlockAllocator
ty:__ZN17AnimationPlayable34CollectAnimatorControllerPlayablesER13dynamic_arrayIP26AnimatorControllerPlayableLj4EE
OV:__ZN16BaseVideoTexture19UpdateVideoTexturesEv
Tbj:__Z79RuntimeInvoker_RaycastHit2D_t4063908774_Vector2_t2243707579_Vector2_t2243707579PK10MethodInfoPvPS2_
dua:__ZNK16LightmapSettings23HasLightProbeTetrahedraEv
Bch:_Context_get_WriteSequenceNumber_m243492531
zxb:__ZN6Sprite23VirtualRedirectTransferER19StreamedBinaryWriteILb0EE
nsi:__ZL51Assembly_t4268412390_CustomAttributesCacheGeneratorP21CustomAttributesCache
Tff:_String_LastIndexOfAny_m1473637802
qsc:__Z38Transform_CUSTOM_INTERNAL_set_positionP12Il2CppObjectRK8Vector3f
YWj:_Version_CompareTo_m596235198
IUf:_List_1_System_Collections_ICollection_CopyTo_m3062449209_gshared
vla:__ZNK9ShaderLab7Program19HasMatchingVariantsERK13dynamic_arrayI16ShaderKeywordSetLj4EE
uE:__ZN15SerializeTraitsIN4math4trsXEE8TransferI8BlobSizeEEvRS1_RT_
Se:_emscripten_glVertexPointer
wNa:__ZNSt3__26__treeI20DeviceDepthStateGLES11memcmp_lessIS1_S1_ENS_9allocatorIS1_EEE7destroyEPNS_11__tree_nodeIS1_PvEE
zug:_Graphic__ctor_m821539719
STf:_List_1_System_Collections_Generic_ICollectionU3CTU3E_get_IsReadOnly_m1614481629_gshared
M$k:__ZN6il2cpp2vm7Runtime47RaiseExecutionEngineExceptionIfMethodIsNotFoundEPK10MethodInfo
H2a:__Z17GetFrustumPortionPK8Vector3fffPS_
Y8c:__ZNK5physx2Gu22SupportMapRelativeImplINS0_4BoxVEE18doWarmStartSupportEiRNS_6shdfnd3aos5Vec3VE
oWj:_UnauthorizedAccessException__ctor_m259001183
P7e:__ZN18VirtActionInvoker1IP30AsymmetricAlgorithm_t784058677E6InvokeEjPvS1_
Nsk:_TouchScreenKeyboard_set_text_m3456054179
qsg:_DefaultControls_CreateDropdown_m1384069408
wTk:__ZNK15dense_hashtableINSt3__24pairIK10KeyWrapperIPK22Il2CppGenericParameterEP11Il2CppClassEES6_N6il2cpp5utils11PointerHashIS4_EEN14dense_hash_mapIS6_S9_SE_NS0_8equal_toIS6_EENS0_9allocatorISA_EEE9SelectKeyESH_SJ_E5beginEv
vLl:__ZNSt3__26locale5__imp11make_globalEv
dmg:_PointerEventData_get_clickCount_m4064532478
ndg:_ReadOnlyCollection_1_System_Collections_Generic_ICollectionU3CTU3E_get_IsReadOnly_m3508872969_gshared
zpb:__ZN14DirectorPlayerD0Ev
yUg:_NumberFormatter_NumberToString_m3855209845
_Gk:_UnityEvent_1_GetDelegate_m4062537313_gshared
Dzk:_X509Stores_Open_m2057354563
KLf:_CCGregorianCalendar_is_leap_year_m567513478
s3k:__ZNK19ReflectionMapEqualsINSt3__24pairIPK14Il2CppAssemblyP11Il2CppClassEEEclERK10KeyWrapperIS7_ESC_
knh:_Oid_get_Value_m2271181078
gnf:_Attribute_IsDefined_m2118467641
Nkg:_ExecuteEvents_Execute_m898902863
CZj:_InternalEnumerator_1_System_Collections_IEnumerator_get_Current_m3125080595_gshared
f8f:_Collection_1_System_Collections_IList_Add_m2091889616_gshared
fbc:__ZN16StreamedResource8TransferI24GenerateTypeTreeTransferEEvRT_
IIc:__ZN11b2GearJoint4DumpEv
Rtg:_DropdownItem_OnPointerEnter_m761897861
jHb:__ZN19StreamedBinaryWriteILb0EE8TransferINSt3__24pairI8UnityStr4PPtrI6ObjectEEEEEvRT_PKc17TransferMetaFlags
H2c:__ZN5physx3Cct10Controller13onOriginShiftERKNS_6PxVec3E
vKa:__ZN10Matrix3x3f15InvertTransposeEv
cAh:_ValueCollection_CopyTo_m2978431059_gshared
HQe:_Array_InternalArray__ICollection_Remove_TisKeyValuePair_2_t1174980068_m2768765894_gshared
jSe:_Enumerable_Where_TisIl2CppObject_m4266917885_gshared
IBc:__ZN6HelperI8JSONRead23TransferArrayField_InfoE24SerializationFunctionForERKS1_R23StaticTransferFieldInfoPb
pTa:__Z11IsBatchmodev
E5k:__ZNK15dense_hashtableINSt3__24pairIK10KeyWrapperINS1_IPK10MethodInfoP11Il2CppClassEEEjEES9_17ReflectionMapHashIS8_EN14dense_hash_mapIS9_jSD_19ReflectionMapEqualsIS8_ENS0_9allocatorISB_EEE9SelectKeyESG_SI_E10test_emptyERK24dense_hashtable_iteratorISB_S9_SD_SK_SG_SI_E
Gxk:_PKCS12_CertificateSafeBag_m3272197807
$4f:_Collection_1_set_Item_m2199807215_gshared
HVd:__ZN5physx2Gu19_gjkRelativeRayCastINS0_9TriangleVENS0_11ConvexHullVEEEbRT_RT0_RKNS_6shdfnd3aos15PsMatTransformVERKNS9_6FloatVERKNS9_5Vec3VESI_RSD_RSG_SK_f
AOb:__Z29Transfer_Blittable_ArrayFieldI14SafeBinaryRead8Vector3fEvRT_R9ArrayInfoRK23StaticTransferFieldInfo
bUj:_UInt32_System_IConvertible_ToBoolean_m91295134
GOj:_Monitor_Monitor_test_synchronised_m1542589500
NMi:__ZL68RuntimePlatform_t1869584967_CustomAttributesCacheGenerator_WP8PlayerP21CustomAttributesCache
Zqe:__ZN20TextRenderingPrivate8FontImpl18ResetCachedTextureEv
Wli:__ZL75String_t_CustomAttributesCacheGenerator_String_Concat_m626692867____values0P21CustomAttributesCache
jHi:__ZL98GameObject_t1756533147_CustomAttributesCacheGenerator_GameObject_SendMessage_m71956653____options2P21CustomAttributesCache
E0g:_SymmetricTransform_TransformFinalBlock_m4192185386
yFg:_TextInfo__ctor_m1263401274
U_d:__ZNK5physx19ActorAABBUpdateTask7getNameEv
wIk:_ListPool_1_Release_m3047738410_gshared
Lsk:_TouchScreenKeyboard_Open_m913506328
Xrl:_GC_print_finalization_stats
pch:_Context_get_SecurityProtocolFlags_m3295551796
rzh:_ValueCollection__ctor_m927733289_gshared
vHk:_UnityEvent_4_FindMethod_Impl_m4079512420_gshared
bKc:__ZNK12b2WheelJoint10GetAnchorBEv
w3j:_InternalEnumerator_1__ctor_m2981879621_AdjustorThunk
djc:__Z53Register_UnityEngine_Behaviour_get_isActiveAndEnabledv
tGi:__ZL87Component_t3819376471_CustomAttributesCacheGenerator_Component_GetComponent_m4225719715P21CustomAttributesCache
xKb:__ZNK13MonoBehaviour26GetTypeInfoVirtualInternalEv
yJk:_EqualityComparer_1__ctor_m3971803374_gshared
blb:__ZNSt3__26vectorIN4core12basic_stringIcNS1_20StringStorageDefaultIcEEEENS_9allocatorIS5_EEE8__appendEj
$Hl:__ZNKSt3__210moneypunctIwLb0EE13do_pos_formatEv
r2k:_il2cpp_gc_collect
jGb:__ZN26PlayerSettingsSplashScreen8TransferI17RemapPPtrTransferEEvRT_
Hqe:__ZN20TextRenderingPrivate8FontImpl8TransferI17RemapPPtrTransferEEvRT_
n1j:_InternalEnumerator_1_get_Current_m3922357178_gshared
u0k:__ZN6il2cpp6icalls8mscorlib6SystemL17CollectTypeFieldsINS_5utils10functional10TrueFilterEEEvP11Il2CppClassPKS7_iRNSt3__26vectorIP9FieldInfoNSB_9allocatorISE_EEEERKT_
LQi:__ZL72ColorBlock_t2652774230_CustomAttributesCacheGenerator_m_HighlightedColorP21CustomAttributesCache
y9c:__ZN5physx3Scb5Scene20addArticulationJointERNS0_17ArticulationJointE
LAb:__ZN7SubMesh8TransferI18StreamedBinaryReadILb1EEEEvRT_
MRj:_Type_get_IsValueType_m1733572463
qKd:__ZN5physx7NpScene14resetFilteringERNS_12PxRigidActorEPKPNS_7PxShapeEj
evb:__Z13GetTagManagerv
r_j:_InternalEnumerator_1_Dispose_m1748410190_AdjustorThunk
M0i:__Z127RuntimeInvoker_Void_t1841601450_IntPtr_t_Int32_t2071877448_SByte_t454417549_Int32_t2071877448_SByte_t454417549_SByte_t454417549PK10MethodInfoPvPS2_
iRe:_Array_InternalArray__ICollection_Remove_TisUInt16_t986882611_m65494986_gshared
Gdg:_ReadOnlyCollection_1_IndexOf_m3054637117_gshared
_E:__ZN11UnityEngine9Animation37HasGenericRootTransformPropertyValuesERKNS0_30AnimatorGenericBindingConstantEb
ZW:__ZN11UnityEngine15CloudWebService17CloudJobSchedulerD0Ev
Lef:_String_System_IConvertible_ToBoolean_m2696751322
Lsa:__ZN18LoadSceneOperation7PerformEv
mqe:__ZNSt3__26vectorI8UnityStr13stl_allocatorIS1_L18MemLabelIdentifier34ELi16EEE8__appendEj
u1j:_InternalEnumerator_1__ctor_m3228997263_AdjustorThunk
u4h:_GUILayer_INTERNAL_CALL_HitTest_m693512502
NTc:__ZL30GeomMTDCallback_CapsuleCapsuleRN5physx6PxVec3ERfRKNS_10PxGeometryERKNS_11PxTransformES5_S8_
$y:__ZN7mecanim9animation17DestroyClipOutputEPNS0_10ClipOutputERNS_6memory9AllocatorE
Bng:__ZN16VirtFuncInvoker1IfP8String_tE6InvokeEjPvS1_
ZM:__ZL16FMOD_ErrorString11FMOD_RESULT_464
zsj:_Camera_get_pixelRect_m2084185953
PSk:__ZL25UnresolvedVirtualCall_219P12Il2CppObjecti20Playable_t3667545548PK10MethodInfo
c0c:__ZL18intersectAnyVsMeshILi0EEbPKN5physx2Gu6SphereEPKNS1_7CapsuleEPKNS1_3BoxERKNS1_13RTreeMidphaseERKNS0_11PxTransformERKNS0_11PxMeshScaleEP14LimitedResults
nQj:_TimeSpan__ctor_m1888018443_AdjustorThunk
kca:__ZL23AddConflictingClassIMPL11ClassIDTypeS_
Pw:__ZN19StreamedBinaryWriteILb0EE21TransferSTLStyleArrayI22OffsetPtrArrayTransferIN7mecanim9animation10ValueDeltaEEEEvRT_17TransferMetaFlags
Xwf:_SyncHashtable_get_Count_m3694444082
ogd:__ZN5physx14NpArticulation6wakeUpEv
Oal:__ZNSt3__26vectorINS_12basic_stringIcNS_11char_traitsIcEENS_9allocatorIcEEEENS4_IS6_EEE8allocateEj
Dej:__Z131RuntimeInvoker_Void_t1841601450_Il2CppObject_AnimatorStateInfo_t2577870592_Int32_t2071877448_AnimatorControllerPlayable_t4078305555PK10MethodInfoPvPS2_
ULa:__ZN22VertexDeclarationCache5ClearEv
IXl:_emscripten_glUniform2i__wrapper
hBf:_Double_Parse_m2344589511
MVa:__ZN6Camera24PrepareCullingParametersERK23CameraCullingParameters13RenderingPathR11CullResults
N8i:__Z54RuntimeInvoker_Vector3_t2243707580_Vector3_t2243707580PK10MethodInfoPvPS2_
ucj:__Z54RuntimeInvoker_Vector2_t2243707579_Vector2_t2243707579PK10MethodInfoPvPS2_
gyi:__ZL84Evidence_t1407710183_CustomAttributesCacheGenerator_Evidence_GetHashCode_m1260371757P21CustomAttributesCache
JZa:__ZN13MonoBehaviour30InvokeMethodOrCoroutineCheckedE21ScriptingMethodIl2CppP12Il2CppObjectPP15Il2CppException
xdg:_ReadOnlyCollection_1_System_Collections_ICollection_get_IsSynchronized_m2344337514_gshared
ePb:__Z26Transfer_UnityEngineObjectI17RemapPPtrTransferLb0EEvRK29SerializationCommandArgumentsR31RuntimeSerializationCommandInfo
nLi:__ZL92GUILayout_t2579273657_CustomAttributesCacheGenerator_GUILayout_Label_m3466110979____options1P21CustomAttributesCache
fAk:_BlockerScript_Update_m951427639
bgf:_String_IsNullOrEmpty_m2802126737
Vpf:_Byte_Parse_m1442736478
rCa:__ZN13GfxDeviceGLES15OnDeviceCreatedEb
eJg:_Int64_Parse_m3258022240
Off:_String_IndexOfOrdinal_m3591623977
S7a:__ZN10GameObject12SetHideFlagsEi
ZQh:_CryptoConfig_EncodeLongNumber_m2352037787
rSj:_Type_GetMethod_m475234662
vef:_Single_GetHashCode_m3102305584
FNf:_KeyValuePair_2__ctor_m1877755778_AdjustorThunk
xbk:_ActivationServices_get_ConstructionActivator_m1726426854
Yid:__ZNK5physx15NpActorTemplateINS_18PxArticulationLinkEE22getClientBehaviorFlagsEv
IAi:__ZL76Convert_t2607082565_CustomAttributesCacheGenerator_Convert_ToChar_m245844937P21CustomAttributesCache
bAi:__ZL52Activator_t1850728717_CustomAttributesCacheGeneratorP21CustomAttributesCache
Zsl:_GC_adj_bytes_allocd
dLj:_SpriteState_t1353336012_marshal_pinvoke_cleanup
ZWe:_Array_InternalArray__ICollection_Add_TisKeyframe_t1449471340_m887263954_gshared
Uce:__ZN5physx20InternalTriangleMesh16allocateVerticesEj
buk:_UIVertex__cctor_m803910084
FYe:_Array_InternalArray__Insert_TisDateTime_t693205669_m1484996356_gshared
OUf:_List_1_System_Collections_IList_Remove_m3933652540_gshared
zFh:_DefaultComparer_GetHashCode_m926674183_gshared
WNg:_MonoIO_get_ConsoleInput_m2976499023
t_h:_OpCode_get_Size_m481593949_AdjustorThunk
tuf:_BitArrayEnumerator_checkVersion_m3839504595
xlf:_Array_GetUpperBound_m1352329707
PSa:__ZZ23InitPlayerLoopCallbacksvEN36UpdateScriptRunBehaviourUpdatestruct7ForwardEv
aZd:__ZN5physx6shdfnd5ArrayINS_17PxcBroadPhasePairENS0_19ReflectionAllocatorIS2_EEE8recreateEj
W1e:_Mesh_SetListForChannel_TisIl2CppObject_m2261448912_gshared
t8i:__Z61RuntimeInvoker_Void_t1841601450_Byte_t3683104436_Il2CppObjectPK10MethodInfoPvPS2_
Wah:_RecordProtocol__ctor_m168945279
GFf:_DateTimeOffset_Equals_m3728302791_AdjustorThunk
o_c:__ZThn4_N16RayRTreeCallbackILi1ELb0EED1Ev
Jfe:__ZN5physx17ConvexMeshBuilder22computeInternalObjectsEv
Gai:_GUIStyleState_t3801000545_marshal_pinvoke_back
s2a:__ZN20SphericalHarmonicsL219AddDirectionalLightERKN4math7_float3ERKNS0_7_float4E
Cbe:__ZN5physx13BigConvexDataD2Ev
kRj:_TimeSpan_op_GreaterThanOrEqual_m3997050520
zBi:__ZL77Convert_t2607082565_CustomAttributesCacheGenerator_Convert_ToUInt16_m36213644P21CustomAttributesCache
J4:__Z26ScheduleJobForEachInternalR8JobFencePFvPvjES1_iPFvS1_E11JobPriority
vnh:_OidEnumerator_MoveNext_m1889267785
rfc:__ZN9Scripting18RaiseMonoExceptionEPKcz
DJi:__ZL76Physics_t634932869_CustomAttributesCacheGenerator_Physics_Raycast_m780162053P21CustomAttributesCache
isb:__ZN9Texture2D8TransferI19StreamedBinaryWriteILb0EEEEvRT_
yJb:__ZN24RingBufferMemoryFileData6UnlockEPv
C7h:_GUISkin_set_box_m877476512
Utg:_OptionData__ctor_m3070653720
lIk:_TweenRunner_1_StartTween_m3792842064_gshared
d8b:__ZN9ShaderLab16FastPropertyName15InitBy28BitHashEj
Xdf:_Single_System_IConvertible_ToInt32_m3269519527_AdjustorThunk
MUk:__ZN6il2cpp2vm5Class7GetNameEP11Il2CppClass
PXb:__ZN13MonoBehaviour18TransferEngineDataI18StreamedBinaryReadILb0EEEE4PPtrI10MonoScriptERT_
e8e:_SHA1Internal_ProcessBlock_m4070037334
uul:__ZN6il2cpp6icalls8mscorlib6System10Reflection14MonoMethodInfo15get_method_infoE12Il2CppIntPtrP16Il2CppMethodInfo
Dkf:_UTF32Encoding_GetDecoder_m2714144074
$Jh:_ObjRef_GetObjectData_m3081609242
d$d:__ZN5physx20updateBodyShapeAABBsEPKjjS1_PKNS_17PxcAABBDataStaticEPNS_11IntegerAABBEj
$zb:__ZN17PackedFloatVector12UnpackFloatsEPfiiii
Oyi:__ZL113EncoderReplacementFallback_t4228544112_CustomAttributesCacheGenerator_EncoderReplacementFallback__ctor_m517300448P21CustomAttributesCache
xbg:_ReadOnlyCollection_1__ctor_m3671019970_gshared
JWf:_List_1_System_Collections_Generic_ICollectionU3CTU3E_get_IsReadOnly_m3511020562_gshared
RBa:__ZN13GfxDeviceGLES21DestroyComputeProgramER12ObjectHandleI18ComputeProgram_TagPvE
GAf:_Convert_ToDecimal_m2007036836
$ca:__ZN17UniqueIDGenerator16DestroyPureIndexEj
TZb:__ZN14SafeBinaryRead21TransferSTLStyleArrayINSt3__26vectorIN9ShaderLab20SerializedSubProgram12UAVParameterENS1_9allocatorIS5_EEEEEEvRT_17TransferMetaFlags
Edk:_Context_NotifyDynamicSinks_m1367144344
qHi:__ZL126QualitySettings_t3238033062_CustomAttributesCacheGenerator_QualitySettings_IncreaseLevel_m3146283550____applyExpensiveChanges0P21CustomAttributesCache
T$:__ZNK13BaseAllocator10IsAssignedEv
qZ:__ZN24TextDOMTransferWriteBaseI9JSONWriteE12PushMetaFlagEi
A1g:__ZN16VirtFuncInvoker1I25DSAParameters_t1872138834bE6InvokeEjPvb
Xud:__ZN5physx7NpCloth22removeCollisionCapsuleEj
Xch:_Context_get_Current_m2717045324
LWi:__Z45RuntimeInvoker_Int16_t4041245914_Il2CppObjectPK10MethodInfoPvPS2_
pyk:_X509Certificate_GetSubjectName_m1189079906
Ctg:_Dropdown_DestroyItem_m234623804
abh:_TlsClientCertificateVerify__ctor_m110646389
Yqa:__ZN6prcoreL26RemapGenericIntegerToFloatI17TexFormatARGB888815TexFormatRFloatEEvPKNS_9InnerInfoE
A$:__ZN5Mutex6UnlockEv
Yrc:__Z60Register_UnityEngine_RenderTexture_Internal_SetSRGBReadWritev
Ndk:_Context_GetServerContextSinkChain_m390126977
Cal:__ZN6il2cpp2vm17TypeNameParseInfoD2Ev
P5k:__ZNK15dense_hashtableINSt3__24pairIK10KeyWrapperINS1_IPK11Il2CppImageP11Il2CppClassEEEjEES9_17ReflectionMapHashIS8_EN14dense_hash_mapIS9_jSD_19ReflectionMapEqualsIS8_ENS0_9allocatorISB_EEE9SelectKeyESG_SI_E13find_positionERSA_
e7d:__ZN5physx18PxsSolverStartTask16articulationTaskEv
O$e:_Array_Sort_TisIl2CppObject_m143182644_gshared
CPg:_StringReader_Read_m513112775
kub:__ZNK8Renderer8GetLayerEv
Iad:__ZN5physx6shdfnd4sortIPvNS0_4LessIS2_EENS0_19ReflectionAllocatorINS_2Cm5BlockIS2_Lj16EEEEEEEvPT_jRKT0_RKT1_j
G1c:__ZN5physx3Cct17CapsuleController18setNonWalkableModeENS_27PxControllerNonWalkableMode4EnumE
Uad:__ZN5physx2Sc11InteractionD2Ev
m3f:_Collection_1_Add_m2613548553_gshared
WA:__ZN7mecanim9animation22DestroyBlendTreeOutputEPNS0_15BlendTreeOutputERNS_6memory9AllocatorE
P2a:__ZNK6Camera20GetReplacementShaderEv
xod:__ZN18MultiQueryCallbackIN5physx12PxRaycastHitEE6invokeERfPKNS0_2Sq13PrunerPayloadEj
qGf:_Decimal__ctor_m569480123_AdjustorThunk
Gkh:_HttpWebRequest__cctor_m3013631978
zUc:__ZN5physx2Gu9ContainerC2Ev
a_b:__ZNSt3__26vectorIN9ShaderLab20SerializedSubProgram14ConstantBufferENS_9allocatorIS3_EEE7reserveEj
Kua:__ZL23stbir__calculate_memoryP11stbir__info
ipg:_Button_OnPointerClick_m2524861687
j7i:__Z90RuntimeInvoker_Boolean_t3825574718_Int32_t2071877448_Int32U26_t455636984_Int32_t2071877448PK10MethodInfoPvPS2_
d_g:_KeyGeneratedEventHandler_EndInvoke_m1587195139
ZFd:__ZN5physx15NpActorTemplateINS_13PxRigidStaticEE13setActorFlagsENS_7PxFlagsINS_11PxActorFlag4EnumEtEE
gHj:_Scrollbar_FindSelectableOnRight_m3219495255
Rq:__ZN9Behaviour11FixedUpdateEv
oHb:__ZNK30RuntimeInitializeOnLoadManager26GetTypeInfoVirtualInternalEv
HFe:__ZNSt3__227__insertion_sort_incompleteIRPFbPN2UI6CanvasES3_EPS3_EEbT0_S8_T_
wGc:__ZNK9rapidjson12GenericValueINS_4UTF8IcEE13JSONAllocatorE6AcceptINS_12PrettyWriterI16TempBufferWriterS2_S2_S3_EEEEbRT_
pDd:__ZN5physx19NpRigidBodyTemplateINS_14PxRigidDynamicEE11attachShapeERNS_7PxShapeE
nIi:__ZL106Material_t193706927_CustomAttributesCacheGenerator_Material_Internal_CreateWithShader_m4029381963____mono0P21CustomAttributesCache
oYe:_Array_InternalArray__ICollection_CopyTo_TisVector3_t2243707580_m509487340_gshared
lwg:_GridLayoutGroup_get_constraint_m1351424857
$Bc:__ZL26Transfer_SimpleNativeClassI8JSONRead10RectOffsetLb1EEvRK29SerializationCommandArgumentsR31RuntimeSerializationCommandInfo
TIe:__Z44CanvasRenderer_CUSTOM_INTERNAL_CALL_SetColorP12Il2CppObjectRK10ColorRGBAf
hNi:__ZL68PreferBinarySerialization_t2472773525_CustomAttributesCacheGeneratorP21CustomAttributesCache
yrl:_GC_should_collect
Hfe:__ZN5physx2Gu27computeBoundsAroundVerticesERNS_9PxBounds3EjPKNS_6PxVec3E
Lbk:_UrlAttribute_Equals_m1587451932
g3:__ZNSt3__26__treeINS_12basic_stringIcNS_11char_traitsIcEENS_9allocatorIcEEEENS_4lessIS6_EENS4_IS6_EEE12__find_equalIS6_EERPNS_16__tree_node_baseIPvEESG_RKT_
$Ec:__Z18Transfer_BlittableI9JSONWriteLb1EsEvRK29SerializationCommandArgumentsR31RuntimeSerializationCommandInfo
wJd:__ZNK5physx7NpScene9getLimitsEv
vHg:_Int16_ToString_m4099416068_AdjustorThunk
$Rh:_DSAParameters_t1872138834_marshal_pinvoke_cleanup
oka:__ZN6ObjectD2Ev
iSa:__ZZ23InitPlayerLoopCallbacksvEN44EarlyUpdateResetFrameStatsAfterPresentstruct7ForwardEv
a5h:_GUILayoutUtility_GetRect_m1611020398
bWd:__ZNK5physx2Gu29EPASupportMapPairRelativeImplINS0_9TriangleVENS0_8CapsuleVEE9doSupportERKNS_6shdfnd3aos5Vec3VERS7_SA_SA_
Ns:__ZN13AnimationClip16DecompressCurvesERNSt3__26vectorI24CompressedAnimationCurve13stl_allocatorIS2_L18MemLabelIdentifier25ELi16EEEE
VZd:__ZN3MBP12updateObjectEjRK5IAABB
taj:__Z64RuntimeInvoker_Void_t1841601450_Il2CppObject_Vector3_t2243707580PK10MethodInfoPvPS2_
Gyg:_InputField_get_placeholder_m1768315947
Kdd:__ZN5physx6shdfnd5ArrayINS_6PxVec3ENS0_19ReflectionAllocatorIS2_EEE15growAndPushBackERKS2_
UAa:__ZN13GfxDeviceGLES22ReleaseThreadOwnershipEv
kgk:_MethodCall_Init_m3987198685
Jgl:__ZN6il2cpp2os19ReleaseSocketHandleEj
dyi:__ZL59ApplicationTrust_t3968282840_CustomAttributesCacheGeneratorP21CustomAttributesCache
ppi:__ZL128SafeHandleZeroOrMinusOneIsInvalid_t1177681199_CustomAttributesCacheGenerator_SafeHandleZeroOrMinusOneIsInvalid__ctor_m3340306667P21CustomAttributesCache
J_h:_TypeBuilder_GetPropertyImpl_m1854119335
nDj:_GUI_Slider_m1242616654
uLb:__Z30GetOrCreateObjectStoredInFieldP9FieldInfoRK17GeneralMonoObjectb
uNd:__ZN5physx2Sc5Scene20fireTriggerCallbacksEv
fWh:_TypeBuilder_get_next_table_index_m1415870184
GNl:___cxa_can_catch
b6g:_SequentialSearchPrimeGeneratorBase_GenerateNewPrime_m296245934
_qf:_Char_GetUnicodeCategory_m4273361321
Nli:__ZL63String_t_CustomAttributesCacheGenerator_String_Split_m394273024P21CustomAttributesCache
OYk:__ZN15dense_hashtableINSt3__24pairIK10KeyWrapperIPK19Il2CppGenericMethodEPK26Il2CppGenericMethodIndicesEES6_N6il2cpp8metadata23Il2CppGenericMethodHashEN14dense_hash_mapIS6_SA_SE_NSD_26Il2CppGenericMethodCompareENS0_9allocatorISB_EEE9SelectKeyESG_SI_E12maybe_shrinkEv
RFe:__ZN2UI11CanvasGroup23VirtualRedirectTransferER19StreamedBinaryWriteILb0EE
qVd:__ZN5physx2Gu18GJKRelativeRayCastERNS0_8CapsuleVERNS0_4BoxVERKNS_6shdfnd3aos15PsMatTransformVERKNS6_6FloatVERKNS6_5Vec3VESF_RSA_RSD_SH_fb
jni:__ZL74Il2CppArray_CustomAttributesCacheGenerator_Array_GetLongLength_m3005360186P21CustomAttributesCache
jV:__ZN10AudioMixer6UpdateEf
FIa:__ZNK13TranslateGLES23VertexArraySizeBitfieldEi
vdk:_Identity_get_ClientDynamicProperties_m767245959
AZj:_InternalEnumerator_1__ctor_m675130983_AdjustorThunk
KAh:_Dictionary_2_Clear_m899854001_gshared
Gll:__ZN6il2cpp2os5posix15PosixWaitObjectC2ENS2_4TypeE
B_a:__ZN6Camera21PostMultiCustomRenderENS_10RenderFlagEb
WCj:_GUI_Button_m2919274209
aLa:__ZN14DrawBufferGLESI11IndexBuffer26IndexBufferUsageMapperGLESED0Ev
Ybd:__ZN5physx15PxsArticulationD2Ev
sPk:__ZL24UnresolvedVirtualCall_34P12Il2CppObjectS0_PK10MethodInfo
GAk:_GameOver_displayText_m3916492186
xxa:__ZN23ShaderVariantCollection13WarmupShadersEv
och:_Context_set_ProtocolNegotiated_m1177527245
fUj:_UInt32_System_IConvertible_ToChar_m1056040486
M3e:_ScriptableObject_CreateInstance_TisIl2CppObject_m926060499_gshared
fih:_TlsStream_get_Length_m1562309511
jta:__Z27scripting_gc_collect_unsafei
xV:__ZN11AudioModule20SuspendVideoTexturesEv
wuf:_CaseInsensitiveComparer__ctor_m1125492797
D7b:__ZN12CubemapArrayC2E18MemLabelIdentifier18ObjectCreationMode
iFd:__ZN5physx13NpRigidStaticC2ERKNS_11PxTransformE
fzf:_Convert_ToByte_m395020137
BQb:__Z26Transfer_UnityEngineObjectI24GenerateTypeTreeTransferLb0EEvRK29SerializationCommandArgumentsR31RuntimeSerializationCommandInfo
TPc:__ZN10Collider2D16RecreateColliderEbP11Rigidbody2D
wBe:_UNITY_FT_GlyphLoader_CheckPoints
wYf:_List_1_System_Collections_ICollection_CopyTo_m1995866425_gshared
FKc:__ZN16b2PolygonContact7DestroyEP9b2ContactP16b2BlockAllocator
IMl:___cxa_get_globals_fast
CVd:__ZN5physxL20PxcSweepBoxTrianglesERKNS_11PxsCCDShapeES2_RKNS_11PxTransformES5_S5_S5_fRNS_6PxVec3ES7_RNS_10PxcNpCacheERNS_18PxcNpThreadContextERKNS_2Cm23FastVertex2ShapeScalingERNS_2Gu9TriangleVEf
rQg:_TextWriter_WriteLine_m1754475888
X2c:__ZN5physx3Cct15ObstacleContextD0Ev
e5k:__ZN15dense_hashtableINSt3__24pairIK10KeyWrapperINS1_IPK10MethodInfoP11Il2CppClassEEEjEES9_17ReflectionMapHashIS8_EN14dense_hash_mapIS9_jSD_19ReflectionMapEqualsIS8_ENS0_9allocatorISB_EEE9SelectKeyESG_SI_E6insertERKSB_
Tta:__ZN10Matrix4x4fmLERKS_
TEk:_InvokableCall_1_Invoke_m769918017_gshared
kr:__ZN4PPtrI9TransformE8TransferI18StreamedBinaryReadILb0EEEEvRT_
F2e:_Array_InternalArray__get_Item_TisDouble_t4078015681_m2215331088_gshared
myi:__ZL57PrincipalPolicy_t289802916_CustomAttributesCacheGeneratorP21CustomAttributesCache
X6f:_Collection_1_ClearItems_m3446813399_gshared
ffa:__ZN18AssetBundleManagerC2Ev
oRa:__ZN15ArchiveReadFileD0Ev
x0g:_SymmetricTransform_TransformBlock_m1524716432
aea:__ZN18ConcurrentFreeListI28FileTextureUploadInstructionE7CleanUpEv
k7k:__ZN15dense_hashtableINSt3__24pairIK10KeyWrapperINS1_IPK9EventInfoP11Il2CppClassEEEjEES9_17ReflectionMapHashIS8_EN14dense_hash_mapIS9_jSD_19ReflectionMapEqualsIS8_ENS0_9allocatorISB_EEE9SelectKeyESG_SI_E4swapERSL_
WTe:_Array_compare_TisColor32_t874517518_m3842009370_gshared
JLe:__ZN11UnityEngine15PlatformWrapper18GetOperatingSystemEv
XGa:__ZNSt3__26vectorIP14DataBufferGLESNS_9allocatorIS2_EEE21__push_back_slow_pathIKS2_EEvRT_
lOd:__ZN5physx3Scb9Aggregate9syncStateERNS0_5SceneE
JFi:__ZL61ExtensionAttribute_t1840441203_CustomAttributesCacheGeneratorP21CustomAttributesCache
Bgg:_ReadOnlyCollection_1_System_Collections_Generic_ICollectionU3CTU3E_Remove_m974176789_gshared
PHf:_Delegate_return_type_match_m4278947849
xAg:_InputField_GenerateHightlight_m1346735465
B0k:__ZN6il2cpp6icalls8mscorlib6System8MonoType19GetGenericArgumentsEP20Il2CppReflectionType
rNl:__ZNSt8bad_castD0Ev
yyf:_GC_SuppressFinalize_m953228702
sBe:_FT_MSB
hMe:__ZNSt3__26__treeINS_12__value_typeI8UnityStr14CallbackArray2IRKS2_R8JSONReadEEENS_19__map_value_compareIS2_S9_NS_4lessIS2_EELb1EEE13stl_allocatorIS9_L18MemLabelIdentifier5ELi16EEE7destroyEPNS_11__tree_nodeIS9_PvEE
Zgh:_InternalAsyncResult_get_ProceedAfterHandshake_m552962842
cai:_GUIStyle_get_clipping_m2754700641
C4i:__Z50RuntimeInvoker_SByte_t454417549_Double_t4078015681PK10MethodInfoPvPS2_
NLh:_SoapServices_PreLoad_m490411755
hxl:__ZN6il2cpp6icalls8mscorlib4Mono8Security12Cryptography18KeyPairPersistence10_CanSecureEP12Il2CppString
iaj:__Z141RuntimeInvoker_Void_t1841601450_Il2CppObject_Int32_t2071877448_Int32_t2071877448_Int32_t2071877448_SByte_t454417549_SByte_t454417549_IntPtr_tPK10MethodInfoPvPS2_
Sjd:__ZN5physx7NpActor17resolveReferencesERNS_24PxDeserializationContextE
_Jj:_Slider__ctor_m3124136916
a8j:_DefaultComparer__ctor_m3180706193_gshared
p_f:_List_1_System_Collections_Generic_IEnumerableU3CTU3E_GetEnumerator_m3625278020_gshared
Iya:__ZN13GfxDeviceGLES14SetRasterStateEPK17DeviceRasterState
oLb:__Z26scripting_field_get_offsetP9FieldInfo
IMb:__Z30TransferField_LinearCollectionI14SafeBinaryReadEvRK29SerializationCommandArgumentsR31RuntimeSerializationCommandInfo
g6c:__ZN5physx6shdfnd8internal8HashBaseINS0_4PairIKPKNS_2Sc8ShapeSimENS4_10NPhaseCore16ClothListElementEEES7_NS0_4HashIS7_EENS1_11HashMapBaseIS7_SA_SD_NS0_9AllocatorEE6GetKeyESF_Lb1EE5eraseERS8_
nzg:_InputField_set_caretPositionInternal_m231166704
bLb:__Z23TransferScriptingObjectI14SafeBinaryReadEvRT_P12Il2CppObjectP11Il2CppClassPK15MonoScriptCache
N5c:__ZN5physx5Elems17setStaticAABBDataEjRKNS_17PxcAABBDataStaticE
Kbh:_TlsServerHello__ctor_m3032108168
Nia:__ZN14SafeBinaryRead11EndTransferEv
a8k:__ZN14dense_hash_mapI10KeyWrapperIPK10Il2CppTypeEjN6il2cpp8metadata14Il2CppTypeHashENS6_17Il2CppTypeCompareENSt3__29allocatorINS9_4pairIKS4_jEEEEEC2EjRKS7_RKS8_
Sri:__ZL98ILGenerator_t99948092_CustomAttributesCacheGenerator_ILGenerator_Mono_GetCurrentOffset_m3553856682P21CustomAttributesCache
g1c:__ZN5physx11PxHitBufferINS_12PxRaycastHitEE14processTouchesEPKS1_j
r$:__ZNK3WWW12GetAudioClipEv
wMb:__ZN14SafeBinaryRead8TransferI8MonoPPtrEEvRT_PKc17TransferMetaFlags
QCh:_Dictionary_2_System_Collections_Generic_ICollectionU3CSystem_Collections_Generic_KeyValuePairU3CTKeyU2CTValueU3EU3E_Remove_m1705959559_gshared
K5j:_InternalEnumerator_1_System_Collections_IEnumerator_get_Current_m1533037706_gshared
dKa:__ZN21UniformBufferTFMethod13MapBoneBufferEj
Jfh:_RecordProtocol_SendChangeCipherSpec_m3542001341
q5k:__ZN15dense_hashtableINSt3__24pairIK10KeyWrapperINS1_IPK10MethodInfoP11Il2CppClassEEEjEES9_17ReflectionMapHashIS8_EN14dense_hash_mapIS9_jSD_19ReflectionMapEqualsIS8_ENS0_9allocatorISB_EEE9SelectKeyESG_SI_E4swapERSL_
B_e:_Array_InternalArray__set_Item_TisVector3_t2243707580_m1390667454_gshared
a$f:_List_1_Sort_m3574220472_gshared
Mdl:__ZNSt3__26vectorIcNS_9allocatorIcEEEC2Ej
G5b:__ZN13TrailRenderer21ReleaseGeometryJobMemEP25DynamicVBOGeometryJobData
gnc:__Z40Register_UnityEngine_Input_GetKeyDownIntv
s_g:_KeyPairPersistence_CanSecure_m2251009700
oSa:__ZZ23InitPlayerLoopCallbacksvEN27FixedUpdateClearLinesstruct7ForwardEv
gAb:__ZN10VertexData6ResizeEjjjRK19VertexStreamsLayoutRK20VertexChannelsLayout
zac:__ZN14DirectorPlayer8TransferI14SafeBinaryReadEEvRT_
VIh:_ReturnMessage_get_Properties_m531965085
jYh:_GenericTypeParameterBuilder_IsSubclassOf_m563999142
saa:__ZN14SerializedFileD2Ev
Ere:__ZNSt3__26vectorIN20TextRenderingPrivate8FontImpl7IntRectE13stl_allocatorIS3_L18MemLabelIdentifier34ELi16EEE21__push_back_slow_pathIKS3_EEvRT_
K4:__Z21CompleteFenceInternalR8JobFence
nwc:__Z30Event_Get_Custom_PropModifiersP12Il2CppObject
Vbd:__ZN5physx6shdfnd5ArrayIPvNS0_16AlignedAllocatorILj64ENS0_9AllocatorEEEE15growAndPushBackERKS2_
gDh:_Dictionary_2_ContainsValue_m2375979648_gshared
Jy:__ZN7mecanim9animation16CreateClipOutputEPKNS0_4ClipERNS_6memory9AllocatorE
GYe:_Array_InternalArray__Insert_TisDecimal_t724701077_m1429254816_gshared
HIk:_ListPool_1_Get_m2998644518_gshared
jVb:__ZN18StreamedBinaryReadILb0EE21TransferSTLStyleArrayI13dynamic_arrayIyLj8EEEEvRT_17TransferMetaFlags
N3i:__Z76RuntimeInvoker_IntPtr_t_SByte_t454417549_Il2CppObject_BooleanU26_t3168250738PK10MethodInfoPvPS2_
f3k:__ZN6il2cpp2vm10Reflection17GetAssemblyObjectEPK14Il2CppAssembly
ZFa:__ZN18AsyncUploadManager17DoScaledPaddedJobEP28FileTextureUploadInstruction
k2c:__ZN5physx3Cct12SweptCapsuleC2Ev
jHe:__ZN2UIL31GenerateRenderableUIInstructionEPNS_28PreprocessUIInstructionsDataEj
XYb:__ZN6Shader21AwakeFromLoadThreadedEv
S4e:__ZN16VirtFuncInvoker0IiE6InvokeEjPv
WIl:__ZNSt3__28messagesIwED0Ev
Zpa:__ZN6prcoreL17RemapGenericFloatI17TexFormatRGBFloat17TexFormatRGBAHalfEEvPKNS_9InnerInfoE
Xpk:_TextEditor_MoveDown_m3610827042
jSi:__ZL70InputField_t1631627530_CustomAttributesCacheGenerator_m_CharacterLimitP21CustomAttributesCache
e$f:_List_1_get_Capacity_m2443158653_gshared
cDc:__ZN8JSONRead21TransferSTLStyleArrayI13dynamic_arrayI8Vector2fLj4EEEEvRT_18MemLabelIdentifier17TransferMetaFlags
kne:__ZN5physx24PxcContactBoxHeightFieldERKNS_2Gu13GeometryUnionES3_RKNS_11PxTransformES6_RKfRNS_10PxcNpCacheERNS0_13ContactBufferE
fyl:__ZN6il2cpp2os9SemaphoreC2Eii
yZj:_InternalEnumerator_1_get_Current_m2960188445_AdjustorThunk
FOb:__ZNSt3__26vectorI8MonoPPtr13stl_allocatorIS1_L18MemLabelIdentifier1ELi16EEE8__appendEj
BLj:_Text_set_alignByGeometry_m1514652028
d1i:__Z92RuntimeInvoker_Void_t1841601450_Il2CppObject_Il2CppObject_SByte_t454417549_Int32_t2071877448PK10MethodInfoPvPS2_
oKa:__ZN15UniformTFMethod20IsBoneCountSupportedEi
L_d:__ZNK5physx23AggregateAABBUpdateTask7getNameEv
j2a:__ZN14qsort_internal31_FindAndMovePivotToLastPositionIP21ForwardRenderPassDataiN23ForwardShaderRenderLoop18RenderObjectSorterILb1EEEEEvT_S6_T0_T1_
kaf:_X509Certificate_GetExpirationDateString_m2351894475
fii:_Rect_Contains_m1334685291_AdjustorThunk
sMg:_FileStream_get_Position_m465478322
NPl:dynCall_viidi
KYe:_Array_InternalArray__Insert_TisInt64_t909078037_m3039874636_gshared
iof:_Convert_ToInt16_m1787678274
mMj:_ToggleGroup_NotifyToggleOn_m997426227
Tfh:_RSASslSignatureDeformatter_SetKey_m1150106904
$Ki:__ZL74Event_t3028476042_CustomAttributesCacheGenerator_Event_Cleanup_m1195902101P21CustomAttributesCache
zCh:_Dictionary_2_ContainsKeyValuePair_m3818021458_gshared
r7:__ZN24ScriptingMethodFiltering17FilterOnSignatureENS_18MethodSearchFilterE
xVh:_TypeBuilder_get_Module_m1668298460
Gae:__ZN5physx13NpClothFabric16scaleRestlengthsEf
U0:__ZN18ScreenManagerWebGL13SetLockCursorE14CursorLockMode
QAe:_cf2_arrstack_finalize
RSg:_MonoType_GetMethodsByName_m1854415088
oWh:_DerivedType_GetMethods_m165266904
PTk:__ZN15dense_hashtableINSt3__24pairIK10KeyWrapperIPK22Il2CppGenericParameterEP11Il2CppClassEES6_N6il2cpp5utils11PointerHashIS4_EEN14dense_hash_mapIS6_S9_SE_NS0_8equal_toIS6_EENS0_9allocatorISA_EEE9SelectKeyESH_SJ_E15insert_noresizeERKSA_
b0g:_RSAManaged_EncryptValue_m4089823119
Q4b:__ZN13MonoBehaviour19HandleNotificationsEPviR11MessageData
Q_e:_Array_qsort_TisPlayable_t3667545548_m1963915233_gshared
mZk:__ZN6il2cpp2vm13MetadataCache23GetMethodGenericContextEPK10MethodInfo
LEh:_DefaultComparer_GetHashCode_m926363525_gshared
V8h:_GUIStyle_set_focused_m1547304893
oFd:__ZNK5physx13NpRigidStatic7getTypeEv
SHj:_ScrollRect_get_verticalScrollbar_m2455612493
qej:__Z69RuntimeInvoker_Void_t1841601450_Int32_t2071877448_HitInfo_t1761367055PK10MethodInfoPvPS2_
rka:__ZNK11NamedObject26GetTypeInfoVirtualInternalEv
hNg:_ReadDelegate_Invoke_m2091885836
zXh:_TypeBuilder_GetField_m2112455315
JSl:b58
KSl:b59
MWf:_List_1_System_Collections_IList_get_IsFixedSize_m3412144440_gshared
DSl:b52
ESl:b53
BSl:b50
Dfj:__Z51RuntimeInvoker_Vector4_t2243707581_SByte_t454417549PK10MethodInfoPvPS2_
G2d:__ZN5physx9PxTaskMgrD0Ev
ISl:b57
FSl:b54
GSl:b55
UXg:_Kernel_Multiply_m3585610531
f9g:_CertificateSelectionCallback_EndInvoke_m3525317639
Y5b:__ZN13TrailRenderer11TrailPointsD0Ev
qS:__ZN4PPtrI15AudioMixerGroupE8TransferI18StreamedBinaryReadILb0EEEEvRT_
FYi:__Z67RuntimeInvoker_Void_t1841601450_Int32_t2071877448_Int16_t4041245914PK10MethodInfoPvPS2_
Nlf:_Array_CreateInstance_m3310016470
Nmf:_SimpleEnumerator_Reset_m1341779532
Xal:__ZNSt3__214__split_bufferINS_12basic_stringIcNS_11char_traitsIcEENS_9allocatorIcEEEERNS4_IS6_EEEC2EjjS8_
q$g:_MACAlgorithm_Core_m2390605245
u4j:_InternalEnumerator_1_System_Collections_IEnumerator_get_Current_m30488070_gshared
R3b:__ZN10GameObject12CleanupClassEv
b1j:_InternalEnumerator_1_System_Collections_IEnumerator_Reset_m2624612805_AdjustorThunk
Fed:__ZN5physx3Scb5Scene13addRigidNoSimINS0_11RigidStaticELb0ELb1EEEvRT_RNS0_13ObjectTrackerE
lza:__ZN9GfxDevice25SetShaderPropertiesSharedERK19ShaderPropertySheet
FHk:_IndexedSet_1_GetEnumerator_m3646001838_gshared
iva:__ZN18StreamedBinaryReadILb1EE20TransferTypelessDataEjPvi
JJb:__ZN10MonoScript17MainThreadCleanupEv
hka:__ZN13RenderTexture9SetActiveEiP12ObjectHandleI17RenderSurface_TagP17RenderSurfaceBaseES4_PPS_i11CubemapFaceij
lFa:__ZN18AsyncUploadManager19AsyncResourceUploadER9GfxDeviceii9TextureID
lFj:_VertexHelper_AddUIVertexTriangleStream_m4009409241
M8j:_Comparer_1__ctor_m844571340_gshared
O8b:__ZL25InitializeDefaultMaterialv
rJe:__Z53Register_UnityEngine_CanvasRenderer_get_materialCountv
Yu:__ZN14AnimationEvent8TransferI18StreamedBinaryReadILb1EEEEvRT_
Bbh:_TlsStream_Write_m2055734301
BPa:__ZN19FileAccessorHandlerD2Ev
vth:_Comparer_1__ctor_m2941434245_gshared
QMj:_VertexHelper_AddVert_m3290455716
Uzk:_ArrowController_Kill_m3147810858
Rxi:__ZL56SHA256Managed_t2029745292_CustomAttributesCacheGeneratorP21CustomAttributesCache
Ori:__ZL126GenericTypeParameterBuilder_t1370236603_CustomAttributesCacheGenerator_GenericTypeParameterBuilder_MakeGenericType_m2955814622P21CustomAttributesCache
RJi:__ZL95Physics_t634932869_CustomAttributesCacheGenerator_Physics_RaycastAll_m410413656____maxDistance1P21CustomAttributesCache
LJ:__ZN15SerializeTraitsI9OffsetPtrIN7mecanim9animation17BlendTreeConstantEEE8TransferI19StreamedBinaryWriteILb0EEEEvRS4_RT_
L0:__ZN13ScreenManager17RequestResolutionEiibi
i0c:__ZN26IntersectAnyVsMeshCallbackILi0ELb1EED2Ev
B2k:_il2cpp_unity_liveness_calculation_from_statics
GPj:_Scheduler_get_Instance_m1989471839
Zvg:_GraphicRaycaster_get_eventCamera_m4031517334
Qu:__ZN17AnimationCurveTplI11QuaternionfE8TransferI18StreamedBinaryReadILb1EEEEvRT_
zmh:_WebRequest_System_Runtime_Serialization_ISerializable_GetObjectData_m3377822910
_ub:__ZN8Renderer8TransferI17RemapPPtrTransferEEvRT_
z5f:_Collection_1_Contains_m1299140035_gshared
k4e:_ExecuteEvents_ExecuteHierarchy_TisIl2CppObject_m2541874163_gshared
eXe:_Array_InternalArray__ICollection_Add_TisUICharInfo_t3056636800_m968274080_gshared
PIk:_ObjectPool_1__ctor_m1532275833_gshared
Ycl:__ZNK15dense_hashtableINSt3__24pairIK10KeyWrapperINS1_IP11Il2CppClassjEEES4_EES6_N6il2cpp8metadata14ArrayClassHashEN14dense_hash_mapIS6_S4_SB_NSA_17ArrayClassCompareENS0_9allocatorIS8_EEE9SelectKeyESD_SF_E13find_positionERS7_
bQk:__ZL24UnresolvedVirtualCall_71P12Il2CppObjectS0_S0_iS0_S0_S0_PK10MethodInfo
umi:__ZL64IntPtr_t_CustomAttributesCacheGenerator_IntPtr__ctor_m3803259710P21CustomAttributesCache
UZf:_List_1_GetIndex_m3262928832_gshared
dwd:__ZNK5physx2Sc9ClothCore16getCollisionDataEPNS_22PxClothCollisionSphereEPjPNS_21PxClothCollisionPlaneES4_PNS_24PxClothCollisionTriangleE
ibk:_SafeHandle_DangerousRelease_m2167699172
m6a:__Z24LookRotationToQuaternionRK8Vector3fS1_P11Quaternionf
k6a:__ZN16ReflectionProbes9GetCameraEv
iAd:__ZNK5physx2Sc18ParticleSystemCore20getMaxMotionDistanceEv
s4g:_ArgumentException__ctor_m2105824819
UHe:__ZN2UI6Canvas17SetSortingLayerIDEi
Yog:_BaseMeshEffect_get_graphic_m3358796463
Ejl:__ZN6il2cpp2vm11MethodStack23CleanupForCurrentThreadEv
J_j:_InternalEnumerator_1_get_Current_m966604531_gshared
ENk:_Predicate_1_Invoke_m695569038_gshared
AOf:_Enumerator_VerifyState_m825848279_AdjustorThunk
ueg:_ReadOnlyCollection_1_System_Collections_ICollection_CopyTo_m3161309318_gshared
Oef:_String_System_IConvertible_ToDateTime_m1423627978
ypc:__Z83Register_UnityEngine_Experimental_Director_Playable_INTERNAL_CALL_GetOutputInternalv
D_d:__ZN5physx10BPWorkTaskD0Ev
yMe:__ZN11UnityEngine7Connect14RemoteSettings10UnregisterEPNS0_13ConfigHandlerE
yna:__ZN18UnityPropertySheet8TransferI19StreamedBinaryWriteILb0EEEEvRT_
aeh:_TlsServerCertificate_checkServerIdentity_m3836435780
IEc:__ZN9JSONWrite21TransferSTLStyleArrayI31ArrayOfManagedObjectsTransfererEEvRT_17TransferMetaFlags
e1g:_PKCS12_Decrypt_m2353135969
Kyj:_PersistentCallGroup_Initialize_m3908067069
tqk:_TextEditor_SelectParagraphForward_m1117097520
Vhe:__ZN4PPtrI14PhysicMaterialE8TransferI18StreamedBinaryReadILb1EEEEvRT_
R0h:_MonoEvent_ToString_m386956596
JMi:__ZL70RuntimePlatform_t1869584967_CustomAttributesCacheGenerator_FlashPlayerP21CustomAttributesCache
mmg:_PointerEventData_get_pointerPress_m880101744
GPd:__ZN5physx20NpRigidActorTemplateINS_13PxRigidStaticEE14resetFilteringERNS_3Scb11RigidObjectEPKPNS_7PxShapeEj
Pwh:_Transform_1_BeginInvoke_m1786442111_gshared
_Gg:_Int32_GetFormatException_m1729046182
b2f:_Collection_1_get_Count_m3834276648_gshared
dcl:__ZN15dense_hashtableINSt3__24pairIK10KeyWrapperIP11Il2CppClassES4_EES5_N6il2cpp8metadata16SZArrayClassHashEN14dense_hash_mapIS5_S4_SA_NS9_19SZArrayClassCompareENS0_9allocatorIS7_EEE9SelectKeyESC_SE_EC2ERKSH_j
Heb:__ZN21UnityDefaultAllocatorI17LowLevelAllocatorE10DeallocateEPv
p3:__GLOBAL__sub_I_runtime_camera2_lump_cpp
pu:__ZN15PackedIntVector8TransferI14SafeBinaryReadEEvRT_
l$h:_FieldInfo_get_IsLiteral_m267898096
yGa:__ZN17SharedTextureDataD0Ev
Xhd:__ZNK5physx19NpArticulationJoint20getTangentialDampingEv
iDk:_SwitchController_Awake_m1270104276
ehh:_SslStreamBase_EndNegotiateHandshake_m1732321201
$wh:_Transform_1_BeginInvoke_m1167293475_gshared
pO:__ZN13AudioListener8DoUpdateEv
ZSc:__ZN5physx3Cct10Controller22setUpDirectionInternalERKNS_6PxVec3E
tli:__ZL71SByte_t454417549_CustomAttributesCacheGenerator_SByte_Parse_m1620039654P21CustomAttributesCache
azf:__Z13bankers_roundd
Gxb:__ZN14SafeBinaryRead8TransferI5RectTIfEEEvRT_PKc17TransferMetaFlags
Am:_emscripten_glGenFramebuffers
gwf:_Hashtable_CopyTo_m2778915805
Gea:__ZN17BaseObjectManager16StaticInitializeEPv
DVh:_ConstructorBuilder_get_IsCompilerContext_m2796899803
zGi:__ZL97Component_t3819376471_CustomAttributesCacheGenerator_Component_GetComponentsInChildren_m843288020P21CustomAttributesCache
Zyb:__ZN13TrailRenderer18TransferDeprecatedI14SafeBinaryReadEEvRT_
Ymj:__Z37RuntimeInvoker_UICharInfo_t3056636800PK10MethodInfoPvPS2_
JUe:_Array_IndexOf_TisUIVertex_t1204258818_m613887160_gshared
Trg:_FloatTween_GetDuration_m1757342579_AdjustorThunk
Bzf:_DateTime_CoreParse_m2014268103
wXf:_List_1__ctor_m3698273726_gshared
Smb:__ZN9Behaviour23VirtualRedirectTransferER17RemapPPtrTransfer
QAh:_Dictionary_2_TryGetValue_m3187691483_gshared
PDc:__Z18Transfer_BlittableI9JSONWriteLb0EyEvRK29SerializationCommandArgumentsR31RuntimeSerializationCommandInfo
zVj:_UInt64_Equals_m1243465002
Qqb:__ZN12CubemapArray23VirtualRedirectTransferER14SafeBinaryRead
Rwd:__ZNK5physx2Sc9ClothCore23getNbCollisionTrianglesEv
$Qh:_CryptographicException__ctor_m1012314467
$sd:__ZN5physx7NpShape16setFlagsInternalENS_7PxFlagsINS_11PxShapeFlag4EnumEhEE
Mpi:__ZL54Collection_1_t686054069_CustomAttributesCacheGeneratorP21CustomAttributesCache
Igg:_ReadOnlyCollection_1_System_Collections_IList_Add_m616574295_gshared
$Gg:_Int32_ProcessTrailingWhitespace_m2812079777
rta:__ZN18ProceduralMaterial9ReloadAllEbb
aqc:__Z43RectTransform_CUSTOM_INTERNAL_set_sizeDeltaP12Il2CppObjectRK13Vector2fIcall
e$c:__ZN5physx2Gu30distanceSegmentTriangleSquaredERKNS_6shdfnd3aos5Vec3VES5_S5_S5_S5_RS3_S6_
nmh:_WebProxy__ctor_m3679722173
$$j:_InternalEnumerator_1_Dispose_m2743309309_AdjustorThunk
sja:__ZN24GenerateTypeTreeTransfer18BeginArrayTransferEPKcS1_Ri17TransferMetaFlags
dja:__ZN15TextureSettings8TransferI18StreamedBinaryReadILb1EEEEvRT_
sFa:__Z16DecompressCrunchPKhRjR13TextureFormatiiii18MemLabelIdentifier
mIl:__ZNSt3__29money_getIcNS_19istreambuf_iteratorIcNS_11char_traitsIcEEEEED2Ev
g0f:_List_1__ctor_m2082969060_gshared
Xm:___syscall51
$m:___syscall54
Uhl:__ZNSt3__26__treeINS_12__value_typeIP24Il2CppReflectionAssemblyPvEENS_19__map_value_compareIS3_S5_NS_4lessIS3_EELb1EEENS_9allocatorIS5_EEE12__find_equalIS3_EERPNS_16__tree_node_baseIS4_EESH_RKT_
UWi:__Z107RuntimeInvoker_Boolean_t3825574718_SByte_t454417549_Il2CppObject_Int32_t2071877448_ExceptionU26_t1467204777PK10MethodInfoPvPS2_
aJc:__ZN12b2MouseJointD0Ev
$Ol:dynCall_fiifffiii
o3a:__Z29RenderForwardObjectsIntoDepthRK17RenderLoopContextP13RenderTextureP13dynamic_arrayI16RenderObjectDataLj4EE12ObjectHandleI17RenderSurface_TagP17RenderSurfaceBaseESC_iib
QF:__ZNK8Animator20IsAnyRendererVisibleEv
y3k:__ZN15dense_hashtableINSt3__24pairIK10KeyWrapperINS1_IPK14Il2CppAssemblyP11Il2CppClassEEEjEES9_17ReflectionMapHashIS8_EN14dense_hash_mapIS9_jSD_19ReflectionMapEqualsIS8_ENS0_9allocatorISB_EEE9SelectKeyESG_SI_ED2Ev
xBe:_cff_builder_add_point1
cil:__ZN6il2cpp2vm5Image21GetCachedResourceDataEPK11Il2CppImageRKNSt3__212basic_stringIcNS5_11char_traitsIcEENS5_9allocatorIcEEEE
Swg:_HorizontalOrVerticalLayoutGroup_set_childControlWidth_m4209477792
QWe:_Array_InternalArray__ICollection_Add_TisUInt32_t2149682021_m2629016323_gshared
NLb:__Z18Transfer_BlittableI14SafeBinaryReadLb0E10ColorRGBAfEvRK29SerializationCommandArgumentsR31RuntimeSerializationCommandInfo
JGl:__ZNKSt3__28time_getIwNS_19istreambuf_iteratorIwNS_11char_traitsIwEEEEE13do_date_orderEv
Sni:__ZL65Il2CppArray_CustomAttributesCacheGenerator_Array_Sort_m3002148658P21CustomAttributesCache
Ea:invoke_iiiiiiiiii
lDj:_GUI_get_enabled_m3504357730
uU:__ZNK7Texture10GetVRUsageEv
Msa:__ZN18LoadSceneOperation19IntegrateTimeSlicedEi
RPj:_Scheduler_SchedulerThread_m2209572785
dWg:_SortKeyBuffer_GetResultAndReset_m2516956577
FXd:__ZN5physx36solveContactPreBlock_WriteBackStaticEPKNS_23PxcSolverConstraintDescEjRNS_16PxcSolverContextEPNS_25PxcThresholdStreamElementEjPi
kTl:_glBlendFuncSeparate__wrapper
QIk:_ObjectPool_1_get_countAll_m4217365918_gshared
gaa:__ZN16ScriptingManager24NotifyScriptCacheReleaseEi
VEi:__ZL85UriParser_t1012511323_CustomAttributesCacheGenerator_UriParser_OnRegister_m4010407891P21CustomAttributesCache
Bri:__ZL63UnmanagedMemoryStream_t822875729_CustomAttributesCacheGeneratorP21CustomAttributesCache
Wic:__Z47Register_UnityEngine_Coroutine_ReleaseCoroutinev
Ded:__ZN10ScSceneFnsIN5physx3Scb11RigidStaticEE6insertERNS0_2Sc5SceneERS2_
dP:__ZN15AudioReverbZone13SetFMODValuesEv
hvj:_Component_GetComponentInChildren_m3925629424
z6:__ZL19StaticDestroyShaderPv
Ne:_glRenderbufferStorageMultisample
jxk:_PKCS12_get_Certificates_m2320062949
EJh:_SoapTypeAttribute_get_XmlTypeName_m2546866572
tcg:_ReadOnlyCollection_1_System_Collections_IList_get_IsFixedSize_m158012227_gshared
Fyk:_X509Chain__ctor_m1113875360
dMb:__Z35Transfer_Blittable_SingleValueFieldI14SafeBinaryReadfEvRT_R17GeneralMonoObjectRK23StaticTransferFieldInfo
yeh:_TlsServerHello_processProtocol_m1241336522
x$c:__ZN5physx2Gu20sweepCCTBoxTrianglesEjPKNS_10PxTriangleEbRKNS_13PxBoxGeometryERKNS_11PxTransformERKNS_6PxVec3EfRSA_SD_RfRjPKjfNS_7PxFlagsINS_9PxHitFlag4EnumEtEE
rub:__ZThn28_N8Renderer21RendererBecameVisibleEv
WUc:__ZN5physx2Gu15OBBTriangleTestC2ERKNS0_3BoxE
jek:_ContextAttribute_IsContextOK_m3281216012
tOg:_PathTooLongException__ctor_m3212099251
FZl:_pthread_cond_broadcast__wrapper
Hwa:__ZN17PersistentManager38InstanceIDToSerializedObjectIdentifierEiR26SerializedObjectIdentifier
tIl:__ZNSt3__211__money_getIcE13__gather_infoEbRKNS_6localeERNS_10money_base7patternERcS8_RNS_12basic_stringIcNS_11char_traitsIcEENS_9allocatorIcEEEESF_SF_SF_Ri
J4j:_InternalEnumerator_1_MoveNext_m3299881374_AdjustorThunk
EWc:__ZN5physx2Gu21computeMTD_SphereMeshERNS_6PxVec3ERfRKNS0_6SphereERKNS_22PxTriangleMeshGeometryERKNS_11PxTransformE
yw:__ZN17PackedFloatVector8TransferI18StreamedBinaryReadILb0EEEEvRT_
wHi:__ZL88Screen_t786852042_CustomAttributesCacheGenerator_Screen_t786852042____width_PropertyInfoP21CustomAttributesCache
qrb:__ZN7Cubemap23VirtualRedirectTransferER17RemapPPtrTransfer
zYg:_BigInteger_op_GreaterThanOrEqual_m1998498565
oge:__ZN5physx12SubSortQuick5sort4EPjjRNS_6shdfnd5ArrayINS_11RTreeNodeNQENS2_19ReflectionAllocatorIS4_EEEERjRNS_10PxBounds3VEj
vUa:_longest_match_fast
Vcd:__ZN5physx6shdfnd5ArrayIPNS_2Sc8BodyCoreENS0_19ReflectionAllocatorIS4_EEE15growAndPushBackERKS4_
Etg:_DropdownItem_get_image_m2752143412
SPk:__ZL24UnresolvedVirtualCall_60P12Il2CppObjectaPK10MethodInfo
ccc:__ZN22BlockMemoryCacheWriter11GetPathNameEv
fvg:_Graphic_Rebuild_m2617722358
_Yd:__ZN5physx16PxsBroadPhaseMBPC2ERNS_19PxcScratchAllocatorERNS_2Cm13EventProfilerERKNS_11PxSceneDescEPNS_14PxsAABBManagerE
gad:__ZThn24_N5physx2Sc21ConstraintInteractionD1Ev
iui:__ZL86SafeHandle_t2733794115_CustomAttributesCacheGenerator_SafeHandle_SetHandle_m1980208835P21CustomAttributesCache
bje:__ZN14PhysicsManager23VirtualRedirectTransferER14SafeBinaryRead
lFf:_DateTime_ToString_m3108726445_AdjustorThunk
lX:__ZN19CloudServiceHandlerD2Ev
D8a:__ZN13dynamic_arrayIN23ReflectionProbesContext23ReflectionProbeCubeInfoELj4EE18resize_initializedEjRKS1_12ResizePolicy
GMl:__ZNSt3__212system_errorC2ENS_10error_codeEPKc
o2e:_Array_InternalArray__get_Item_TisTableRange_t2011406615_m602485977_gshared
qAg:_InputField_Append_m2623574152
amd:__ZN5physx7NpActor14onActorReleaseEPNS_7PxActorE
l4g:_ApplicationException__ctor_m1120437222
v1h:_MonoMethod__ctor_m4091684020
z2c:__ZN5physx3Cct26CharacterControllerManager19computeInteractionsEfPNS_26PxControllerFilterCallbackE
yq:stackAlloc
lbd:__ZN5physx6shdfnd8PoolBaseINS_2Cm5BlockIhLj256EEENS0_19ReflectionAllocatorIS4_EEE12allocateSlabEv
Bjc:__Z44Camera_CUSTOM_INTERNAL_CALL_ScreenPointToRayP12Il2CppObjectRK8Vector3fR3Ray
kQa:__ZN25SingleBlockMemoryFileData4LockEPPv
BOa:__ZN12HandlerChain5TouchER13FileEntryData
HZh:_MethodBuilder_GetHashCode_m1713271764
tbi:_Input_GetKeyDown_m1771960377
Uak:_Marshal__cctor_m802981325
kPe:_Array_get_swapper_TisUIVertex_t1204258818_m1078858558_gshared
nVg:_MSCompatUnicodeTable_GetResource_m3816716847
$kc:__Z32RectOffset_Get_Custom_PropBottomP12Il2CppObject
R4i:__Z49RuntimeInvoker_UInt16_t986882611_Int64_t909078037PK10MethodInfoPvPS2_
Mlf:_Array_CreateInstance_m15016505
Auf:_Comparer_Compare_m4132969818
Kqc:__Z40Register_UnityEngine_Material_SetTexturev
Epg:_CanvasScaler_get_matchWidthOrHeight_m1190816603
kBl:_stat
i6e:_RijndaelTransform_Decrypt128_m1282993908
ddl:__ZN24dense_hashtable_iteratorINSt3__24pairIK10KeyWrapperINS1_IP11Il2CppClassjEEES4_EES6_N6il2cpp8metadata14ArrayClassHashEN14dense_hash_mapIS6_S4_SB_NSA_17ArrayClassCompareENS0_9allocatorIS8_EEE9SelectKeyESD_SF_E30advance_past_empty_and_deletedEv
VXe:_Array_InternalArray__ICollection_CopyTo_TisUInt16_t986882611_m3228377237_gshared
eSf:_List_1_Add_m4157722533_gshared
USi:__ZL68Navigation_t1571958496_CustomAttributesCacheGenerator_m_SelectOnDownP21CustomAttributesCache
Zrj:_Bounds_op_Inequality_m2315096783
rIc:__ZN15b2DistanceJoint23InitVelocityConstraintsERK12b2SolverData
a4j:_InternalEnumerator_1_System_Collections_IEnumerator_get_Current_m3065287496_gshared
Nxa:__ZNSt3__218__insertion_sort_3IRNS_4lessIN22BuiltinResourceManager8ResourceEEEPS3_EEvT0_S7_T_
g0d:__ZN5physx2Gu21findUniqueConvexEdgesEjPNS0_10ConvexEdgeEjPKNS0_15HullPolygonDataEPKh
Qfi:_Physics_RaycastAll_m3256436970
MRf:_List_1_get_Item_m4100789973_gshared
_H:__ZN18StreamedBinaryReadILb1EE21TransferSTLStyleArrayI22OffsetPtrArrayTransferI9OffsetPtrIN7mecanim12statemachine20StateMachineConstantEEEEEvRT_17TransferMetaFlags
z5e:_RC2_set_KeySize_m2015782960
VWj:_Version_get_Revision_m654005649
oa:invoke_iiiiiiiiiiii
TWd:__ZN5physx43solveContactCoulombPreBlock_WriteBackStaticEPKNS_23PxcSolverConstraintDescEjRNS_16PxcSolverContextEPNS_25PxcThresholdStreamElementEjPi
X7f:_Collection_1_SetItem_m3715941382_gshared
WMa:__ZN9GfxDevice20GetComputeBufferDataE15ComputeBufferIDPvj
OEg:_NumberFormatInfo_get_CurrencyGroupSeparator_m2480433019
Xje:__ZN10CastFilterD0Ev
U0g:_StrongName_get_PublicKey_m3777577320
hak:_RuntimeCompatibilityAttribute__ctor_m1331212510
jbd:__ZN5physx2Sc5Scene23allocateConstraintBlockEj
bmc:__Z43Register_UnityEngine_GameObject_SendMessagev
iUk:__ZN6il2cpp2vm17SetupFieldsLockedEP11Il2CppClassRKNS_2os12FastAutoLockE
aOg:_MonoIOStat_t1621921065_marshal_pinvoke
AS:__ZN11AudioSourceD0Ev
Ltj:_CanvasRenderer_set_hasPopInstruction_m1388844875
zcd:__ZN5physx2Sc5Actor15onElementDetachERNS0_7ElementE
LTf:_List_1_System_Collections_ICollection_CopyTo_m1530390632_gshared
B9f:_Collection_1_System_Collections_IEnumerable_GetEnumerator_m1452790461_gshared
N$j:_InternalEnumerator_1_System_Collections_IEnumerator_Reset_m3194282029_AdjustorThunk
ldb:__ZN16MemoryFileSystem4NameEv
Fjg:_BaseRaycaster_OnEnable_m3641767070
$$f:_List_1_ToArray_m2810936944_gshared
CT:__ZN11AudioSource16UpdateParametersE12SoundChannel
dje:__ZN14PhysicsManager9onContactERKN5physx19PxContactPairHeaderEPKNS0_13PxContactPairEj
X5g:_PrimeGeneratorBase_get_PrimalityTest_m308005118
dni:__ZL71Enum_t2459695545_CustomAttributesCacheGenerator_Enum_Format_m2294492821P21CustomAttributesCache
Ovc:__ZNK8GUIStyle8CalcSizeER10GUIContent
rTf:_List_1_CheckIndex_m2328469916_gshared
DSc:__ZN5physx3Cct13BoxController13setHalfHeightEf
mOd:__ZN5physx3Scb13ObjectTracker5clearEv
E0f:_List_1_AddRange_m3345533268_gshared
xse:_UNITY_FT_New_Size
Dgc:__Z42ScriptingGetComponentsOfTypeFromGameObjectRK26ScriptingGetComponentsArgs
l_:__ZN19CloudServiceHandler11FlushEventsEv
sEl:__ZNKSt3__26locale9use_facetERNS0_2idE
UTc:__ZL23GeomMTDCallback_BoxMeshRN5physx6PxVec3ERfRKNS_10PxGeometryERKNS_11PxTransformES5_S8_
b1f:_List_1_get_Item_m3157283227_gshared
EFk:_InvokableCall_4_Invoke_m1555001411_gshared
FCf:_Convert_ToString_m2915777777
Yud:__ZNK5physx7NpCloth22getNbCollisionCapsulesEv
$na:__ZNSt3__27__sort4IRPFbRKNS_4pairIN9ShaderLab16FastPropertyNameEN18UnityPropertySheet11UnityTexEnvEEES8_EPS6_EEjT0_SD_SD_SD_T_
Vu:__Z21TransferBlobSerializeIN7mecanim9animation18ClipMuscleConstantE18StreamedBinaryReadILb1EEEvRPT_PKcRjS9_RT0_
Hdl:__ZN6il2cpp6icalls8mscorlib6System10Reflection8Assembly18GetModulesInternalEP24Il2CppReflectionAssembly
Aye:_Line_Up
DTg:_MonoType_GetGenericTypeDefinition_m2363776160
CTc:__ZL28GeomMTDCallback_SphereSphereRN5physx6PxVec3ERfRKNS_10PxGeometryERKNS_11PxTransformES5_S8_
hti:__ZL62ParameterAttributes_t1266705348_CustomAttributesCacheGeneratorP21CustomAttributesCache
ych:_Context_set_SentConnectionEnd_m2641458842
Ue:_emscripten_glBufferSubData
Yof:_Buffer_BlockCopyInternal_m2627156229
kQb:__Z18Transfer_BlittableI17RemapPPtrTransferLb1EyEvRK29SerializationCommandArgumentsR31RuntimeSerializationCommandInfo
axg:_Image_set_overrideSprite_m3362535904
njg:_ExecuteEvents_get_pointerExitHandler_m3250605428
Qfd:__ZN5physx6shdfnd5ArrayIPvNS0_15InlineAllocatorILj256ENS0_19ReflectionAllocatorINS_7NpShapeEEEEEE15growAndPushBackERKS2_
dpa:__ZN6prcoreL12RemapGenericI15TexFormatRGB88817TexFormatARGB8888EEvPKNS_9InnerInfoE
Q5a:__Z17CalculateGlobalRS23TransformAccessReadOnly
hyd:__ZN5physx22NpParticleBaseTemplateINS_15PxParticleFluidENS_15NpParticleFluidEE7releaseEv
Tul:__ZNSt3__210__list_impIPN6il2cpp5utils10MemoryPool6RegionENS_9allocatorIS5_EEE5clearEv
Hsj:_Camera_ScreenPointToRay_m614889538
OXg:_Kernel_multiByteDivide_m735279869
XYc:__ZNK5physx2Gu29EPASupportMapPairRelativeImplINS0_11ConvexHullVES2_E6getDirEv
ADh:_Dictionary_2_System_Collections_ICollection_get_SyncRoot_m501154311_gshared
yCh:_Dictionary_2_ToTValue_m542772656_gshared
gOe:__ZN23UnityPurchasingSettings10InitializeER6Object
pPj:_Thread_GetNewManagedId_internal_m3211695465
EUa:_unity_z_deflateReset
R7c:__ZN5physx2Sc19ContactReportBuffer23reallocateNotThreadSafeEjRjjj
r8h:_SkinChangedDelegate_Invoke_m2801964040
vad:__ZN5physx2Sc5Actor19registerInteractionEPNS0_11InteractionE
A$b:__ZN9ShaderLab16SerializedShader8TransferI18StreamedBinaryReadILb1EEEEvRT_
KYb:__ZN22MemoryCacherReadBlocks14LockCacheBlockEjPPhS1_
Znf:_Boolean_System_IConvertible_ToChar_m2637404801_AdjustorThunk
Acf:_SecurityContext_Capture_m2535194991
xTj:_UInt16_System_IConvertible_ToSByte_m3044765342_AdjustorThunk
tWh:_DerivedType_IsArrayImpl_m684825803
rli:__ZL47Byte_t3683104436_CustomAttributesCacheGeneratorP21CustomAttributesCache
mVe:_Array_InternalArray__IndexOf_TisLabelFixup_t4090909514_m2939738943_gshared
jll:__ZN4utf88internal15increase_safelyIPKcEENS0_9utf_errorERT_S5_
vre:__ZN20TextRenderingPrivate8FontImpl16CacheFontForTextEPtiifjPK13dynamic_arrayINS_16TextFormatChangeELj4EE
jpe:__ZN13PhysicsModule19CreateNxHeightFieldEPv
W_e:_Array_qsort_TisUIVertex_t1204258818_TisUIVertex_t1204258818_m512606409_gshared
xZe:__Z21ArrayElementTypeCheckP11Il2CppArrayPv
DWl:_emscripten_glTexSubImage2D__wrapper
Rjh:_NameValueCollection_AsSingleString_m10599052
sPc:__ZN17PhysicsMaterial2D16CheckConsistencyEv
$Ll:__ZNSt3__212basic_stringIcNS_11char_traitsIcEENS_9allocatorIcEEE6appendEjc
EUg:_Object_InternalGetHashCode_m1371384246
$Ej:_Navigation_get_defaultNavigation_m2185194207
dVi:__ZL73LayoutElement_t2808691390_CustomAttributesCacheGenerator_m_FlexibleHeightP21CustomAttributesCache
$xj:_ArgumentCache_get_stringArgument_m3051619173
OHg:_Int32_System_IConvertible_ToSByte_m1449623243_AdjustorThunk
E3g:_AccessViolationException__ctor_m1270251537
xzd:__ZN5physx15NpParticleFluid2isENS_11PxActorType4EnumE
BCd:__ZN5physx22NpParticleBaseTemplateINS_16PxParticleSystemENS_16NpParticleSystemEE11setGridSizeEf
Yyk:_X509ExtensionCollection_IndexOf_m3972100651
DOb:__Z14resize_trimmedINSt3__26vectorI8MonoPPtr13stl_allocatorIS2_L18MemLabelIdentifier1ELi16EEEEEvRT_j
zib:__ZN39AssetBundleLoadFromStreamAsyncOperation11GetProgressEv
Cf:_TTF_RenderText_Solid
rUj:_UInt32_System_IConvertible_ToInt64_m3091851828
DRg:_MissingMethodException__ctor_m3898429715
G8b:__ZN4Mesh7PRODUCEE18MemLabelIdentifier18ObjectCreationMode
Muh:_Enumerator_System_Collections_IEnumerator_Reset_m3085583937_gshared
OPf:_Enumerator_MoveNext_m848781978_gshared
Lkk:__ZN23InterfaceActionInvoker5IDsDsbbbE6InvokeEjP11Il2CppClassPvDsDsbbb
Olj:__Z66RuntimeInvoker_ClientCertificateType_t4001384466_Int32_t2071877448PK10MethodInfoPvPS2_
c0g:_RSAManaged_ExportParameters_m2873993187
Byf:_Convert__cctor_m926133987
Ajb:__ZN7Hash1288TransferI18StreamedBinaryReadILb1EEEEvRT_
d1f:_Enumerator__ctor_m2816143215_AdjustorThunk
sOe:__ZN11UnityEngine7Connect16PersistentValuesC2Ev
gph:_X509Chain_FindParent_m404663796
BRg:_MissingMemberException__ctor_m2164043278
COk:__ZL7log2_32j
Q4f:_Collection_1_CopyTo_m2282972507_gshared
NIb:__ZN13EmscriptenWWW10OnProgressEPvjj
cpg:_BaseVertexEffect__ctor_m358261091
Nrh:_Interpreter_GetGroupInfo_m312421921
rQb:__Z19TransferField_ArrayI17RemapPPtrTransfer27Converter_UnityEngineObjectEvRK23StaticTransferFieldInfoR31RuntimeSerializationCommandInfoRT0_
aJd:__ZNK5physx2Sc7BodySim13isConnectedToERKNS0_8RigidSimERb
pxi:__ZL53HMACSHA384_t3026079344_CustomAttributesCacheGeneratorP21CustomAttributesCache
ndj:__Z120RuntimeInvoker_Void_t1841601450_Single_t2076509932_Single_t2076509932_Single_t2076509932_Single_t2076509932_Il2CppObjectPK10MethodInfoPvPS2_
pJg:_NumberFormatter_InitDecHexDigits_m1612588520
_ie:__ZN14PhysicsManager23VirtualRedirectTransferER17RemapPPtrTransfer
GJg:_IntPtr_System_Runtime_Serialization_ISerializable_GetObjectData_m21554269_AdjustorThunk
wef:_Single_GetHashCode_m3102305584_AdjustorThunk
V0e:_Array_swap_TisVector3_t2243707580_m3036634038_gshared
WQ:__ZN4FMOD6System9createDSPEP20FMOD_DSP_DESCRIPTIONPPNS_3DSPE
Mci:_Material_HasProperty_m3175512802
RA:__ZN7mecanim9animation26DestroyControllerWorkspaceEPNS0_19ControllerWorkspaceERNS_6memory9AllocatorE
Zmk:_UriParser_set_SchemeName_m3624672465
cN:__ZN4FMOD8ChannelI11EndCallbackEv
I9e:_ToBase64Transform_TransformBlock_m2201454137
Cvc:__ZN8GUIStyle14SetDefaultFontEPN13TextRendering4FontE
u_h:_OpCode_get_StackBehaviourPop_m3787015663_AdjustorThunk
xhk:_PatternCompiler_EmitCount_m3609178511
Nvb:__ZN15QualitySettings23VirtualRedirectTransferER24GenerateTypeTreeTransfer
crj:_AttributeHelperEngine__cctor_m1775592582
Q9h:_GUIStyle_Internal_GetCursorStringIndex_m1491806746
ZOi:__ZL89PointerEventData_t1599784723_CustomAttributesCacheGenerator_U3CpositionU3Ek__BackingFieldP21CustomAttributesCache
U0d:__ZN5physx2Gu32PCMConvexVsMeshContactGeneration35generateTriangleFullContactManifoldERNS0_9TriangleVEjPKjhRKNS0_13PolygonalDataEPNS0_16SupportLocalImplIS2_EEPNS0_12SupportLocalEPNS0_21MeshPersistentContactERjRKNS_6shdfnd3aos6FloatVERNSI_5Vec3VE
i9k:__ZN6il2cpp2os10FileHandleC2Ev
Ioc:__Z59Register_UnityEngine_MonoBehaviour_Internal_CancelInvokeAllv
Syi:__ZL84Encoding_t663144255_CustomAttributesCacheGenerator_Encoding_GetByteCount_m4104502544P21CustomAttributesCache
rH:__ZN14SafeBinaryRead21TransferSTLStyleArrayI22OffsetPtrArrayTransferI9OffsetPtrIN7mecanim12statemachine17ConditionConstantEEEEEvRT_17TransferMetaFlags
YJh:_ObjRef_set_TypeInfo_m1661789743
B7h:_GUISkin_get_box_m533626169
KSd:__ZNK16OBBAABBTest_SIMDclERKN5physx2Sq9BucketBoxE
Qci:_Mathf_Cos_m238853451
OQc:__ZZN10Collider2D15InitializeClassEvEN33FunctorImpl_82kDidRemoveComponent4CallEPviR11MessageData
$re:_UNITY_FT_Request_Metrics
Cja:__ZN7Texture8TransferI18StreamedBinaryReadILb0EEEEvRT_
tfl:__ZN6il2cpp6icalls8mscorlib6System10Reflection10MonoMethod29get_IsGenericMethodDefinitionEP22Il2CppReflectionMethod
Z9k:__ZN6il2cpp2vm6Thread21AllocThreadStaticDataEi
Dzf:_DateTime_YearMonthDayFormats_m4204607055
Eqg:_ColorBlock_set_disabledColor_m3502887543_AdjustorThunk
bhl:__ZNK15dense_hashtableINSt3__24pairIK10KeyWrapperINS1_IPKcS4_EEEiEES6_24NamespaceAndNamePairHashN14dense_hash_mapIS6_iS9_26NamespaceAndNamePairEqualsNS0_9allocatorIS8_EEE9SelectKeyESB_SD_E12test_deletedERK24dense_hashtable_iteratorIS8_S6_S9_SF_SB_SD_E
VU:__Z13RegisterClassI13AudioListenerEvv
NCk:_ShieldController_Awake_m531856573
UEk:_InvokableCall_1_Find_m951110817_gshared
QDk:_Aes__ctor_m4020215067
Wz:__ZN22AnimationMixerPlayable11DerivesFromEP11Il2CppClass
uDc:__Z18Transfer_BlittableI9JSONWriteLb0E8Vector3fEvRK29SerializationCommandArgumentsR31RuntimeSerializationCommandInfo
Lrh:_Interpreter_Eval_m1448443064
Bg:_emscripten_glUniform4i
wxi:__ZL46MD5_t1507972490_CustomAttributesCacheGeneratorP21CustomAttributesCache
izd:__ZNK5physx22NpParticleBaseTemplateINS_15PxParticleFluidENS_15NpParticleFluidEE11getGridSizeEv
dvg:_Graphic_OnDisable_m2360886868
Y0c:__ZN16RayRTreeCallbackILi0ELb1EED2Ev
Nf:_emscripten_glUniform4f
kwa:__ZN6Object22CheckInstanceIDsLoadedEPii
fk:___unlock
Zql:_GC_default_oom_fn
Haj:__Z74RuntimeInvoker_Void_t1841601450_PlayableU26_t3233213460_Double_t4078015681PK10MethodInfoPvPS2_
r2j:_InternalEnumerator_1_System_Collections_IEnumerator_Reset_m1561424184_AdjustorThunk
pDl:__ZTv0_n12_NSt3__213basic_istreamIcNS_11char_traitsIcEEED1Ev
Erc:__Z46RenderTexture_CUSTOM_Internal_SetSRGBReadWriteP12Il2CppObjecth
sMh:_FormatterConverter__ctor_m3958982477
MT:__ZN20SoundChannelInstance19setReverbPropertiesEP29FMOD_REVERB_CHANNELPROPERTIES
g7j:_InternalEnumerator_1__ctor_m2808001655_AdjustorThunk
x3j:_InternalEnumerator_1_System_Collections_IEnumerator_Reset_m2571770313_AdjustorThunk
t$h:_FieldInfo_get_UMarshal_m1934544188
K1i:__Z68RuntimeInvoker_Void_t1841601450_IntPtr_t_MonoMethodInfoU26_t16045984PK10MethodInfoPvPS2_
b7j:_InternalEnumerator_1_Dispose_m4229866913_AdjustorThunk
fFh:_DefaultComparer_Equals_m2171836276_gshared
vgl:__ZN6il2cpp2vm9Exception18GetFormatExceptionEPKc
ukj:__Z56RuntimeInvoker_Void_t1841601450_ResourceInfo_t3933049236PK10MethodInfoPvPS2_
svi:__ZL55IMessageSink_t2189618969_CustomAttributesCacheGeneratorP21CustomAttributesCache
dtc:__Z40Register_UnityEngine_Transform_IsChildOfv
a2c:__ZN5physx3Cct17CapsuleController15setClimbingModeENS_21PxCapsuleClimbingMode4EnumE
LUd:__ZN5physx6shdfnd9atomicAddEPVii
qsf:_ArrayList_Sort_m923359189
WLj:_Text_CalculateLayoutInputVertical_m1732119136
J7b:__ZN16ReflectionProbes15InitializeClassEv
PDb:__ZNSt3__212basic_stringIcNS_11char_traitsIcEE13stl_allocatorIcL18MemLabelIdentifier66ELi16EEE7reserveEj
vPd:__ZN5physx6shdfnd5ArrayINS_3Scb13MaterialEventENS0_19ReflectionAllocatorIS3_EEE6resizeEjRKS3_
qNa:__ZN9GfxDevice31DrawIndexedNullGeometryIndirectE16GfxPrimitiveTypeP9GfxBuffer15ComputeBufferIDj
S_j:_InternalEnumerator_1_System_Collections_IEnumerator_get_Current_m3088751576_gshared
H_d:__ZNK5physx14SingleAABBTask25updateNumFastMovingShapesEv
uij:__Z60RuntimeInvoker_Boolean_t3825574718_KeyValuePair_2_t488203048PK10MethodInfoPvPS2_
M2i:__Z78RuntimeInvoker_Void_t1841601450_Int64_t909078037_Il2CppObject_Int64_t909078037PK10MethodInfoPvPS2_
Nrj:_Bounds_set_center_m2069004927_AdjustorThunk
n2g:_X509Certificate_GetSubjectName_m2120755276
ryc:__Z46GUIStyle_CUSTOM_Internal_DrawWithTextSelectionP12Il2CppObjectR43MonoInternal_DrawWithTextSelectionArguments
FGd:__ZNK5physx2Cm12DelegateTaskINS_7NpSceneEXadL_ZNS2_12executeSolveEPNS_10PxBaseTaskEEEE7getNameEv
kIi:__ZL58ResourceRequest_t2560315377_CustomAttributesCacheGeneratorP21CustomAttributesCache
EGe:__ZNSt3__218__insertion_sort_3IRNS_6__lessIN2UI14DepthSortEntryES3_EEPS3_EEvT0_S7_T_
n1h:_MonoField_CheckGeneric_m1527550038
Ife:__ZN5physx17ConvexMeshBuilder16computeGaussMapsEv
cGl:__ZNKSt3__28time_getIcNS_19istreambuf_iteratorIcNS_11char_traitsIcEEEEE13do_date_orderEv
b$g:_AttrListImpl_Add_m130708252
t6g:_ASN1_get_Value_m2229768312
Yig:_BaseInput_get_touchCount_m998724785
VEb:__ZN11TimeManager6UpdateEv
qxa:__ZN6Shader18LoadDefaultShadersEv
VBk:_PixelCamera2D_OnEnable_m50410356
Gyk:_X509Chain_get_Status_m2726750609
Egd:__ZNK5physx2Sc16ArticulationCore22computeImpulseResponseERNS0_8BodyCoreERNS_6PxVec3ES5_RKNS_9PxcFsDataERKS4_SA_
LAg:_InputField_get_preferredWidth_m3185355225
i2d:__ZN5physx21PxsBodyTransformVaultC2Ev
J6h:_GUIUtility_get_pixelsPerPoint_m2667928361
C8f:_Collection_1_RemoveItem_m1406181352_gshared
hPj:_Thread_SetState_m3198426726
Lsf:_ArrayListWrapper_Contains_m1158465965
kMa:__ZN9GfxDevice12UpdateBufferEP9GfxBuffer13GfxBufferMode14GfxBufferLabeljPKvj
G0e:_Array_swap_TisColor32_t874517518_m2203309732_gshared
d0d:__ZL6IsInYZffPPK10VertexInfo
R5g:_BigInteger_op_LessThan_m3825358479
Cge:__ZN5physx19TriangleMeshBuilderD0Ev
rBl:_fflush
Qta:__ZN17LightProbeContext4InitERK16LightmapSettingsRK14RenderSettings
Nqk:_TextEditor_GetGraphicalLineStart_m2300210041
lof:_Convert_ToInt32_m55151042
gzl:__GLOBAL__sub_I_Error_cpp
s5k:__ZN15dense_hashtableINSt3__24pairIK10KeyWrapperINS1_IPK10MethodInfoP11Il2CppClassEEEjEES9_17ReflectionMapHashIS8_EN14dense_hash_mapIS9_jSD_19ReflectionMapEqualsIS8_ENS0_9allocatorISB_EEE9SelectKeyESG_SI_E16reset_thresholdsEv
Ljk:_Alternation_GetWidth_m4218808325
w6f:_Collection_1_set_Item_m2523116197_gshared
mmj:__Z59RuntimeInvoker_ContactPoint2D_t3659330976_Int32_t2071877448PK10MethodInfoPvPS2_
gua:__ZN9Texture3DD2Ev
zni:__ZL80Il2CppArray_CustomAttributesCacheGenerator_Array_SetValue_m169741241____indices1P21CustomAttributesCache
Ena:__ZN10ColorRGBAf8TransferI19StreamedBinaryWriteILb0EEEEvRT_
UAg:_U3CCaretBlinkU3Ec__Iterator0_System_Collections_Generic_IEnumeratorU3CobjectU3E_get_Current_m3541562536
Yjh:_TypeConverterAttribute__ctor_m4061167050
Wsd:__ZN5physx2CmlsERNS0_12RenderOutputERKNS0_10DebugArrowE
MBj:_Font_add_textureRebuilt_m1282639736
nH:__ZN14SafeBinaryRead21TransferSTLStyleArrayI22OffsetPtrArrayTransferI9OffsetPtrIN7mecanim12statemachine21SelectorStateConstantEEEEEvRT_17TransferMetaFlags
hej:__Z113RuntimeInvoker_Void_t1841601450_RectU26_t844847526_Vector2U26_t3911752445_Vector2U26_t3911752445_SByte_t454417549PK10MethodInfoPvPS2_
rCh:_Dictionary_2_ContainsValue_m2760581195_gshared
efh:_RecordProtocol_ProcessChangeCipherSpec_m3233959862
dXa:__Z34ProcessIndexListIsNodeVisibleStep2RK22SceneCullingParametersPK9SceneNodePK4AABBR9IndexList
HJb:__ZN10MonoScriptD2Ev
u2:__ZL18AppendPathNameImplRKNSt3__212basic_stringIcNS_11char_traitsIcEENS_9allocatorIcEEEES7_cRS5_
IKj:_Slider_OnRectTransformDimensionsChange_m4109401172
jmh:_WebHeaderCollection_Get_m3391944907
Q3:__GLOBAL__sub_I_half_cpp
Xmc:__Z39Input_CUSTOM_INTERNAL_get_mousePositionP8Vector3f
Bxe:_tt_cmap13_char_next
ELh:_ServerIdentity__ctor_m1576469955
gTa:__ZN9ShaderLab4Pass16SetupPassOptionsEv
