hd:_glClearStencil
QWe:_Array_InternalArray__ICollection_Add_TisMark_t2724874473_m1613484179_gshared
dZc:__ZN5physx2Gu19gjkLocalPenetrationINS0_8CapsuleVENS0_17ShrunkConvexHullVEEEjRKT_RKT0_RKNS_6shdfnd3aos6FloatVERNSB_5Vec3VESG_SG_RSC_PhSI_Rhb
dSi:__ZL80Graphic_t2426225576_CustomAttributesCacheGenerator_Graphic_OnFillVBO_m1723985607P21CustomAttributesCache
SPh:_RuntimeTypeHandle_GetObjectData_m3567098501
c2b:__ZN12ShaderErrors21AddShaderCompileErrorERKNSt3__212basic_stringIcNS0_11char_traitsIcEENS0_9allocatorIcEEEEib
glb:__ZN18StreamedBinaryReadILb1EE21TransferSTLStyleArrayIN4core12basic_stringIcNS2_20StringStorageDefaultIcEEEEEEvRT_17TransferMetaFlags
opl:__ZN6il2cpp2vm5Array13GetByteLengthEP11Il2CppArray
SGj:_Raycast3DCallback_BeginInvoke_m3028685017
fIh:_EqualityComparer_1__cctor_m968537130_gshared
Ask:_TextGenerator_get_lineCount_m4287181941
LLi:__ZL93GUILayout_t2579273657_CustomAttributesCacheGenerator_GUILayout_Button_m3322709003____options1P21CustomAttributesCache
cij:__Z37RuntimeInvoker_Enumerator_t1593300101PK10MethodInfoPvPS2_
UVj:_UInt64_System_IConvertible_ToDecimal_m4205696037
lDl:_mbrlen
YCj:_GameObject_Internal_AddComponentWithType_m214735204
$G:__ZN10StateRange8TransferI14SafeBinaryReadEEvRT_
dGa:__Z21SourceMipLevelForBlitiiii
tob:__ZN31CanvasBatchIntermediateRenderer15AddAsRenderNodeER15RenderNodeQueueRK20DeprecatedSourceData
Gdi:_GenericTypeParameterBuilder_GetEvent_m4210567427
Ujg:__ZN16VirtFuncInvoker0IP17Camera_t189460977E6InvokeEjPv
cyf:_Enumerator_get_Key_m2908810861
Smj:__Z55RuntimeInvoker_ILTokenInfo_t149559338_Int32_t2071877448PK10MethodInfoPvPS2_
fLe:__ZN11UnityEngine7Connect14AppUpdateEventD0Ev
RPd:__ZNK5physx2Sc5Scene24getContactModifyCallbackEv
bNl:__ZdlPv
vQi:__ZL77StandaloneInputModule_t70867863_CustomAttributesCacheGenerator_m_VerticalAxisP21CustomAttributesCache
iK:__ZN11UnityEngine9Animation28GenericAnimationBindingCacheD2Ev
XSd:__ZN5physx2Sq10AABBPruner10addObjectsEPjPKNS_9PxBounds3EPKNS0_13PrunerPayloadEj
Wvi:__ZL68RemotingSurrogateSelector_t2821375126_CustomAttributesCacheGeneratorP21CustomAttributesCache
Alj:__Z76RuntimeInvoker_Void_t1841601450_Int32_t2071877448_KeyValuePair_2_t3716250094PK10MethodInfoPvPS2_
oRf:_List_1_System_Collections_IList_IndexOf_m39706221_gshared
HAf:_Decimal_op_Implicit_m2971610317
ec:invoke_viiiifiiiiif
A6a:__Z18RestoreRenderStateR20CameraRenderOldStateR17ShaderPassContext
Ltf:_SynchronizedArrayListWrapper_get_Item_m3309425850
LWb:__Z18Transfer_BlittableI18StreamedBinaryReadILb1EELb1E5RectTIfEEvRK29SerializationCommandArgumentsR31RuntimeSerializationCommandInfo
KQb:__Z18Transfer_BlittableI24GenerateTypeTreeTransferLb0E11ColorRGBA32EvRK29SerializationCommandArgumentsR31RuntimeSerializationCommandInfo
Vt:__ZNSt3__26vectorIN13AnimationClip10FloatCurveE13stl_allocatorIS2_L18MemLabelIdentifier25ELi16EEE6resizeEj
btc:__Z21Object_CUSTOM_DestroyP12Il2CppObjectf
Eic:__Z44SystemInfo_Get_Custom_PropGraphicsDeviceNamev
ewg:_GraphicRaycaster_get_ignoreReversedGraphics_m2757724367
JWl:_emscripten_glDeleteBuffers__wrapper
Deh:_TlsServerCertificateRequest_ProcessAsSsl3_m3017921864
jvj:_Collision_t2876846408_marshal_pinvoke_back
U9d:__ZN5physx2Sc14ConstraintCore10breakApartEv
rei:_GenericTypeParameterBuilder_GetHashCode_m867619899
Olj:__Z79RuntimeInvoker_Void_t1841601450_Int32_t2071877448_ParameterModifier_t1820634920PK10MethodInfoPvPS2_
Jrl:__ZNSt3__26__treeINS_12basic_stringIcNS_11char_traitsIcEENS_9allocatorIcEEEENS_4lessIS6_EENS4_IS6_EEE16__construct_nodeIJRKS6_EEENS_10unique_ptrINS_11__tree_nodeIS6_PvEENS_22__tree_node_destructorINS4_ISH_EEEEEEDpOT_
QKg:_BinaryReader_ReadDecimal_m3164824427
nHh:_EqualityComparer_1__cctor_m3397254040_gshared
LHl:__ZNKSt3__220__time_get_c_storageIcE3__XEv
o9i:__Z37RuntimeInvoker_ContentType_t859870085PK10MethodInfoPvPS2_
Ige:__ZN5physx7Cooking20loadTriangleMeshDescERKNS_18PxTriangleMeshDescERNS_19TriangleMeshBuilderE
w3g:__ZThn4_N6il2cpp2vm13ComObjectBaseI34__Il2CppComDelegate_t3311706788CCW18Il2CppIInspectableNS0_7details6ComNilES5_S5_S5_S5_S5_S5_E14QueryInterfaceERK10Il2CppGuidPPv
usk:_TextGenerator_get_verts_m3124035267
ZSg:_MonoType_CheckMethodSecurity_m4116906190
l9c:__ZN5physx9NpFactory21releaseConnectorArrayEPNS_16NpConnectorArrayE
ZXk:__ZN14dense_hash_mapI10KeyWrapperINSt3__212basic_stringIcNS1_11char_traitsIcEENS1_9allocatorIcEEEEEP11Il2CppClassN6il2cpp5utils11StringUtils12StringHasherIS7_EENS1_8equal_toIS8_EENS5_INS1_4pairIKS8_SA_EEEEE15set_deleted_keyERSJ_
rvk:_Vector2_get_one_m3174311904
iX:__ZNSt3__26__treeINS_12__value_typeIN19CloudServiceHandler11ServiceTypeEPS2_EENS_19__map_value_compareIS3_S5_NS_4lessIS3_EELb1EEE13stl_allocatorIS5_L18MemLabelIdentifier85ELi16EEE7destroyEPNS_11__tree_nodeIS5_PvEE
YVd:__ZNK5physx2Gu29EPASupportMapPairRelativeImplINS0_9TriangleVENS0_4BoxVEE6getDirEv
s0e:_Array_Sort_TisVector2_t2243707579_m1307634946_gshared
cfa:__ZN13RuntimeStaticI18BackgroundJobQueueE13StaticDestroyEPv
WNk:_Comparison_1_Invoke_m353639462_gshared
hwa:__ZN17PersistentManager22CheckInstanceIDsLoadedEPii
mEa:__ZN7ApiGLES17CopyBufferSubDataEjjlll
QMe:__ZN11UnityEngine15PlatformWrapper17GetCloudProjectIdEv
Oz:__ZN7mecanim5human19MaskHasLeftFootGoalERKNS_6bitsetILj66EEE
JWk:__ZNSt3__26vectorIPK10Il2CppTypeNS_9allocatorIS3_EEE7reserveEj
KOk:_U3CCreateWhereIteratorU3Ec__Iterator1D_1_Reset_m1773515612_gshared
JKk:_EqualityComparer_1_get_Default_m2134906921_gshared
Gzg:_InputField_get_caretPosition_m1005871812
YDl:_wmemmove
yAh:_Dictionary_2__ctor_m3111963761_gshared
IV:__ZN11AudioModule26SetDefaultMicrophoneDriverEPv
Cyd:__ZNK5physx15NpActorTemplateINS_15PxParticleFluidEE22getClientBehaviorFlagsEv
rFk:_AesManaged_CreateEncryptor_m1729287824
pyb:__ZNK14Texture2DArray26CanReuploadDataToGfxDeviceEv
o4a:__ZN17PrePassRenderLoop14RenderBasePassEP13RenderTextureRK14LightingLayersR13dynamic_arrayI16RenderObjectDataLj4EERbR10MinMaxAABB
Xjb:__ZN17GlobalGameManager23VirtualRedirectTransferER17RemapPPtrTransfer
Uwe:_sfnt_stream_close
ivg:_GraphicRegistry_RegisterGraphicForCanvas_m2284226562
Hqf:_Char_System_IConvertible_ToInt16_m2741348777_AdjustorThunk
FGl:__ZNKSt3__27num_getIwNS_19istreambuf_iteratorIwNS_11char_traitsIwEEEEE6do_getES4_S4_RNS_8ios_baseERjRPv
IHl:__ZNKSt3__220__time_get_c_storageIcE3__cEv
Fug:_FontData_get_verticalOverflow_m83665814
Ubg:_ReadOnlyCollection_1_System_Collections_Generic_IListU3CTU3E_set_Item_m1547026160_gshared
lpi:__ZL61MarshalAsAttribute_t2900773360_CustomAttributesCacheGeneratorP21CustomAttributesCache
Eha:__ZN7Texture13SetFilterModeEi
WOb:__Z33BuildSerializationCommandQueueForI19StreamedBinaryWriteILb0EEEvRK34BuildSerializationCommandQueueArgsR32SerializationCommandQueueBuilderRP20AllowNameConversionsbPK18TransferField_Info
bic:__Z46Register_UnityEngine_Application_get_isPlayingv
Mql:__ZN6il2cpp8metadata13GenericMethod9GetMethodEPK19Il2CppGenericMethod
$kb:__ZNSt3__26vectorIN4core12basic_stringIcNS1_20StringStorageDefaultIcEEEENS_9allocatorIS5_EEE7reserveEj
eDf:_Convert_ToUInt16_m2130758075
eoh:_X509BasicConstraintsExtension_Encode_m3505127076
P8j:__ZN21InterfaceFuncInvoker1Ii20TimeSpan_t3430258949E6InvokeEjP11Il2CppClassPvS0_
yHj:_Scrollbar_OnRectTransformDimensionsChange_m330142657
Sxb:__ZN24GenerateTypeTreeTransfer8TransferI13dynamic_arrayI12SpriteVertexLj4EEEEvRT_PKc17TransferMetaFlags
cza:__ZN13GfxDeviceGLES11SetViewportERK5RectTIiE
Lxg:_Image_get_pixelsPerUnit_m4104195799
rNj:_Toggle_InternalToggle_m2323729210
bHf:_Decimal_System_IConvertible_ToInt64_m2504363272
Trc:__Z24Time_Get_Custom_PropTimev
Vb:invoke_vifiiii
Klf:_Array_GetValue_m3182152438
Ae:_emscripten_glDepthRange
SRh:_DESTransform_CipherFunct_m3559419566
Lij:__Z91RuntimeInvoker_Boolean_t3825574718_TouchScreenKeyboardTypeU26_t2194866306_Int32_t2071877448PK10MethodInfoPvPS2_
bUc:__ZN5physx2Gu24contactConvexHeightfieldERKNS0_13GeometryUnionES3_RKNS_11PxTransformES6_RKfRNS0_5CacheERNS0_13ContactBufferE
Oad:__ZN5physx6shdfnd5ArrayIPvNS0_19ReflectionAllocatorINS_2Cm5BlockIS2_Lj8EEEEEE15growAndPushBackERKS2_
Dng:_StandaloneInputModule_get_repeatDelay_m3025279
yVh:_GUILayoutGroup_CalcWidth_m4107152934
tPh:_RuntimeFieldHandle_get_Value_m3963757144
UZb:__Z14resize_trimmedINSt3__26vectorIN9ShaderLab20SerializedSubProgram12UAVParameterENS0_9allocatorIS4_EEEEEvRT_j
tKh:_SerializationInfo_AddValue_m1781549036
eUk:__ZL25UnresolvedVirtualCall_214P12Il2CppObject18Color32_t874517518PK10MethodInfo
Fbh:_TlsServerKeyExchange_verifySignature_m3641534563
Y7f:_Collection_1_Clear_m445145071_gshared
ELj:_Slider_FindSelectableOnLeft_m3136767885
C$i:__Z75RuntimeInvoker_Void_t1841601450_Il2CppObject_RuntimeFieldHandle_t2331729674PK10MethodInfoPvPS2_
DFa:__ZN4crndL20crnd_default_reallocEPvjPjbS0_
xTe:_Array_BinarySearch_TisInt32_t2071877448_m51233948_gshared
pdc:__ZN7Texture11SetWrapModeEi
AMl:__ZNSt3__26locale5__imp7installINS_9money_putIwNS_19ostreambuf_iteratorIwNS_11char_traitsIwEEEEEEEEvPT_
__d:__ZN5physx24PxsComputeAABBLocalSpaceERKNS_18PxcAABBDataDynamicERNS_9PxBounds3E
Idc:__ZN16PackedQuatVector9PackQuatsEP11Quaternionfi
qej:__Z115RuntimeInvoker_Void_t1841601450_Rect_t3681755626_Il2CppObject_Int32_t2071877448_Int32_t2071877448_Int32_t2071877448PK10MethodInfoPvPS2_
grc:__Z33Texture_CUSTOM_Internal_GetHeightP12Il2CppObject
ZBg:_LayoutGroup_get_preferredHeight_m3901163825
Cue:_UNITY_FT_Init_Class_ft_bitmap_glyph_class
Ev:__ZN7mecanim9animation18ClipMuscleConstant8TransferI24GenerateTypeTreeTransferEEvRT_
tmb:__ZN4PPtrI13RenderTextureE8TransferI18StreamedBinaryReadILb0EEEEvRT_
q5k:__ZN15dense_hashtableINSt3__24pairIK10KeyWrapperINS1_IPK9FieldInfoP11Il2CppClassEEEjEES9_17ReflectionMapHashIS8_EN14dense_hash_mapIS9_jSD_19ReflectionMapEqualsIS8_ENS0_9allocatorISB_EEE9SelectKeyESG_SI_E15insert_noresizeERKSB_
rAf:_DateTime_AbsoluteDays_m3061694073
pjj:__Z56RuntimeInvoker_Boolean_t3825574718_LabelData_t3712112744PK10MethodInfoPvPS2_
RDe:_UNITY_FT_Stream_GetChar
mBk:_BoblinController_OnCollisionEnter2D_m1183165849
dXb:__Z18Transfer_BlittableI18StreamedBinaryReadILb1EELb1EdEvRK29SerializationCommandArgumentsR31RuntimeSerializationCommandInfo
nvh:_Enumerator_MoveNext_m435964161_AdjustorThunk
wvh:_Enumerator_System_Collections_IEnumerator_get_Current_m229223308_gshared
pGi:__ZL202U3CCreateWhereIteratorU3Ec__Iterator1D_1_t2523986802_CustomAttributesCacheGenerator_U3CCreateWhereIteratorU3Ec__Iterator1D_1_System_Collections_Generic_IEnumerableU3CTSourceU3E_GetEnumerator_m2392330777P21CustomAttributesCache
zTd:__ZN5physx6shdfnd8internal8HashBaseINS0_4PairIKNS_2Sq13PrunerPayloadEjEES5_NS0_4HashIS5_EENS1_11HashMapBaseIS5_jS9_NS0_9AllocatorEE6GetKeyESB_Lb1EE5eraseERS6_
Dte:__ZNK19TextRenderingModule8TMGenGetERK11UTF16StringPN13TextRendering4FontE10TextAnchor13TextAlignmentfffbb11ColorRGBA32fii
rbe:__ZN5physx13GuMeshFactory16createConvexMeshERNS_13PxInputStreamE
tke:__ZN5physx6shdfnd8internal8HashBaseINS0_4PairIKPKcjEES5_NS0_4HashIS5_EENS1_11HashMapBaseIS5_jS9_NS_7profile26WrapperReflectionAllocatorIjEEE6GetKeyESD_Lb1EE6createERS6_Rb
oui:__ZL55GCHandleType_t1970708122_CustomAttributesCacheGeneratorP21CustomAttributesCache
byj:_Event_Init_m3901382626
KAj:_AnimationPlayableUtilities_SetInputsValidated_m2696856860
Dhb:__ZN10FileSystem12MountHandlerEP17FileSystemHandler
utf:_FixedSizeArrayListWrapper_AddRange_m2071800418
Ifa:__Z9InitInputv
JGa:__ZN4gles10SetTextureER15DeviceStateGLESj16TextureDimensionj19BuiltinSamplerState
bQf:_Enumerator_VerifyState_m2358705882_AdjustorThunk
YRb:__Z29Transfer_Blittable_ArrayFieldI24GenerateTypeTreeTransfer11ColorRGBA32EvRT_R9ArrayInfoRK23StaticTransferFieldInfo
pbe:__ZNK5physx13GuMeshFactory15getConvexMeshesEPPNS_12PxConvexMeshEjj
SHj:_Selectable_Navigate_m915280351
j4g:_AppDomain_getCurDomain_m591611373
xdb:__ZN16MemoryFileSystem6DeleteER13FileEntryDatab
Lvk:_Vector3_get_normalized_m936072361
Eua:__ZL21BlitScaleStbImageImplRK14ImageReferenceRS_NS_10ColorSpaceE
Rpd:__ZN5physx10NpMaterial17setStaticFrictionEf
vih:_TlsStream_set_Position_m378064217
KTk:__ZL25UnresolvedVirtualCall_192P12Il2CppObject26DateTimeOffset_t1362988906S1_PK10MethodInfo
XI:__ZN18StreamedBinaryReadILb0EE21TransferSTLStyleArrayI13dynamic_arrayIjLj4EEEEvRT_17TransferMetaFlags
hOc:__ZNSt3__26__sortIR31RayHitsByInverseDepthComparitorP12RaycastHit2DEEvT0_S5_T_
oKd:__ZNK5physx7NpScene19getFilterShaderDataEv
vNb:__Z29Transfer_Blittable_ArrayFieldI14SafeBinaryReadyEvRT_R9ArrayInfoRK23StaticTransferFieldInfo
lSk:__ZL25UnresolvedVirtualCall_113P12Il2CppObjectiiiPK10MethodInfo
US:__ZN20SoundChannelInstance15setChannelGroupEPN4FMOD12ChannelGroupE
Tkd:__ZN5physx2Sc19ShapeInstancePairLL26onPoseChangedWhileSleepingEv
Mbf:_Evidence_Equals_m2325859915
gVd:__ZN5physx22PxcSweepCapsuleCapsuleERKNS_11PxsCCDShapeES2_PKNS_12PxsRigidBodyES5_RKNS_11PxTransformES8_S8_S8_fRNS_6PxVec3ESA_RNS_10PxcNpCacheERNS_18PxcNpThreadContextEf
Iyi:__ZL93WindowsIdentity_t373339331_CustomAttributesCacheGenerator_WindowsIdentity_Dispose_m2649088337P21CustomAttributesCache
x9h:_Default__ctor_m172834064
Tc:invoke_vifffii
EIb:__ZN20ArchiveStorageReader17MakeStorageUnusedEv
nkk:_Regex_IsMatch_m2159202025
e2c:__ZNK5physx3Cct17CapsuleController21getHalfHeightInternalEv
VPa:__ZNK25MultiBlocksMemoryFileData5CloneEv
kvl:_GC_add_ext_descriptor
p1c:__ZN5physx21PxQueryFilterCallbackD2Ev
byg:_Image_CalculateLayoutInputHorizontal_m3275149860
NLh:_RemotingServices_GetMethodBaseFromName_m3271095947
d7i:__Z71RuntimeInvoker_TimeSpan_t3430258949_Double_t4078015681_Int64_t909078037PK10MethodInfoPvPS2_
_Qa:__ZN17ArchiveFileSystem11CreateAsDirER13FileEntryData
t8c:__ZL30GeomOverlapCallback_CapsuleBoxRKN5physx10PxGeometryERKNS_11PxTransformES2_S5_PNS_2Gu12TriggerCacheE
VPl:dynCall_iiiiiiiiiiii
Ahf:_ASCIIEncoding_GetBytes_m3617160053
l6j:_InternalEnumerator_1_MoveNext_m2289229080_AdjustorThunk
MZi:__Z72RuntimeInvoker_Boolean_t3825574718_Decimal_t724701077_Decimal_t724701077PK10MethodInfoPvPS2_
Iah:_CipherSuiteCollection_System_Collections_IList_RemoveAt_m143866082
tek:_Context_get_HasGlobalDynamicSinks_m3205328884
oya:__ZN22VertexDeclarationCacheD0Ev
Spa:__ZN6prcoreL17RemapGenericFloatI16TexFormatRGFloat17TexFormatRGBAHalfEEvPKNS_9InnerInfoE
Xhb:__ZNK21AssetBundleFileSystem8PositionERK13FileEntryData
Ozj:_UnityEventBase_UnityEngine_ISerializationCallbackReceiver_OnBeforeSerialize_m1773826808
XOc:__ZN13dynamic_arrayI11Collision2DLj4EE9push_backERKS0_
Z8:__ZN8Remapper23GetOrGenerateInstanceIDERK26SerializedObjectIdentifier
hu:__ZN17AnimationCurveTplI8Vector3fEC2ERKS1_
EPg:_StreamWriter_Flush_m3426120024
eRa:__ZN17FileSystemHandler10AtomicMoveER13FileEntryDataS1_
fb:invoke_iiiiiifffiiifii
hNg:_MemoryStream__ctor_m1489366847
jcf:_SecurityElement_IsValidTag_m64902195
zvh:_Enumerator_System_Collections_IEnumerator_get_Current_m229223308_AdjustorThunk
vki:_PropertyInfo_SetValue_m2961483868
SUh:_GUILayoutEntry_set_style_m70917293
YVf:_List_1_System_Collections_IList_Contains_m4193366963_gshared
OIk:_UnityEvent_3_FindMethod_Impl_m1889846153_gshared
vhk:_DictionaryEnumerator_get_Value_m1915638953
W9h:_ConstructorInfo_Invoke_m2144827141
mLj:_Slider_set_onValueChanged_m1751815187
Qxb:__ZN6Sprite8TransferI24GenerateTypeTreeTransferEEvRT_
Oxl:__ZThn4_N6il2cpp2vm13ComObjectBaseINS0_13ManagedObjectE18Il2CppIInspectableNS0_7details6ComNilES5_S5_S5_S5_S5_S5_E16GetManagedObjectEv
Usc:__Z48Register_UnityEngine_Transform_SetAsFirstSiblingv
yjj:__Z56RuntimeInvoker_Boolean_t3825574718_UriScheme_t1876590943PK10MethodInfoPvPS2_
_Ab:__ZN7SubMesh8TransferI24GenerateTypeTreeTransferEEvRT_
zji:_MonoProperty_get_CanWrite_m2124922514
bTc:__ZN5physx3Cct10Controller6setPosERKNS_14PxExtendedVec3E
nea:__ZN13RuntimeStaticI13RendererSceneE13StaticDestroyEPv
iVc:__ZN5physx2GuL14testFaceNormalERKNS0_13PolygonalDataES3_PNS0_12SupportLocalES5_RKNS_6shdfnd3aos15PsMatTransformVESA_RKNS7_6FloatVERSB_RjRNS7_5Vec3VENS0_13FeatureStatusERSI_
eij:__Z36RuntimeInvoker_Enumerator_t132208513PK10MethodInfoPvPS2_
Kjj:__Z112RuntimeInvoker_Int32_t2071877448_Il2CppObject_Int32_t2071877448_Int32_t2071877448_Int32_t2071877448_Il2CppObjectPK10MethodInfoPvPS2_
vDl:_poll
VMg:_Stream_BeginRead_m1985960185
Xvg:_Graphic_UnregisterDirtyVerticesCallback_m1526739224
DYg:__ZN16VirtFuncInvoker1IP21BigInteger_t925946152iE6InvokeEjPvi
qw:__ZN7mecanim5human9HumanGoal8TransferI18StreamedBinaryReadILb0EEEEvRT_
NQi:__ZL88TweenRunner_1_t2584777480_CustomAttributesCacheGenerator_TweenRunner_1_Start_m2640577060P21CustomAttributesCache
X7g:_MD4Managed_GG_m1462438360
Onc:__Z46Mesh_CUSTOM_PrintErrorCantAccessMeshForIndicesP12Il2CppObject
udc:__ZN9Transform23SetSiblingIndexInternalEib
LJj:_ScrollRect_get_minWidth_m3151814267
z8c:__ZL32GeomOverlapCallback_ConvexConvexRKN5physx10PxGeometryERKNS_11PxTransformES2_S5_PNS_2Gu12TriggerCacheE
kvg:_Graphic_get_canvasRenderer_m2902370808
Ty:__ZN7mecanim5human12HumanPoseSubERNS0_9HumanPoseERKS1_S4_
J7g:_MD4_Create_m2582504069
fNk:_HashSet_1_System_Collections_IEnumerable_GetEnumerator_m2498631708_gshared
Dkl:__ZN6il2cpp8metadata15GenericMetadata15GetGenericClassEiPK17Il2CppGenericInst
sof:_Boolean_System_IConvertible_ToInt16_m977801621
LLb:__Z18Transfer_BlittableI14SafeBinaryReadLb0E10Matrix4x4fEvRK29SerializationCommandArgumentsR31RuntimeSerializationCommandInfo
VSa:__Z24GetFixedBehaviourManagerv
xDf:_Convert_ToUInt64_m1691869628
W0k:__ZN6il2cpp2vm10ThreadPool4WaitEP17Il2CppAsyncResultPPv
nBl:_vfprintf
vKh:_SerializationException__ctor_m1019897788
Hbj:__Z67RuntimeInvoker_Playable_t3667545548_GenericMixerPlayable_t788733994PK10MethodInfoPvPS2_
RDb:__ZNSt3__26__sortIRNS_6__lessINS_12basic_stringIcNS_11char_traitsIcEENS_9allocatorIcEEEES7_EEPS7_EEvT0_SB_T_
nqj:_Debug_get_logger_m4173808038
Xna:__ZL13SortTexByNameRKNSt3__24pairIN9ShaderLab16FastPropertyNameEN18UnityPropertySheet11UnityTexEnvEEES7_
b$a:__ZN20DynamicPropertySheetD0Ev
dbb:__ZN14SafeBinaryRead17RegisterConverterEPKcS1_PFbPvRS_E
Y3:__ZN35RegisterRuntimeInitializeAndCleanup8RegisterEPFvPvES2_iS0_
TDd:__ZNK5physx19NpRigidBodyTemplateINS_14PxRigidDynamicEE17getRigidBodyFlagsEv
Wdl:__ZNSt3__26vectorIN6il2cpp8metadata18GenericArrayMethodENS_9allocatorIS3_EEE7reserveEj
et:__ZN7mecanim6memory16ChainedAllocator7ReserveEj
dnf:_AsyncCallback__ctor_m3071689932
mel:__ZNK15dense_hashtableINSt3__24pairIK10KeyWrapperIP11Il2CppClassES4_EES5_N6il2cpp8metadata16SZArrayClassHashEN14dense_hash_mapIS5_S4_SA_NS9_19SZArrayClassCompareENS0_9allocatorIS7_EEE9SelectKeyESC_SE_E13find_positionERS6_
Bhg:_ReadOnlyCollection_1_System_Collections_IList_Clear_m2600246370_gshared
UUd:__ZN5physx29EntityReportContainerCallback7onEventEjPj
wMc:__ZN4PPtrI17PhysicsMaterial2DE8TransferI18StreamedBinaryReadILb0EEEEvRT_
xpb:__ZN20SphericalHarmonicsL215AddAmbientLightERK10ColorRGBAf
Wwk:_WWW_get_bytes_m420718112
kVd:__ZN5physx25PxcSweepConvexHeightfieldERKNS_11PxsCCDShapeES2_PKNS_12PxsRigidBodyES5_RKNS_11PxTransformES8_S8_S8_fRNS_6PxVec3ESA_RNS_10PxcNpCacheERNS_18PxcNpThreadContextEf
xdj:__Z41RuntimeInvoker_EventModifiers_t2690251474PK10MethodInfoPvPS2_
m_g:_DSAManaged_NormalizeArray_m2287089393
o7j:_InternalEnumerator_1_System_Collections_IEnumerator_get_Current_m2389982234_AdjustorThunk
Inf:_BitConverter_ToUInt32_m4153360341
hKj:_Selectable_get_interactable_m1725029500
aEe:_UNITY_TT_Get_MM_Var
i6c:__ZN5physx6shdfnd8PoolBaseINS_2Sc10NPhaseCore16ClothListElementENS0_19ReflectionAllocatorIS4_EEE17releaseEmptySlabsEv
Z:invoke_diddi
Dlg:_ExecuteEvents__cctor_m288775360
tFe:__ZNK2UI6Canvas13GetRenderModeEv
vBf:_Double_TryParseStringConstant_m2585405703
i6k:__ZN15dense_hashtableINSt3__24pairIK10KeyWrapperIPK10Il2CppTypeEjEES6_N6il2cpp8metadata14Il2CppTypeHashEN14dense_hash_mapIS6_jSB_NSA_17Il2CppTypeCompareENS0_9allocatorIS8_EEE9SelectKeyESD_SF_E5clearEv
qii:_MonoField_get_Attributes_m4138688533
uH:__Z32TransferEnumWithNameForceIntSizeI14SafeBinaryRead28TransitionInterruptionSourceEvRT_RT0_PKc17TransferMetaFlags
YLb:__Z18Transfer_BlittableI14SafeBinaryReadLb0EiEvRK29SerializationCommandArgumentsR31RuntimeSerializationCommandInfo
K$k:__ZN6il2cpp2vm13MetadataCache30GetPropertyDefinitionFromIndexEi
$5e:_RijndaelTransform_Clear_m1652144089
XCd:__ZN5physx14NpRigidDynamic7releaseEv
P1e:_BaseInvokableCall_ThrowOnInvalidArg_TisIl2CppObject_m1349548392_gshared
mXi:__Z57RuntimeInvoker_Void_t1841601450_Il2CppObject_Il2CppObjectPK10MethodInfoPvPS2_
yUg:_NumberFormatter_get_IsZero_m1325357749
ARd:__ZN5physx6shdfnd8PoolBaseINS_21PxsBodyTransformVault13PxsBody2WorldENS0_19ReflectionAllocatorIS3_EEE15disposeElementsEv
Uak:_CompilationRelaxationsAttribute__ctor_m2800984288
NI:__ZN15SerializeTraitsI9OffsetPtrIN7mecanim9animation23BlendDirectDataConstantEEE8TransferI24GenerateTypeTreeTransferEEvRS4_RT_
iTh:_GUIClip_INTERNAL_CALL_Push_m969940749
TKf:_Enum_ToObject_m322320225
zCk:_LobsterKid_Start_m2263580762
aaf:_X509Certificate__ctor_m3860837120
wve:_gray_raster_reset
MCj:_GameObject_Internal_CreateGameObject_m3428198595
FHl:__ZNKSt3__220__time_get_c_storageIcE7__weeksEv
Itj:_Camera_RaycastTry2D_m755036866
whg:_ReadOnlyCollection_1_System_Collections_Generic_IListU3CTU3E_set_Item_m3663361643_gshared
k$c:__ZN5physx2Gu30computeCapsule_TriangleMeshMTDERKNS_22PxTriangleMeshGeometryERKNS_11PxTransformERNS0_8CapsuleVEffbRNS_10PxSweepHitE
Mkg:_EventTrigger_OnScroll_m626934407
dIb:__ZN30RuntimeInitializeOnLoadManager8TransferI18StreamedBinaryReadILb0EEEEvRT_
WCh:_Dictionary_2__ctor_m1206668798_gshared
fwe:_UNITY_tt_face_load_pclt
hJb:__ZN21ArchiveStorageCreator14StoreDirectoryEv
Ogc:__ZL34GetComponentsImplementationRecurseILb1ELi0ELi2EEbR10GameObjectbRK17CompareParametersRK39GetComponentsImplementation_ReturnValue
tyl:__ZN6il2cpp6icalls8mscorlib6System9Threading5Mutex20CreateMutex_internalEbP12Il2CppStringPb
c5i:__Z50RuntimeInvoker_Int16_t4041245914_Int16_t4041245914PK10MethodInfoPvPS2_
atf:_ArrayListWrapper_Remove_m1105489978
s_a:__ZNK6Camera18WorldToScreenPointERK8Vector3fPb
oAk:_X509Extension_get_Oid_m3620527052
q$d:__ZN5physx2Cm12DelegateTaskINS_10PxsContextEXadL_ZNS2_28mergeCMDiscreteUpdateResultsEPNS_10PxBaseTaskEEEE11runInternalEv
omc:__Z38Renderer_Set_Custom_PropSharedMaterialP12Il2CppObjectS0_
fbh:_TlsClientSettings_set_TargetHost_m3421266913
dge:__ZN5physx19TriangleMeshBuilder10importMeshERKNS_18PxTriangleMeshDescERKNS_15PxCookingParamsEb
Woc:__Z45Playable_CUSTOM_INTERNAL_CALL_IsValidInternalR9HPlayable
SPi:__ZL109PointerEventData_t1599784723_CustomAttributesCacheGenerator_PointerEventData_get_eligibleForClick_m2497780621P21CustomAttributesCache
S2e:_Array_InternalArray__get_Item_TisILTokenInfo_t149559338_m2004750537_gshared
Wy:__ZN7mecanim9animation19AdjustPoseForMotionERKNS0_14AvatarConstantERKNS0_14SkeletonTQSMapERKN4math4trsXERNS_10ValueArrayERNS_8skeleton13SkeletonPoseTIS8_EESG_
f2j:_InternalEnumerator_1_Dispose_m549215360_AdjustorThunk
Pqf:_Convert_ToSByte_m2665932200
g8:__ZNSt3__227__insertion_sort_incompleteIRPFbRKN18AwakeFromLoadQueue4ItemES4_EPS2_EEbT0_S9_T_
Eyk:_PKCS12_Encrypt_m2154408631
s3:__GLOBAL__sub_I_runtime_camera_culling_lump_cpp
Rzh:_ValueCollection_System_Collections_ICollection_get_IsSynchronized_m45572582_gshared
dTe:_Array_InternalArray__IEnumerable_GetEnumerator_TisContactPoint2D_t3659330976_m478005999_gshared
bqk:_SystemInfo_get_supportsShadows_m2920500780
TFj:_Navigation_Equals_m4214630671_AdjustorThunk
eeg:_ReadOnlyCollection_1_System_Collections_Generic_IListU3CTU3E_set_Item_m257196015_gshared
Yvd:__ZN5physx6shdfnd5ArrayINS_18PxClothFabricPhaseENS0_19ReflectionAllocatorIS2_EEE8recreateEj
gtb:__ZN26EnlightenSystemInformation8TransferI14SafeBinaryReadEEvRT_
D2e:_Array_InternalArray__get_Item_TisLink_t2723257478_m2281261655_gshared
zLd:__ZN5physx2Sq17SceneQueryManager11shiftOriginERKNS_6PxVec3E
sCb:__ZN12MeshRendererD0Ev
oZc:__ZN5physx2Gu16sweepBoxTriangleERKNS_10PxTriangleERKNS_9PxBounds3ERKNS_6PxVec3ES9_RS7_SA_Rf
nS:__ZN4PPtrI15AudioMixerGroupE8TransferI18StreamedBinaryReadILb1EEEEvRT_
Olk:_ExpressionAssertion_IsComplex_m783019628
zwh:_ShimEnumerator_MoveNext_m2943029388_gshared
Uvf:_Hashtable__ctor_m2702360557
mi:_utime
Pge:__ZN5physx10writeChunkEaaaaRNS_14PxOutputStreamE
jEg:_DateTimeFormatInfo_get_RawAbbreviatedDayNames_m3998113647
mGh:_DefaultComparer_GetHashCode_m2596628120_gshared
vvl:_GC_call_with_alloc_lock
MRe:__ZN16VirtFuncInvoker0IP8String_tE6InvokeEjPv
R5k:__ZN6il2cpp2gc19AppendOnlyGCHashMapIPK10Il2CppTypeP20Il2CppReflectionTypeNS_8metadata14Il2CppTypeHashENS7_17Il2CppTypeCompareEE3AddERKS4_S6_
v6g:_PrimalityTest_Invoke_m4058801829
BLh:_RemotingConfiguration_SetCustomErrorsMode_m1844153208
uo:FUNCTION_TABLE_viiiiii
Kmd:__ZN5physx2Sc9RigidCore13onShapeChangeERNS0_9ShapeCoreENS_7PxFlagsINS0_21ShapeChangeNotifyFlag4EnumEjEENS4_INS_11PxShapeFlag4EnumEhEE
vNf:_CultureInfo_GetFormat_m3560116485
eB:__ZN7mecanim9animation22DestroyAvatarWorkspaceEPNS0_15AvatarWorkspaceERNS_6memory9AllocatorE
M7h:_ScriptableObject_CreateInstance_m3271154163
nte:__ZNSt3__26vectorI8UnityStr13stl_allocatorIS1_L18MemLabelIdentifier34ELi16EEE12__move_rangeEPS1_S6_S6_
Drh:_FactoryCache__ctor_m254400436
vAd:__ZN5physx6shdfnd5ArrayIPvNS0_15InlineAllocatorILj256ENS0_19ReflectionAllocatorINS_2Sc19ParticlePacketShapeEEEEEE15growAndPushBackERKS2_
PXd:__ZN5physx17solveContactBlockEPKNS_23PxcSolverConstraintDescEjRNS_16PxcSolverContextE
Yge:__ZN5physx6shdfnd10FoundationD2Ev
sVe:_Array_InternalArray__IndexOf_TisResourceCacheItem_t333236149_m761772858_gshared
_uc:__ZNSt3__210__list_impIN10GUIManager12SortedScriptE11memory_poolIS2_EE5clearEv
ABi:__ZL76Convert_t2607082565_CustomAttributesCacheGenerator_Convert_ToInt64_m44696721P21CustomAttributesCache
YLh:_TrackingServices__cctor_m3639412334
kla:__ZN9ShaderLab11shaderprops9GetVectorEPK19ShaderPropertySheetS3_NS_16FastPropertyNameERNS0_16PropertyLocationE
nyc:__Z32GUIStyle_Set_Custom_PropRichTextP12Il2CppObjecth
mF:__ZN7mecanim9animation29MotionOutputGetDeltaTransformEPKNS0_12MotionOutputE
Oka:__ZNSt3__26__treeINS_12__value_typeI4PPtrI13RenderTextureEN19RenderBufferManager23RenderTextureParametersEEENS_19__map_value_compareIS4_S7_NS_4lessIS4_EELb1EEE11memory_poolIS7_EE5eraseENS_21__tree_const_iteratorIS7_PNS_11__tree_nodeIS7_PvEEiEE
wbf:_StrongNamePublicKeyBlob_Equals_m2407250401
bAh:_ValueCollection_System_Collections_IEnumerable_GetEnumerator_m1773104428_gshared
Vjb:__ZN17GlobalGameManager23VirtualRedirectTransferER19StreamedBinaryWriteILb0EE
PHc:__ZN24b2ChainAndCapsuleContact8EvaluateEP10b2ManifoldRK11b2TransformS4_
sL:__ZN8Animator14OnAddComponentEPN5Unity9ComponentE
_0f:_List_1_CheckMatch_m1184924052_gshared
lsc:__Z43Transform_CUSTOM_INTERNAL_get_localRotationP12Il2CppObjectP11Quaternionf
XRd:__ZN5physx2Sc10NPhaseCoreD2Ev
wad:__ZN5physx2Sc7BodySim18onConstraintDetachEv
htk:_Touch_get_fingerId_m4109475843_AdjustorThunk
PUl:_glGetShaderInfoLog__wrapper
Pi:_emscripten_glGetTexParameteriv
uKd:__ZN5physx7NpScene8simulateEfPNS_10PxBaseTaskEPvjb
KVf:_List_1_ToArray_m3752387798_gshared
$Id:__ZThn8_N5physx2Sc24ElementInteractionMarker10onActivateEj
T8g:_RSAManaged_ImportParameters_m3060955884
e2g:_DeriveBytes__ctor_m3089550878
hUg:_NotImplementedException__ctor_m1305569814
i_b:__ZN9ShaderLab20SerializedSubProgram14ConstantBufferaSERKS1_
Jck:_ChannelData_CopyFrom_m4049054607
Z3b:__Z13RegisterClassI4MeshEvv
lPi:__ZL94AxisEventData_t1524870173_CustomAttributesCacheGenerator_AxisEventData_get_moveDir_m3968662359P21CustomAttributesCache
sUe:_Array_FindLastIndex_TisIl2CppObject_m869210470_gshared
XMk:_PrimeHelper__cctor_m1638820768_gshared
aqb:__ZN8PlayableD0Ev
Oma:__ZNSt3__24pairIK8UnityStrS1_EC2ERKS3_
xbj:__Z56RuntimeInvoker_Int32_t2071877448_PlayableU26_t3233213460PK10MethodInfoPvPS2_
LO:__ZN12AudioManager8TransferI19StreamedBinaryWriteILb0EEEEvRT_
ZF:__ZN4PPtrI25RuntimeAnimatorControllerE8TransferI18StreamedBinaryReadILb1EEEEvRT_
ANg:_WriteDelegate_Invoke_m2103848735
JWf:_List_1_get_Capacity_m4262042666_gshared
wMk:_GenericEqualityComparer_1_GetHashCode_m1950634276_gshared
AXb:__ZN18StreamedBinaryReadILb1EE21TransferSTLStyleArrayI13dynamic_arrayI11ColorRGBA32Lj4EEEEvRT_17TransferMetaFlags
xqj:_Animator_GetBoolString_m307776885
fJb:__ZNSt3__26__treeINS_12__value_typeINS_12basic_stringIcNS_11char_traitsIcEENS_9allocatorIcEEEEjEENS_19__map_value_compareIS7_S8_NS_4lessIS7_EELb1EEE13stl_allocatorIS8_L18MemLabelIdentifier54ELi16EEE12__find_equalIS7_EERPNS_16__tree_node_baseIPvEESM_RKT_
eoi:__ZL72Il2CppArray_CustomAttributesCacheGenerator_Array_LastIndexOf_m4096535198P21CustomAttributesCache
Pxh:_Transform_1_EndInvoke_m687617772_gshared
Tlj:__Z66RuntimeInvoker_Void_t1841601450_Int32_t2071877448_Mark_t2724874473PK10MethodInfoPvPS2_
MEk:_Locale_GetText_m512920887
$7b:__ZNK32RendererMaterialAnimationBinding12GetPPtrValueERKN11UnityEngine9Animation10BoundCurveE
_Tb:__Z18Transfer_BlittableI18StreamedBinaryReadILb0EELb0E8Vector2fEvRK29SerializationCommandArgumentsR31RuntimeSerializationCommandInfo
yjd:__ZN5physx18NpArticulationLink10clearForceENS_11PxForceMode4EnumE
jLh:_RemotingConfiguration_get_ProcessId_m3870172209
_Vc:__ZN5physx2Gu30distanceSegmentTriangleSquaredERKNS_6PxVec3ES3_S3_S3_S3_PfS4_S4_
QMc:__ZN16CircleCollider2D10SmartResetEv
dIe:__ZN2UI11CanvasGroup12CleanupClassEv
A7h:_SceneManager_LoadScene_m1386820036
LFg:_SortKey_ToString_m2406913228
Z1:__ZN22LocalFileSystemHandler9MakeLocalER13FileEntryDatab
Qrl:__ZN6il2cpp2vm8Profiler10AllocationEP12Il2CppObjectP11Il2CppClass
CAf:_Convert_ToDateTime_m1020507389
Jrg:_ColorTween_AddOnChangedCallback_m3190875685
jgl:__ZN13dynamic_arrayIP12Il2CppObjectLj4EE10reallocateEPS1_j
oDb:__ZN14SpriteRenderer21ReleaseGeometryJobMemEP25DynamicVBOGeometryJobData
Zse:__ZNSt3__23mapIN20TextRenderingPrivate7FontRefENS1_6OSFontENS_4lessIS2_EENS_9allocatorINS_4pairIKS2_S3_EEEEEixERS8_
rLg:_Path_IsPathRooted_m1347207448
mNh:_ObjectManager_RegisterObjectInternal_m879109503
qPe:_Array_get_swapper_TisVector4_t2243707581_m97441823_gshared
_td:__ZNK5physx15NpActorTemplateINS_7PxClothEE12getAggregateEv
jwa:__ZNSt3__26__sortIRNS_4lessIiEEPiEEvT0_S5_T_
aqe:__ZN14SafeBinaryRead21TransferSTLStyleArrayI10vector_mapINSt3__24pairIttEEfN20TextRenderingPrivate8FontImpl14KerningCompareENS2_9allocatorINS3_IS4_fEEEEEEEvRT_17TransferMetaFlags
bwh:_Enumerator_System_Collections_IDictionaryEnumerator_get_Entry_m744625813_AdjustorThunk
v4b:__Z13RegisterClassI15QualitySettingsEvv
irl:__ZN6il2cpp2vm6String21InitializeEmptyStringEP11Il2CppClass
d4a:__ZN25DeferredRenderLoopScratchD0Ev
kDk:_PauseMenu_OnApplicationPause_m3286246586
Py:__ZN7mecanim9animation17EvaluateHumanPoseERKNS0_18ClipMuscleConstantERKNS0_15ClipMuscleInputEPKfRKNS0_12MotionOutputERNS_5human9HumanPoseE
yzi:__ZL90UTF7Encoding_t741406939_CustomAttributesCacheGenerator_UTF7Encoding_GetHashCode_m359766848P21CustomAttributesCache
k_i:__Z52RuntimeInvoker_Decimal_t724701077_Single_t2076509932PK10MethodInfoPvPS2_
pUd:__ZNK5physx2Cm12DelegateTaskINS_13PxsCCDContextEXadL_ZNS2_14postCCDAdvanceEPNS_10PxBaseTaskEEEE7getNameEv
W1a:__ZL13RenderCastersiRK8Vector3fS1_RK13ShadowJobDataR17ShaderPassContextRKNSt3__26vectorI16ShadowCasterData13stl_allocatorIS9_L18MemLabelIdentifier2ELi16EEEERKNS8_I20ShadowCasterPartDataSA_ISG_LSB_2ELi16EEEERK15RenderNodeQueueb
aGi:__ZL62SecurityProtocolType_t155967584_CustomAttributesCacheGeneratorP21CustomAttributesCache
uZa:__ZNSt3__227__insertion_sort_incompleteIRPFbP10GUIElementS2_EPS2_EEbT0_S7_T_
goh:_X509BasicConstraintsExtension_get_HasPathLengthConstraint_m3788532759
xla:__ZN22CreateGpuProgramOutputD2Ev
sDj:_GUI_Internal_SetTooltip_m3419738719
VTe:__ZN21InterfaceFuncInvoker1Ii38CustomAttributeNamedArgument_t94157543E6InvokeEjP11Il2CppClassPvS0_
e3c:__ZNK5physx3Cct15ObstacleContext14getNbObstaclesEv
oTb:__Z18Transfer_BlittableI19StreamedBinaryWriteILb0EELb1EsEvRK29SerializationCommandArgumentsR31RuntimeSerializationCommandInfo
$6k:__ZNK15dense_hashtableINSt3__24pairIK10KeyWrapperINS1_IPK10MethodInfoP11Il2CppClassEEEjEES9_17ReflectionMapHashIS8_EN14dense_hash_mapIS9_jSD_19ReflectionMapEqualsIS8_ENS0_9allocatorISB_EEE9SelectKeyESG_SI_E12test_deletedERK24dense_hashtable_iteratorISB_S9_SD_SK_SG_SI_E
z7e:_RSACryptoServiceProvider_EncryptValue_m802714447
thl:__ZN6il2cpp6icalls8mscorlib6System2IO6MonoIO9SetLengthE12Il2CppIntPtrxPi
Pde:__ZN5physx6shdfnd8PoolBaseINS_11NpAggregateENS0_19ReflectionAllocatorIS2_EEE12allocateSlabEv
ZAi:__ZL76Convert_t2607082565_CustomAttributesCacheGenerator_Convert_ToByte_m932798552P21CustomAttributesCache
GCd:__ZN5physx16NpParticleSystem23setParticleReadDataFlagENS_22PxParticleReadDataFlag4EnumEb
FH:__ZN7mecanim9animation23BlendDirectDataConstant8TransferI14SafeBinaryReadEEvRT_
ARc:__ZZN11Rigidbody2D15InitializeClassEvEN35FunctorImpl_200kAnimatorMoveBuiltin4CallEPviR11MessageData
pBd:__ZN5physx7NpScene26removeFromParticleBaseListERNS_14PxParticleBaseE
QCg:_DateTimeFormatInfo_GetInstance_m3133223810
L5g:_ModulusRing_BarrettReduction_m2802101099
P$i:__Z57RuntimeInvoker_ExtenderType_t1556892101_Int32_t2071877448PK10MethodInfoPvPS2_
Gwd:__ZN5physx2Sc9ClothCore23setSelfCollisionIndicesEPKjj
TNa:__ZN12HandlerChain4OpenER13FileEntryData14FilePermission16FileAutoBehavior
xpj:__Z76RuntimeInvoker_Il2CppObject_UILineInfo_t3621277874_Il2CppObject_Il2CppObjectPK10MethodInfoPvPS2_
Ghi:_MonoMethodInfo_GetParametersInfo_m3456861922
Onj:__Z37RuntimeInvoker_UILineInfo_t3621277874PK10MethodInfoPvPS2_
bXk:__ZN15dense_hashtableINSt3__24pairIK10KeyWrapperIPK19Il2CppGenericMethodEPK26Il2CppGenericMethodIndicesEES6_N6il2cpp8metadata23Il2CppGenericMethodHashEN14dense_hash_mapIS6_SA_SE_NSD_26Il2CppGenericMethodCompareENS0_9allocatorISB_EEE9SelectKeyESG_SI_E15set_deleted_keyERKSB_
Zaa:__ZN14FileCacherReadD2Ev
V7e:_RSAPKCS1SignatureDeformatter_VerifySignature_m1825067195
Gkc:__Z50Register_UnityEngine_CullingGroup_FinalizerFailurev
kOf:_KeyValuePair_2_ToString_m2613351884_gshared
Bra:__ZN27UnloadUnusedAssetsOperationD0Ev
Kmb:__ZN6Camera15ThreadedCleanupEv
U_:__ZN9JSONWrite8TransferI8UnityStrEEvRT_PKc17TransferMetaFlags
qB:__ZN26AnimatorControllerPlayable6MemoryD2Ev
WOe:__ZN13RuntimeStaticINSt3__26vectorIjNS0_9allocatorIjEEEEE13StaticDestroyEPv
jRi:__ZL69ColorBlock_t2652774230_CustomAttributesCacheGenerator_m_DisabledColorP21CustomAttributesCache
R9g:_CipherSuite_get_Code_m3902213587
YGj:_Scrollbar__ctor_m2244981801
phl:__ZN6il2cpp6icalls8mscorlib6System2IO6MonoIO9GetLengthE12Il2CppIntPtrPi
EOh:_ObjectRecord_get_HasPendingFixups_m670959802
OBh:_Dictionary_2_Resize_m2807616086_gshared
PUd:__ZN5physx10PxsCCDPair12updateShapesEv
y8e:_SHA256Managed_HashCore_m4111458495
lNf:_CultureInfo_get_CompareInfo_m3085280862
COh:_ObjectManager_RecordDelayedFixup_m1895730844
hmf:_ArrayTypeMismatchException__ctor_m1898555879
WYf:_List_1_System_Collections_IList_get_IsFixedSize_m3522184224_gshared
JM:__ZN9AudioClip23VirtualRedirectTransferER18StreamedBinaryReadILb0EE
kch:_ClientSessionInfo_CheckDisposed_m1394638186
HQh:_SByte_Parse_m2544167007
fTa:__ZNSt3__26vectorIPN9ShaderLab9SubShaderENS_9allocatorIS3_EEE21__push_back_slow_pathIKS3_EEvRT_
UIf:_StackFrame_GetILOffset_m115192054
Yfb:__ZN24GenerateTypeTreeTransfer8TransferIN11AssetBundle9AssetInfoEEEvRT_PKc17TransferMetaFlags
exd:__ZN5physx2Sc9ClothCore22removeCollisionCapsuleEj
KGj:_GetRayIntersectionAllCallback_BeginInvoke_m1307032462
WPh:_RuntimeTypeHandle_GetHashCode_m3697629454_AdjustorThunk
xXg:_BigInteger__ctor_m2945783161
kAb:__Z14resize_trimmedINSt3__26vectorIh13stl_allocatorIhL18MemLabelIdentifier14ELi16EEEEEvRT_j
dwi:__ZL96ProxyAttribute_t4031752430_CustomAttributesCacheGenerator_ProxyAttribute_IsContextOK_m2391079277P21CustomAttributesCache
CGg:_IndexOutOfRangeException__ctor_m3497760912
Ebd:__ZN5physx16PxsIslandManager25setArticulationLinkHandleEjPvRKNS_20PxsIslandManagerHookIjLj4294967295EEE
egg:_ReadOnlyCollection_1_CopyTo_m1652036789_gshared
lk:_glCopyTexSubImage2D
$Kh:_RealProxy_InternalGetTransparentProxy_m3415358600
i8b:__ZNK24RendererAnimationBinding13GetFloatValueERKN11UnityEngine9Animation10BoundCurveE
A6c:__ZN5physx2Sc10NPhaseCore39pool_deleteParticleElementRbElementPairEPNS0_35ParticleElementRbElementInteractionEjj
QZl:_glActiveTexture__wrapper
J3f:_Collection_1_Insert_m3594407958_gshared
OUa:_UNITY_png_write_zTXt
S0:__ZN18ScreenManagerWebGL13SetShowCursorEb
Trl:__ZN6il2cpp6icalls8mscorlib6System7Convert24InternalFromBase64StringEP12Il2CppStringb
fSa:__ZZ23InitPlayerLoopCallbacksvEN37EarlyUpdateProcessMouseInWindowstruct7ForwardEv
OMj:_Text_get_preferredWidth_m3352156860
W8h:_AssemblyCompanyAttribute__ctor_m1217508649
gIe:__ZN2UI13CanvasManager14GetRenderOrderEPKNS_6CanvasE
tld:__ZN5physx6shdfnd5ArrayIPNS_3Scb5ShapeENS0_15InlineAllocatorILj16ENS0_19ReflectionAllocatorIS4_EEEEE15growAndPushBackERKS4_
JLb:__Z18Transfer_BlittableI14SafeBinaryReadLb0E5RectTIfEEvRK29SerializationCommandArgumentsR31RuntimeSerializationCommandInfo
EBa:__ZN9GfxDevice18InsertCustomMarkerEi
Mfg:_ReadOnlyCollection_1_System_Collections_Generic_IListU3CTU3E_RemoveAt_m878653284_gshared
WCg:_DateTimeFormatInfo_GetFormat_m3676195179
WCa:__ZN14GfxContextGLES14GetFramebufferEv
_Wl:_emscripten_glGenVertexArrays__wrapper
R3b:__ZN11GameManager7PRODUCEE18MemLabelIdentifier18ObjectCreationMode
lbj:__Z36RuntimeInvoker_HideFlags_t1434274199PK10MethodInfoPvPS2_
Hoa:__ZN6prcoreL21CreateRemapAnyBlitterE13TextureFormatS0_
kAl:__ZN6il2cpp2os5Event4WaitEjb
Pec:__ZN17AnimationCurveTplIfE16StripInvalidKeysEv
qWe:_Array_InternalArray__ICollection_Add_TisKeyValuePair_2_t3716250094_m2381539361_gshared
Q2g:_X509Extension_WriteLine_m2850991173
_Ge:__ZNK2UI6Canvas17GetSortingLayerIDEv
Zmi:__ZL40UIntPtr_t_CustomAttributesCacheGeneratorP21CustomAttributesCache
fOc:__ZN14Raycast2DQuery8RunQueryEb
U9b:__Z13RegisterClassI17GlobalGameManagerEvv
jVi:__ZL70GridLayoutGroup_t1515633077_CustomAttributesCacheGenerator_m_StartAxisP21CustomAttributesCache
skl:__ZNK15dense_hashtableI10KeyWrapperIP18Il2CppGenericClassES3_N6il2cpp8metadata22Il2CppGenericClassHashEN14dense_hash_setIS3_S6_NS5_25Il2CppGenericClassCompareENSt3__29allocatorIS3_EEE8IdentityES8_SB_E3endEv
WQe:_Array_InternalArray__ICollection_Remove_TisInt64_t909078037_m2653583130_gshared
VOj:_Thread_get_ExecutionContext_m922067206
XY:__ZN11UnityEngine15CloudWebService13WWWRestClient18GetEditableHeadersEv
Wbh:_RecordProtocol_get_Context_m2688493529
Fma:__ZN4PPtrI7TextureE8TransferI14SafeBinaryReadEEvRT_
k4d:__ZN5physx2Sc8ClothSim16addCollisionMeshEPKNS0_8ShapeSimE
ofk:_SynchronizedClientContextSink__ctor_m978504596
CIj:_ScrollRect_get_viewport_m3177057249
oo:FUNCTION_TABLE_iiiiiiiiiiiiii
n9d:__ZN5physx6shdfnd5ArrayIPKNS_10PxsCCDBodyENS0_19ReflectionAllocatorIS4_EEE8recreateEj
XKa:__ZN14DrawBufferGLESI12VertexBuffer27VertexBufferUsageMapperGLESED2Ev
nld:__ZN5physx6shdfnd4sortINS_2Cm19PreallocatingRegionENS0_4LessIS3_EENS0_19ReflectionAllocatorIS3_EEEEvPT_jRKT0_RKT1_j
YMe:__ZN19UnityConnectService18OnPlayerQuitStaticEPS_
thj:__Z35RuntimeInvoker_ScaleMode_t987318053PK10MethodInfoPvPS2_
Xwe:_UNITY_tt_get_cmap_info
cif:_DecoderExceptionFallback_GetHashCode_m2972426052
G8a:__ZN16ReflectionProbes8ScheduleEN18ReflectionProbeJob7JobTypeEP15ReflectionProbei
H0e:_Array_swap_TisCustomAttributeTypedArgument_t1498197914_m885124357_gshared
$8f:_Collection_1_IsFixedSize_m3675221982_gshared
JBi:__ZL77Convert_t2607082565_CustomAttributesCacheGenerator_Convert_ToSByte_m883113940P21CustomAttributesCache
eRf:_Enumerator_MoveNext_m3293920409_AdjustorThunk
g4a:__ZN14qsort_internal31_FindAndMovePivotToLastPositionIP16RenderObjectDatai26RenderDeferredObjectSorterEEvT_S4_T0_T1_
PDd:__ZN5physx19NpRigidBodyTemplateINS_14PxRigidDynamicEE20setRigidDynamicFlagsENS_7PxFlagsINS_15PxRigidBodyFlag4EnumEhEE
fei:_GenericTypeParameterBuilder_get_DeclaringType_m1652924692
D9j:_Comparer_1__cctor_m3112251759_gshared
XTi:__ZL73ScrollRect_t1199013257_CustomAttributesCacheGenerator_m_VerticalScrollbarP21CustomAttributesCache
qnh:_X509KeyUsageExtension_ToString_m1992050580
Hse:_UNITY_FT_GlyphLoader_Done
Ceg:_ReadOnlyCollection_1_System_Collections_Generic_ICollectionU3CTU3E_Add_m2975080319_gshared
sck:_ConstructionCall__ctor_m1143766850
JZh:_GUIStyleState_Init_m2434147050
E9j:_Comparer_1_System_Collections_IComparer_Compare_m3203078743_gshared
yCd:__ZN5physx22NpParticleBaseTemplateINS_16PxParticleSystemENS_16NpParticleSystemEE20setMaxMotionDistanceEf
adh:_Context_get_RandomSC_m1687420621
dhb:__ZN5Cache10AddToCacheERKNSt3__212basic_stringIcNS0_11char_traitsIcEENS0_9allocatorIcEEEEi
kMi:__ZL67GUISkin_t1436893342_CustomAttributesCacheGenerator_m_verticalSliderP21CustomAttributesCache
b9a:__Z18SkinGenericMathLibILi2ELb1ELb0EEvR12SkinMeshInfo
wYd:__ZN5physx18ComputeSortedListsEPNS_2Cm10BitMapBaseINS_6shdfnd9AllocatorEEEjjPKjPPNS_8SapBox1DES7_PjSB_jRKNS_2Gu4AxesESB_RjSB_SG_RbSH_
Lxe:_tt_cmap14_char_var_index
xtj:_Camera_INTERNAL_CALL_ScreenPointToRay_m2752248646
e7i:__Z77RuntimeInvoker_TimeSpan_t3430258949_TimeSpan_t3430258949_TimeSpan_t3430258949PK10MethodInfoPvPS2_
Fok:_SliderHandler_OnMouseDown_m2819993578_AdjustorThunk
ize:_psh_globals_new
MKa:__ZN13dynamic_arrayIN16GeometryJobTasks15GeometryJobTaskELj4EE18resize_initializedEjRKS1_12ResizePolicy
yng:_StandaloneInputModule_set_allowActivationOnMobileDevice_m2631121618
NAf:_Decimal_stripStyles_m294582157
fuj:_Canvas_remove_willRenderCanvases_m1070419298
maj:__Z73RuntimeInvoker_Single_t2076509932_Vector3_t2243707580_Vector3_t2243707580PK10MethodInfoPvPS2_
zya:__ZN9GfxDevice20SetMaxBufferedFramesEi
CWf:_List_1_RemoveAll_m4125997475_gshared
iLc:__ZN10Collider2D19WakeAllBodyContactsEv
BR:__ZN24AudioScriptBufferManagerD2Ev
mQl:dynCall_vdd
N9k:__ZN14dense_hash_mapI10KeyWrapperINSt3__24pairIPK11Il2CppImageP11Il2CppClassEEEj17ReflectionMapHashIS8_E19ReflectionMapEqualsIS8_ENS1_9allocatorINS2_IKS9_jEEEEE13set_empty_keyERSF_
JCc:__ZN8JSONRead21TransferSTLStyleArrayINSt3__26vectorINS1_12basic_stringIcNS1_11char_traitsIcEE13stl_allocatorIcL18MemLabelIdentifier1ELi16EEEES6_IS9_LS7_1ELi16EEEEEEvRT_S7_17TransferMetaFlags
DHe:__ZN2UIL17UnloadAllCanvasesEv
o6f:_Collection_1_System_Collections_IList_Insert_m3083278457_gshared
ycb:__Z23ConvertIntegerToTypePtrIsEbPvR14SafeBinaryRead
Cbj:__Z71RuntimeInvoker_Boolean_t3825574718_Int32_t2071877448_Single_t2076509932PK10MethodInfoPvPS2_
cJc:__ZN12b2MouseJoint11ShiftOriginERK6b2Vec2
hOh:_ObjectReader_ReadObjectGraph_m1994105549
FKk:_EqualityComparer_1__ctor_m99476293_gshared
Cgd:__ZNK5physx14NpArticulation17releaseDriveCacheERNS_24PxArticulationDriveCacheE
Y5g:_BigInteger_Incr2_m505983313
_rj:_PCMReaderCallback_BeginInvoke_m3119095492
Yrf:_ArrayList_get_Count_m523955479
Ujj:__Z85RuntimeInvoker_Int32_t2071877448_Vector3_t2243707580_Vector3_t2243707580_Il2CppObjectPK10MethodInfoPvPS2_
ytf:_FixedSizeArrayListWrapper_Remove_m1359458911
Poa:__ZN6prcoreL29inner_stretch_rgb565_bilinearEPKNS_9InnerInfoE
Hwd:__ZNK5physx2Sc9ClothCore25getSelfCollisionStiffnessEv
_jg:_EventSystem_get_current_m319019811
aMj:_Text_get_mainTexture_m813502234
t7i:__Z47RuntimeInvoker_SecurityProtocolType_t3099771628PK10MethodInfoPvPS2_
XDj:_GUI_Toolbar_m3449288727
l3a:__ZNK14RenderSettings19GetFlatAmbientColorEv
B8a:__ZN6prcoreL10inner_flipILj4EEEvPhS1_j
DFb:__ZN18StreamedBinaryReadILb0EE21TransferSTLStyleArrayI10vector_mapIPKN5Unity4TypeE7Hash128NSt3__24lessIS6_EENS8_9allocatorINS8_4pairIS6_S7_EEEEEEEvRT_17TransferMetaFlags
eC:__ZNK27StateMachineBehaviourPlayer15IsSenderEnabledEv
mDb:__Z19CalculateVertexSizejRK20VertexChannelsLayoutPj
v3f:_Collection_1_System_Collections_ICollection_get_IsSynchronized_m1924133708_gshared
wgf:_String_Concat_m56707527
Nsc:__Z40Register_UnityEngine_Transform_SetParentv
isj:_AudioConfigurationChangeHandler_Invoke_m635374412
Vgh:_SslClientStream_get_HaveRemoteValidation2Callback_m3555576758
vyb:__ZN14Texture2DArray17UploadToGfxDeviceEv
gfg:_ReadOnlyCollection_1_System_Collections_Generic_IListU3CTU3E_Insert_m4216310986_gshared
qbg:_ReadOnlyCollection_1_System_Collections_Generic_IListU3CTU3E_set_Item_m1532495847_gshared
YH:__ZN15SerializeTraitsINSt3__24pairI8StateKey10StateRangeEEE8TransferI18StreamedBinaryReadILb1EEEEvRS4_RT_
wQ:__Z14FMODMemoryFreePvjPKc
PZj:_InternalEnumerator_1_System_Collections_IEnumerator_Reset_m3731327620_AdjustorThunk
Mub:__ZThn28_N8RendererD0Ev
kci:_EnumBuilder_get_BaseType_m63295819
axe:_tt_cmap0_validate
cQi:__ZL104PointerEventData_t1599784723_CustomAttributesCacheGenerator_PointerEventData_get_worldNormal_m1704987468P21CustomAttributesCache
bxk:_YieldInstruction_t3462875981_marshal_pinvoke_cleanup
Gbf:_Evidence_get_IsSynchronized_m1427392003
BAe:_cf2_glyphpath_moveTo
Znk:_SharedBetweenAnimatorsAttribute__ctor_m1221241062
rOd:__ZN5physx3Scb4Body9syncStateEv
XNe:__ZN13RuntimeStaticI19UnityConnectServiceE16StaticInitializeEPv
Oog:_AnimationTriggers_set_disabledTrigger_m609579531
xri:__ZL47File_t1930543328_CustomAttributesCacheGeneratorP21CustomAttributesCache
LFf:_DateTimeOffset__ctor_m1796624924
vUh:_GUILayoutUtility_get_spaceStyle_m1918520192
d$d:__ZN5physx20SingleAABBUpdateTaskD0Ev
S9k:__ZN15dense_hashtableINSt3__24pairIK10KeyWrapperINS1_IPK11Il2CppImageP11Il2CppClassEEEjEES9_17ReflectionMapHashIS8_EN14dense_hash_mapIS9_jSD_19ReflectionMapEqualsIS8_ENS0_9allocatorISB_EEE9SelectKeyESG_SI_EC2EjRKSD_RKSG_RKSK_
Mkd:__ZN5physx12PxsRigidBody23updatePoseDependenciesVERNS_10PxsContextE
Xjg:_BaseRaycaster_OnDisable_m1716508791
LQe:_Array_InternalArray__ICollection_Remove_TisKeyValuePair_2_t3716250094_m2566517826_gshared
W6g:_ASN1Convert_ToInt32_m2121135414
_3j:_InternalEnumerator_1_MoveNext_m1741571735_gshared
Tce:__ZN5physx2Gu12TriangleMesh4loadERNS_13PxInputStreamE
jni:__ZL82Enum_t2459695545_CustomAttributesCacheGenerator_Enum_GetUnderlyingType_m3513899012P21CustomAttributesCache
svl:_GC_is_heap_ptr
a6f:_Collection_1_IsValidItem_m429993695_gshared
Wel:__GLOBAL__sub_I_Assembly_cpp
Ceh:_TlsServerSettings_set_CertificateRequest_m3419519893
jra:__Z21PlayerStartFirstSceneb
RE:__ZN7mecanim5human10RetargetToEPKNS0_5HumanEPKNS0_9HumanPoseES6_RKN4math4trsXEPS4_PNS_8skeleton13SkeletonPoseTIS8_EESF_
qz:__ZN7mecanim9animation8SeekClipERKNS0_12StreamedClipERNS0_18StreamedClipMemoryEf
ITj:_Type_get_IsGenericParameter_m161434704
Kei:_MethodBuilder_get_Attributes_m3678061338
Tm:_emscripten_glIsTexture
Cu:__ZN24CompressedAnimationCurveaSERKS_
dtf:_ArrayListWrapper_CopyTo_m793444109
XBi:__ZL79Convert_t2607082565_CustomAttributesCacheGenerator_Convert_ToUInt16_m3265369225P21CustomAttributesCache
yl:_emscripten_glHint
PDe:_ft_var_readpackeddeltas
G8:__ZN6Object15ClassIDToStringEi
cFf:_DateTime_AddMilliseconds_m1813199744_AdjustorThunk
nQh:_SByte_System_IConvertible_ToSByte_m108774324_AdjustorThunk
Oei:_MethodBuilder_GetParameterCount_m467267889
TDj:_GUI_HandleTextFieldEventForTouchscreen_m3221946725
egi:_TypeBuilder_IsValueTypeImpl_m1499671481
Hug:_FontData_get_lineSpacing_m4145828566
hwf:_Hashtable_get_IsSynchronized_m836780937
Lqh:_X509ChainStatus_t4278378721_marshal_pinvoke
J8g:_RSAManaged__ctor_m1680944437
Wm:_SDL_UpperBlit
W8d:__ZN5physx2Cm12DelegateTaskINS_2Sc5SceneEXadL_ZNS3_13ccdBroadPhaseEPNS_10PxBaseTaskEEEED0Ev
VYh:_GUIStyle_op_Implicit_m781448948
T3a:__Z35GetTextureDecodeValuesWithIntensity16TextureUsageMode17TextureColorSpace10ColorSpacef
$pf:_Byte_GetHashCode_m2885528842_AdjustorThunk
vsd:__ZNK5physx7NpShape16getContactOffsetEv
r_d:__ZN5physx14PxsAABBManager21processAggregatePairsEPKNS_19AggregateSortedDataE
dBh:_Dictionary_2_OnDeserialization_m2092139626_gshared
ZIc:__ZNK12b2MouseJoint10GetAnchorAEv
zne:_PxCreateCooking
hIl:__ZNKSt3__28time_getIwNS_19istreambuf_iteratorIwNS_11char_traitsIwEEEEE16do_get_monthnameES4_S4_RNS_8ios_baseERjP2tm
aLb:__ZN14SafeBinaryRead20OverrideRootTypeNameEPKc
tEb:__ZN9InputAxis7SetNameERKNSt3__212basic_stringIcNS0_11char_traitsIcEENS0_9allocatorIcEEEE
bba:__ZN14FileCacherRead16UnlockCacheBlockEj
HWj:_UIntPtr_get_Size_m537421489
T1g:_X509Certificate_GetUnsignedBigInteger_m3491353542
Ind:__ZNK5physx12NpBatchQuery23getFilterShaderDataSizeEv
RPb:__Z18Transfer_BlittableI17RemapPPtrTransferLb1E8Vector3fEvRK29SerializationCommandArgumentsR31RuntimeSerializationCommandInfo
Cok:_SliderHandler_StartDraggingWithValue_m1407392347
tsi:__ZL57StackBehaviour_t1390406961_CustomAttributesCacheGeneratorP21CustomAttributesCache
ud:_emscripten_glUniform1f
Dle:__ZN5physx7profile11EventBufferINS_24PxDefaultContextProviderENS_6shdfnd6MutexTINS0_26WrapperReflectionAllocatorIhEEEENS0_14ScopedLockImplIS7_EENS_24PxProfileNullEventFilterEE10doAddEventINS0_17RelativeStopEventEEEvhtRKT_
cte:__Z20ParseImageParametersR11UTF16StringRiRN20TextRenderingPrivate16TextFormatChangeE
zd:_emscripten_glUniform1i
v2j:_InternalEnumerator_1_System_Collections_IEnumerator_Reset_m651165750_AdjustorThunk
VKb:__ZN13MonoBehaviour9CallAwakeEv
X7d:__ZN5physx2Sc19ShapeInstancePairLL23postIslandGenSecondPassEv
u2c:__ZN5physx3Cct26CharacterControllerManager16createControllerERKNS_16PxControllerDescE
r0i:__Z66RuntimeInvoker_Void_t1841601450_Int32_t2071877448_SByte_t454417549PK10MethodInfoPvPS2_
i$b:__ZN9ShaderLab16SerializedTagMapaSERKS0_
G0i:__Z75RuntimeInvoker_Void_t1841601450_Il2CppObject_Int32_t2071877448_Il2CppObjectPK10MethodInfoPvPS2_
aSe:_SetPropertyUtility_SetStruct_TisFillMethod_t1640962579_m1867757822_gshared
Jme:__ZN5physx26PxPhysicsInsertionCallbackD2Ev
Fhc:__ZN8Material28ApplyMaterialPropertyDrawersEv
GTd:__ZN5physx2Sq16BucketPrunerCore12updateObjectERKNS_9PxBounds3ERKNS0_13PrunerPayloadE
i7d:__ZN5physx18PxsDynamicsContext23atomIntegrationParallelEfPKPNS_11PxsBodyCoreEPKPNS_12PxsRigidBodyEjPKNS_2Cm13SpatialVectorEPNS_13PxcSolverBodyEPNS_17PxcSolverBodyDataEPSA_RjSI_RNS_10PxBaseTaskE
C_j:_InternalEnumerator_1_System_Collections_IEnumerator_get_Current_m3680087284_gshared
GF:__ZN11UnityEngine9Animation27CreateAvatarBindingConstantER9TransformPKN7mecanim9animation14AvatarConstantERNS3_6memory9AllocatorE
yHb:__ZN14SafeBinaryRead21TransferSTLStyleArrayINSt3__26vectorIN30RuntimeInitializeOnLoadManager9ClassInfoE13stl_allocatorIS4_L18MemLabelIdentifier12ELi16EEEEEEvRT_17TransferMetaFlags
qXj:_UnitySerializationHolder_GetObjectData_m2280028722
iik:_PatternCompiler_EmitFalse_m1188949782
SVj:_UInt64_System_IConvertible_ToDateTime_m2412118561
shc:__ZN9BlobWriteC2ER13dynamic_arrayIhLj16EE24TransferInstructionFlags19BuildTargetPlatform
r5k:__ZNK15dense_hashtableINSt3__24pairIK10KeyWrapperINS1_IPK9FieldInfoP11Il2CppClassEEEjEES9_17ReflectionMapHashIS8_EN14dense_hash_mapIS9_jSD_19ReflectionMapEqualsIS8_ENS0_9allocatorISB_EEE9SelectKeyESG_SI_E13find_positionERSA_
x9:__ZN14MessageHandler3GetEv
mXh:_GUISkin_set_verticalScrollbarThumb_m2647835739
Md:_emscripten_glAttachShader
vdg:_ReadOnlyCollection_1__ctor_m1539890895_gshared
yya:__ZN9GfxDevice13SetActiveTierE12GraphicsTier
FPf:_Enumerator_System_Collections_IEnumerator_get_Current_m3079057684_AdjustorThunk
iRe:_Array_InternalArray__ICollection_Remove_TisSingle_t2076509932_m2568053761_gshared
G_g:_KeyPairPersistence_get_UserPath_m3433052783
L0c:__ZN5physx2Gu19GetRaycastFuncTableEv
c5f:_Collection_1_ClearItems_m1410275009_gshared
Idl:__ZNK15dense_hashtableINSt3__24pairIK10KeyWrapperIP11Il2CppClassES4_EES5_N6il2cpp8metadata16SZArrayClassHashEN14dense_hash_mapIS5_S4_SA_NS9_19SZArrayClassCompareENS0_9allocatorIS7_EEE9SelectKeyESC_SE_E10test_emptyEj
xmi:__ZL58Decimal_t724701077_CustomAttributesCacheGenerator_MinusOneP21CustomAttributesCache
LJl:__ZNKSt3__29money_getIcNS_19istreambuf_iteratorIcNS_11char_traitsIcEEEEE6do_getES4_S4_bRNS_8ios_baseERjRNS_12basic_stringIcS3_NS_9allocatorIcEEEE
gTe:_Array_InternalArray__IEnumerable_GetEnumerator_TisKeyframe_t1449471340_m3949799719_gshared
KLb:__Z18Transfer_BlittableI14SafeBinaryReadLb0E11QuaternionfEvRK29SerializationCommandArgumentsR31RuntimeSerializationCommandInfo
i$:__ZNK13EmscriptenWWW6GetUrlEv
sLc:__ZN13BoxCollider2D16CheckConsistencyEv
P7d:__ZN5physx17EdgeChangeManager23cleanupBrokenEdgeEventsEPKNS_4EdgeE
Skd:__ZN5physx17PxsContactManager16resetCachedStateEv
pzg:_InputField_get_inputType_m2187991661
g0:_tlsf_walk_heap
q1g:_PKCS12_Decode_m731190390
f1k:__ZN6il2cpp2vm7Runtime6InvokeEPK10MethodInfoPvPS5_PP15Il2CppException
D3j:_InternalEnumerator_1_get_Current_m1550231132_gshared
alk:_Reference_get_IgnoreCase_m2810892634
DXj:_Version_CheckedSet_m76493673
xb:invoke_vif
dAb:__ZN14VertexDataInfo13UpdateStreamsEjjjRK19VertexStreamsLayoutRK20VertexChannelsLayout
yb:invoke_vid
Yyi:__ZL67UnverifiableCodeAttribute_t765455733_CustomAttributesCacheGeneratorP21CustomAttributesCache
zb:invoke_vii
kKl:__ZNSt3__28messagesIcED2Ev
fHi:__ZL86Component_t3819376471_CustomAttributesCacheGenerator_Component_SendMessage_m3615678587P21CustomAttributesCache
JMd:__ZN5physx13NpVolumeCacheD2Ev
_Ti:__ZL82ScrollRect_t1199013257_CustomAttributesCacheGenerator_m_HorizontalScrollbarSpacingP21CustomAttributesCache
eHg:_Int16_System_IConvertible_ToUInt32_m883204517_AdjustorThunk
jeb:__ZN12TLSAllocatorI14StackAllocatorE16ThreadInitializeEP13BaseAllocator
Asf:_ArrayList_Sort_m2778059513
c$h:_InternalDrawTextureArguments_t1708329234_marshal_pinvoke
PPc:__ZN17Physics2DSettings23VirtualRedirectTransferER18StreamedBinaryReadILb1EE
EZk:__ZN15dense_hashtableINSt3__24pairIK10KeyWrapperI13dynamic_arrayIPK10Il2CppTypeLj4EEEPFvvEEES8_N6il2cpp8metadata19Il2CppSignatureHashEN14dense_hash_mapIS8_SB_SF_NSE_22Il2CppSignatureCompareENS0_9allocatorISC_EEE9SelectKeyESH_SJ_E5clearEv
HNi:__ZL107StackTraceUtility_t1881293839_CustomAttributesCacheGenerator_StackTraceUtility_SetProjectFolder_m2154926761P21CustomAttributesCache
K4d:__ZThn8_N5physx2Sc35ParticleElementRbElementInteraction12onDeactivateEj
Pwg:_LayoutGroup_SetChildAlongAxis_m2732017156
dpk:_SliderHandler_t3550500579_marshal_pinvoke_back
ZIe:__Z41CanvasRenderer_CUSTOM_DisableRectClippingP12Il2CppObject
z7g:_MD2_Create_m539024737
Gxf:_SortedList_get_SyncRoot_m3299704254
Qpb:__ZNK14DirectorPlayer7GetTimeEv
BWd:__ZN5physx16PxsThreadContextC2EPNS_10PxsContextE
gyf:_Slot_t2267560602_marshal_pinvoke
B5i:__Z51RuntimeInvoker_UInt16_t986882611_Single_t2076509932PK10MethodInfoPvPS2_
CDj:_GUI_get_blendMaterial_m454011614
yJh:_SoapAttribute_get_XmlNamespace_m1436066016
jQa:__ZN25SingleBlockMemoryFileDataD0Ev
Mfb:__ZNSt3__26vectorI14ConstantStringNS_9allocatorIS1_EEE6assignINS_11__wrap_iterIPS1_EEEENS_9enable_ifIXaasr21__is_forward_iteratorIT_EE5valuesr16is_constructibleIS1_NS_15iterator_traitsISA_E9referenceEEE5valueEvE4typeESA_SA_
cTc:__ZN5physx3Cct10Controller4moveERNS0_11SweptVolumeERKNS_6PxVec3EffRKNS_19PxControllerFiltersEPKNS_17PxObstacleContextEb
aEd:__ZN5physx14NpRigidDynamic17setAngularDampingEf
KOb:__ZNSt3__26vectorI8GUIStyle13stl_allocatorIS1_L18MemLabelIdentifier1ELi16EEE7reserveEj
Sel:__ZN6il2cpp6icalls8mscorlib6System9Threading6Thread27GetSerializedCurrentCultureEP12Il2CppThread
Z_k:__ZN6il2cpp2vm13MetadataCache14AddPointerTypeEP11Il2CppClassS3_
BVe:_Array_InternalArray__IndexOf_TisUInt32_t2149682021_m3231515987_gshared
$Sk:__ZL25UnresolvedVirtualCall_155P12Il2CppObject23RaycastResult_t21186376S1_PK10MethodInfo
$Jk:_ListPool_1__cctor_m709904475_gshared
uaj:__Z83RuntimeInvoker_Void_t1841601450_QuaternionU26_t4187826802_QuaternionU26_t4187826802PK10MethodInfoPvPS2_
n4b:__Z13RegisterClassI11TimeManagerEvv
mQ:__ZN4FMOD8ChannelI11setPositionEjj
WX:__ZN11UnityEngine15CloudWebService16SessionContainer27GetDeleteErrorJsonDataBlockERK8UnityStrS4_RS2_
LMc:__ZN10Collider2D12SetPolygon2DEP9Polygon2D
hQf:_Enumerator_VerifyState_m4188527104_gshared
PUi:__ZL75ToggleGroup_t1030026315_CustomAttributesCacheGenerator_U3CU3Ef__amU24cache1P21CustomAttributesCache
kdd:__ZN5physx6shdfnd8PoolBaseINS_2Sc12SimStateDataENS0_19ReflectionAllocatorIS3_EEE17releaseEmptySlabsEv
Hea:__ZN17BaseObjectManager13StaticDestroyEPv
rbj:__Z70RuntimeInvoker_Void_t1841601450_Playable_t3667545548_Int32_t2071877448PK10MethodInfoPvPS2_
Rrk:_TextGenerationSettings_CompareVector2_m592645251
Ytb:__ZNK29LineParametersPropertyBinding12GetPPtrValueERKN11UnityEngine9Animation10BoundCurveE
Kac:__ZN18PlayableController18DoesPlayableExistsEPK8Playable
mGf:_DBNull_System_IConvertible_ToChar_m3344298044
TWc:__ZN5physx2Gu22closestPtPointTriangleEPNS_6shdfnd3aos5Vec3VES4_S4_Rj
F2g:_X509Certificate_GetObjectData_m3888130484
WGb:__ZNSt3__26vectorIN15ResourceManager10DependencyE13stl_allocatorIS2_L18MemLabelIdentifier51ELi16EEEC2INS_11__wrap_iterIPS2_EEEET_SB_RKS5_PNS_9enable_ifIXaasr21__is_forward_iteratorISB_EE5valuesr16is_constructibleIS2_NS_15iterator_traitsISB_E9referenceEEE5valueEvE4typeE
faj:__Z45RuntimeInvoker_IMECompositionMode_t1898275508PK10MethodInfoPvPS2_
fnd:__ZN5physx2Cm8PtrTableC2Ev
pxj:_CustomYieldInstruction_Reset_m3409422382
xhk:_LinkStack_Push_m2660199875
gP:__ZN4FMOD6Reverb13setPropertiesEPK22FMOD_REVERB_PROPERTIES
Vyd:__ZNK5physx22NpParticleBaseTemplateINS_15PxParticleFluidENS_15NpParticleFluidEE14getRestitutionEv
z$a:__ZN9DepthPass13PrepareSubsetEjRK10RenderNodeifRK17ShaderReplaceData
LZd:__ZN5physx16PxsBroadPhaseMBP6updateEjjRKNS_23PxcBroadPhaseUpdateDataEPNS_10PxBaseTaskE
Wqd:__ZN5physx9NpPhysics18createRigidDynamicERKNS_11PxTransformE
$7c:__ZN5physx6shdfnd5ArrayIPvNS0_19ReflectionAllocatorINS_2Sc18TriggerInteractionEEEE15growAndPushBackERKS2_
dyk:_X509CertificateCollection_Add_m4008705157
NIh:_MonoMethodMessage_set_Uri_m3218581120
nfc:__Z18ExtractTagThrowingR11ICallString
tna:__ZN4PPtrI6ShaderE8TransferI19StreamedBinaryWriteILb0EEEEvRT_
v5f:_Collection_1_IsFixedSize_m1816795498_gshared
mSa:__ZZ23InitPlayerLoopCallbacksvEN40EarlyUpdatePlayerCleanupCachedDatastruct7ForwardEv
l_c:__ZN5physx2Gu17intersectRayAABB2ERKNS_6shdfnd3aos5Vec3VES5_S5_S5_RKNS2_6FloatVERS6_S9_
lJe:__Z34CanvasRenderer_Get_Custom_PropCullP12Il2CppObject
csd:__ZNK5physx7NpShape17getSphereGeometryERNS_16PxSphereGeometryE
n0c:__ZL18intersectAnyVsMeshILi1EEbPKN5physx2Gu6SphereEPKNS1_7CapsuleEPKNS1_3BoxERKNS1_13RTreeMidphaseERKNS0_11PxTransformERKNS0_11PxMeshScaleEP14LimitedResults
BHb:__Z14resize_trimmedINSt3__26vectorIi13stl_allocatorIiL18MemLabelIdentifier12ELi16EEEEEvRT_j
ing:_MouseButtonEventData_ReleasedThisFrame_m482758300
sbd:__ZN5physx6shdfnd5ArrayIPvNS0_15InlineAllocatorILj256ENS0_19ReflectionAllocatorINS_2Cm5BlockIhLj128EEEEEEEE15growAndPushBackERKS2_
Dtf:_ReadOnlyArrayListWrapper_set_Item_m2199017141
NQe:_Array_InternalArray__ICollection_Remove_TisKeyValuePair_2_t488203048_m1926328505_gshared
q6a:__ZN6Camera6SetFarEf
_xk:_DeriveBytes_DeriveIV_m3343375195
uaf:_X509Certificate_ToString_m1582581274
U6e:_RNGCryptoServiceProvider_GetBytes_m167497991
upa:__ZN6prcoreL12RemapGenericI17TexFormatABGR888817TexFormatARGB8888EEvPKNS_9InnerInfoE
Gjb:__ZN11GameManager17MainThreadCleanupEv
d2k:__ZN6il2cpp6icalls8mscorlib6System18CollectTypeMethodsINS_5utils10functional6FilterINSt3__212basic_stringIcNS7_11char_traitsIcEENS7_9allocatorIcEEEENS4_11StringUtils23CaseInsensitiveComparerEEEEEvP11Il2CppClassPKSH_jRKT_RNS7_6vectorIPK10MethodInfoNSB_ISR_EEEERA65535_b
hci:_TypeBuilder_get_Assembly_m492491492
d8f:_Collection_1_InsertItem_m1225429801_gshared
DLc:__ZN10Collider2D12AddToManagerEv
T_:__ZN11UnityEngine15CloudWebService17CloudServiceEvent12ToJsonStringER8UnityStrjPKc
Gud:__ZNK5physx7NpCloth24getParticleAccelerationsEPNS_6PxVec4E
CCe:_UNITY_tt_slot_init
D4e:_HMACSHA512__cctor_m1167457383
JEc:__ZL22Transfer_ManagedObjectI9JSONWriteLb1EEvRK29SerializationCommandArgumentsR31RuntimeSerializationCommandInfo
Sza:__ZN9GfxDevice20DestroyRenderSurfaceER12ObjectHandleI17RenderSurface_TagP17RenderSurfaceBaseE
mxl:__ZNSt3__26__treeINS_12__value_typeINS_12basic_stringIcNS_11char_traitsIcEENS_9allocatorIcEEEEPFvvEEENS_19__map_value_compareIS7_SA_NS_4lessIS7_EELb1EEENS5_ISA_EEE25__emplace_unique_key_argsIS7_JRKNS_21piecewise_construct_tENS_5tupleIJOS7_EEENSL_IJEEEEEENS_4pairINS_15__tree_iteratorISA_PNS_11__tree_nodeISA_PvEEiEEbEERKT_DpOT0_
r6b:__ZL24PrepareSpriteRenderNodesILb1EEvR35RenderNodeQueuePrepareThreadContext
kNa:__ZN9GfxDevice22UpdateComputeResourcesEjPK9TextureIDPK16TextureDimensionPKijPKjjPK15ComputeBufferIDS7_PK20ComputeBufferCounterjSC_S2_S5_S9_SF_
qzb:__ZN12_GLOBAL__N_15qAsinEff
e1e:_Dictionary_2_Do_ICollectionCopyTo_TisKeyValuePair_2_t3749587448_m2536766696_gshared
keb:__ZN12TLSAllocatorI14StackAllocatorE13ThreadCleanupEv
JU:__Z18GetAudioManagerPtrv
ZHl:__ZNKSt3__28time_getIcNS_19istreambuf_iteratorIcNS_11char_traitsIcEEEEE10__get_yearERiRS4_S4_RjRKNS_5ctypeIcEE
v8i:__Z67RuntimeInvoker_Void_t1841601450_Int16_t4041245914_Int16_t4041245914PK10MethodInfoPvPS2_
aAb:__ZN4Mesh27SwizzleVertexColorsIfNeededEb
lfb:__Z27FindActiveTransformWithPathPKc
F0i:__Z63RuntimeInvoker_DSAParameters_t1872138834_BooleanU26_t3168250738PK10MethodInfoPvPS2_
Zjc:__Z45Register_UnityEngine_Camera_INTERNAL_set_rectv
nuj:_CanvasGroup_get_alpha_m1304564441
vId:__ZN5physx16PxsIslandManager14setEdgeRigidCMERKNS_20PxsIslandManagerHookIjLj4294967295EEEPNS_17PxsContactManagerE
wlb:__ZN12BaseRendererD0Ev
pcb:__Z29StdTemplateConversionFunctionIbyEbPvR14SafeBinaryRead
AEh:_DefaultComparer__ctor_m899694595_gshared
_6i:__Z56RuntimeInvoker_TimeSpan_t3430258949_TimeSpan_t3430258949PK10MethodInfoPvPS2_
ngd:__ZN5physx14NpArticulation25setStabilizationThresholdEf
zHf:_Decimal_Floor_m1662853963
kce:__ZN5physx2Gu11HeightField7releaseEv
g0b:__ZN24GenerateTypeTreeTransfer21TransferSTLStyleArrayINSt3__26vectorIN9ShaderLab20SerializedSubProgram14ConstantBufferENS1_9allocatorIS5_EEEEEEvRT_17TransferMetaFlags
kXa:__ZNK6Camera7GetNearEv
tEa:__ZN7ApiGLES11UnmapBufferEjN2gl12BufferTargetE
WZk:__ZN14dense_hash_mapI10KeyWrapperI13dynamic_arrayIPK10Il2CppTypeLj4EEEPFvvEN6il2cpp8metadata19Il2CppSignatureHashENSA_22Il2CppSignatureCompareENSt3__29allocatorINSD_4pairIKS6_S8_EEEEE13set_empty_keyERSG_
Rrb:__Z25GetNextAllowedTextureSizeib13TextureFormat
W1:__ZN20LocalFileSystemWebGL4CopyER13FileEntryDataS1_
sYf:_List_1_CheckIndex_m4231572822_gshared
JZ:__ZN19CloudServiceHandler6RetainEv
Ezl:__ZN6il2cpp2os9Semaphore4WaitEb
DIc:__ZN15b2FrictionJointD0Ev
qcf:_StrongName_Equals_m67226644
bW:__Z34AudioListener_Set_Custom_PropPauseh
Elb:__ZN12BaseRenderer20FlattenToRenderQueueER15RenderNodeQueueRK20DeprecatedSourceData
ldi:_FieldBuilder_get_Attributes_m2174064290
l4d:__ZN5physx2Sc8ClothSim23addCollisionHeightfieldEPKNS0_8ShapeSimE
TEb:__ZN11TimeManager23VirtualRedirectTransferER18StreamedBinaryReadILb1EE
dsa:__Z34scripting_liveness_calculation_endPv
Lpl:__ZN6il2cpp2os6ThreadC2Ev
cdf:_SecurityFrame_InitFromRuntimeFrame_m45195821
Sri:__ZL53TextReader_t1561828458_CustomAttributesCacheGeneratorP21CustomAttributesCache
vph:_X509Chain_IsSignedWith_m292245392
RQe:_Array_InternalArray__ICollection_Remove_TisDateTime_t693205669_m1275668216_gshared
v9b:__ZZN6Camera15InitializeClassEvEN31FunctorImpl_99kTransformChanged4CallEPviR11MessageData
zdg:_ReadOnlyCollection_1_System_Collections_Generic_ICollectionU3CTU3E_Remove_m3751131234_gshared
DAc:__Z18Transfer_BlittableI8JSONReadLb0E8Vector3fEvRK29SerializationCommandArgumentsR31RuntimeSerializationCommandInfo
$t:__ZN13AnimationClip12Vector3Curve8TransferI14SafeBinaryReadEEvRT_
Nck:_ChannelServices__cctor_m3534779830
Zal:__ZN6il2cpp2vm6Thread6DetachEP12Il2CppThread
sye:_Render_Single_Pass
YBk:_HSController_Md5Sum_m3214172958
NNb:__ZNSt3__26vectorINS_12basic_stringIcNS_11char_traitsIcEE13stl_allocatorIcL18MemLabelIdentifier1ELi16EEEES4_IS7_LS5_1ELi16EEE8__appendEj
JC:__ZN11UnityEngine9Animation31CreateControllerBindingConstantEPKN7mecanim9animation18ControllerConstantEPKNS2_12AnimationSetEPNS1_18ValueArrayConstantEjPKNS2_14AvatarConstantERNS1_6memory9AllocatorE
lRk:__ZL24UnresolvedVirtualCall_59P12Il2CppObjectS0_aPK10MethodInfo
MLk:_EqualityComparer_1__cctor_m2666196678_gshared
m3k:_il2cpp_class_get_name
TTh:_GUIStyle_Init_m3872198731
LF:__ZN7mecanim8skeleton30SkeletonBuildReverseIndexArrayEPiPKiPKNS0_8SkeletonES6_
Evc:__Z19GetGUIBlendMaterialv
Ywh:_ShimEnumerator_get_Current_m3364144670_gshared
Fnl:__ZN6il2cpp2os10ThreadImpl5SleepEjb
ZYd:__ZN5physx14SapPairManager12shrinkMemoryEv
xAk:_X509ExtensionCollection_System_Collections_IEnumerable_GetEnumerator_m2600902401
P8f:_Collection_1_InsertItem_m1073626529_gshared
ZIb:__ZN15FileSystemEntry4MoveERS_23FileSystemCopyMoveFlags
BG:__ZN18AnimatorController23VirtualRedirectTransferER24GenerateTypeTreeTransfer
tCh:_Dictionary_2_System_Collections_Generic_IEnumerableU3CSystem_Collections_Generic_KeyValuePairU3CTKeyU2CTValueU3EU3E_GetEnumerator_m3968773920_gshared
ijh:_ListDictionary_FindEntry_m432748847
zWl:_glBindSampler__wrapper
bHk:_UnityAction_1_Invoke_m3523417209_gshared
tg:_emscripten_set_mouseup_callback
AZb:__Z14resize_trimmedINSt3__26vectorIN9ShaderLab14SerializedPassENS0_9allocatorIS3_EEEEEvRT_j
ZMa:__ZN9GfxDevice27SetRandomWriteTargetTextureEi9TextureID
xBj:_CustomAnimationPlayable_get_time_m2832957799
h5i:__Z48RuntimeInvoker_Int64_t909078037_SByte_t454417549PK10MethodInfoPvPS2_
f0g:_PrivateKeyInfo_Normalize_m3959595934
hLd:__ZN5physx7NpScene22removeBroadPhaseRegionEj
s8c:__ZL34GeomOverlapCallback_CapsuleCapsuleRKN5physx10PxGeometryERKNS_11PxTransformES2_S5_PNS_2Gu12TriggerCacheE
b1:__ZNK18ScreenManagerWebGL8GetWidthEv
pKd:__ZNK5physx7NpScene23getFilterShaderDataSizeEv
Zug:_Graphic_get_rectTransform_m2697395074
G$k:__ZN6il2cpp2vm13MetadataCache33GetFieldDefaultValueDataFromIndexEi
wwg:_GridLayoutGroup_set_startAxis_m1635162426
nM:__ZN10SampleClipD2Ev
tfk:_SynchronizationAttribute_EnterContext_m2984912761
uni:__ZL73Enum_t2459695545_CustomAttributesCacheGenerator_Enum_ToObject_m2601523252P21CustomAttributesCache
xNf:_CultureInfo_construct_internal_locale_from_name_m971766383
Vfk:__ZN16VirtFuncInvoker0IP21WaitHandle_t677569169E6InvokeEjPv
Enl:__ZN6il2cpp2os10ThreadImpl13SetWaitObjectEPNS0_5posix15PosixWaitObjectE
bqf:_Byte_Equals_m368616327_AdjustorThunk
jXe:_Array_InternalArray__ICollection_Add_TisUIVertex_t1204258818_m3869382594_gshared
YBe:_cff_cmap_unicode_init
IKf:_Enum_ToObject_m2460371738
uYg:_PrimalityTests_Test_m1088386156
eba:__ZN14FileCacherRead13GetFileLengthEv
ywc:__Z36Event_CUSTOM_Internal_SetNativeEvent13Il2Cpp_IntPtr
eDl:_readlink
Vjk:_ExpressionAssertion__ctor_m2408911632
D$e:_Array_Resize_TisVector3_t2243707580_m893658391_gshared
U$j:_InternalEnumerator_1_System_Collections_IEnumerator_get_Current_m4259662004_AdjustorThunk
k3e:_Array_InternalArray__get_Item_TisKeyframe_t1449471340_m1003508933_gshared
Byl:__ZN6il2cpp8metadata14Il2CppTypeHash4HashEPK10Il2CppType
k1g:_StrongName_get_PublicKeyToken_m1968460885
dxb:__ZNK6Sprite9GetBoundsE8Vector2fbb
gcj:__Z87RuntimeInvoker_Boolean_t3825574718_Ray_t2469606224_Single_t2076509932_Int32_t2071877448PK10MethodInfoPvPS2_
bsl:__GLOBAL__sub_I_Assembly_cpp_42867
vH:__ZN7mecanim12statemachine13StateConstant8TransferI14SafeBinaryReadEEvRT_
YCa:__ZN11ContextGLES6CreateEi
N$c:__ZN5physx6shdfnd5ArrayINS_10PxTriangleENS0_19ReflectionAllocatorIS2_EEE15growAndPushBackERKS2_
AKg:_BinaryReader_Dispose_m4249456877
nAk:_X509CrlEntry_get_Extensions_m1330698752
KAf:_Double_ToString_m1085043609
yVb:__Z19TransferField_ArrayI18StreamedBinaryReadILb0EE27Converter_SimpleNativeClassI17AnimationCurveTplIfEEEvRK23StaticTransferFieldInfoR31RuntimeSerializationCommandInfoRT0_
cah:_CipherSuite_createEncryptionCipher_m1926075645
Xdb:__ZN14StackAllocator16FrameMaintenanceEb
dXc:__ZL11SweepBoxBoxPKN5physx3Cct9SweepTestEPKNS0_11SweptVolumeEPKNS0_11TouchedGeomERKNS_14PxExtendedVec3ERKNS_6PxVec3ERNS0_12SweptContactE
LYk:__ZNK15dense_hashtableI10KeyWrapperIPK19Il2CppGenericMethodES4_N6il2cpp8metadata23Il2CppGenericMethodHashEN14dense_hash_setIS4_S7_NS6_26Il2CppGenericMethodCompareENSt3__29allocatorIS4_EEE8IdentityES9_SC_E5beginEv
M5:__ZNK10GameObject20QueryComponentByTypeEPKN5Unity4TypeE
VQf:_Enumerator_MoveNext_m1367380970_AdjustorThunk
Dfi:_OpCode_GetHashCode_m2974727122
Knb:__ZN16GraphicsSettings8TransferI18StreamedBinaryReadILb1EEEEvRT_
dah:_CipherSuite_createDecryptionCipher_m1118350455
jse:__ZN20TextRenderingPrivate12GetFontPathsERNSt3__26vectorINS0_12basic_stringIcNS0_11char_traitsIcEENS0_9allocatorIcEEEENS5_IS7_EEEE
Cik:_PatternCompiler_EmitReference_m1381860071
BJf:_Double_System_IConvertible_ToInt16_m4200640326
Ylc:__Z53Register_UnityEngine_GameObject_get_activeInHierarchyv
nei:_GenericTypeParameterBuilder_get_IsGenericType_m1883522222
Iaj:__Z90RuntimeInvoker_Single_t2076509932_Single_t2076509932_Single_t2076509932_Single_t2076509932PK10MethodInfoPvPS2_
i7:__ZL30InitializeCoreScriptingClassesv
Zbj:__Z49RuntimeInvoker_Void_t1841601450_Scene_t1684909666PK10MethodInfoPvPS2_
Z8f:_Collection_1_CheckWritable_m3938993573_gshared
ph:_glBlitFramebuffer
iRa:__ZN17ArchiveFileSystem5TouchER13FileEntryData
mQd:__ZNK5physx2Sc5Scene17prefetchForRemoveERKNS0_10StaticCoreE
Meh:_SecurityParameters_set_Cipher_m3888132335
CYg:_BigInteger_GeneratePseudoPrime_m2606361440
tEg:_DateTimeFormatInfo_get_ShortTimePattern_m20923983
kMb:__Z35Transfer_Blittable_SingleValueFieldI14SafeBinaryReadhEvRT_R17GeneralMonoObjectRK23StaticTransferFieldInfo
fTi:__ZL140U3CMouseDragOutsideRectU3Ec__Iterator1_t2599668326_CustomAttributesCacheGenerator_U3CMouseDragOutsideRectU3Ec__Iterator1_Dispose_m2134284531P21CustomAttributesCache
anj:__Z57RuntimeInvoker_ContactPoint_t1376425630_Int32_t2071877448PK10MethodInfoPvPS2_
Kyd:__ZN5physx22NpParticleBaseTemplateINS_15PxParticleFluidENS_15NpParticleFluidEE13setVelocitiesEjRKNS_16PxStrideIteratorIKjEERKNS4_IKNS_6PxVec3EEE
h1i:__Z129RuntimeInvoker_Int32_t2071877448_Il2CppObject_Int32_t2071877448_Int32_t2071877448_Il2CppObject_Int32_t2071877448_SByte_t454417549PK10MethodInfoPvPS2_
Y$g:_EncryptedPrivateKeyInfo_get_Algorithm_m2779196942
tJh:_RemotingServices_GetRealProxy_m620317996
S4a:__ZN13dynamic_arrayI11CulledLightLj4EE6insertEPS0_PKS0_S4_
uTk:__ZL25UnresolvedVirtualCall_176P12Il2CppObject22UICharInfo_t3056636800S1_PK10MethodInfo
rZj:_ArrayReadOnlyList_1_RemoveAt_m2270349795_gshared
kPk:_Predicate_1_Invoke_m2060780095_gshared
Ekb:__ZN10TagManager23VirtualRedirectTransferER18StreamedBinaryReadILb1EE
C$k:__ZN6il2cpp2vm13MetadataCache23GetInterfaceOffsetIndexEi
Po:FUNCTION_TABLE_vif
Qo:FUNCTION_TABLE_vid
Ro:FUNCTION_TABLE_vii
LTa:_UNITY_png_create_write_struct
f0i:__Z149RuntimeInvoker_Boolean_t3825574718_Int32_t2071877448_Il2CppObject_Int32_t2071877448_Int32_t2071877448_Il2CppObject_Int32_t2071877448_SByte_t454417549PK10MethodInfoPvPS2_
Fka:__ZN7Texture23VirtualRedirectTransferER24GenerateTypeTreeTransfer
Mre:_UNITY_FT_Set_Transform
_7b:__ZNK32RendererMaterialAnimationBinding12SetPPtrValueERKN11UnityEngine9Animation10BoundCurveEi
Qkl:__ZN6il2cpp8metadata15GenericMetadata20RegisterGenericClassEP18Il2CppGenericClass
eWl:_glDeleteFramebuffers__wrapper
oxg:_Image_get_overrideSprite_m706080347
glc:__Z36Register_UnityEngine_RectOffset_Initv
y5g:_BigInteger_ModInverse_m1881894572
d1k:__ZN6il2cpp2vm7Runtime17GetDelegateInvokeEP11Il2CppClass
lDd:__ZNK5physx15NpActorTemplateINS_14PxRigidDynamicEE14getOwnerClientEv
uUi:__ZL59Slider_t297367283_CustomAttributesCacheGenerator_m_FillRectP21CustomAttributesCache
itb:__ZN28EnlightenRendererInformation8TransferI14SafeBinaryReadEEvRT_
n4a:__ZN14qsort_internal6_QSortIP16RenderObjectDatai25RenderPrePassObjectSorterEEvT_S4_T0_T1_
Xti:__ZL69DefaultDependencyAttribute_t3858269114_CustomAttributesCacheGeneratorP21CustomAttributesCache
Lnd:__ZN5physx12NpBatchQuery13getUserMemoryEv
_t:__Z14resize_trimmedINSt3__26vectorIN13AnimationClip12Vector3CurveE13stl_allocatorIS3_L18MemLabelIdentifier25ELi16EEEEEvRT_j
OOa:__ZNK15Lz4Decompressor16DecompressMemoryEPKvPjPvS2_
Owe:_UNITY_tt_face_build_cmaps
Wia:__ZN29SerializeTraitsForStringTypesINSt3__212basic_stringIcNS0_11char_traitsIcEE13stl_allocatorIcL18MemLabelIdentifier1ELi16EEEEE19ResizeSTLStyleArrayERS7_iS5_
g4h:_Ray_ToString_m2019179238
rQc:__ZN11Rigidbody2D8TransferI24GenerateTypeTreeTransferEEvRT_
Dna:__Z35UnityPropertySheet_MakeSortedColorsRKNSt3__23mapIN9ShaderLab16FastPropertyNameE10ColorRGBAfNS_4lessIS2_EENS_9allocatorINS_4pairIKS2_S3_EEEEEER10vector_mapIS2_S3_S5_NS6_INS7_IS2_S3_EEEEE
Do:FUNCTION_TABLE_iiiiiiffiiiiiiiiiffffiii
Czg:_InputField_get_caretPositionInternal_m3011712053
$ve:_UNITY_tt_face_load_os2
e2d:__ZN5physx2GuL34fullContactsGenerationSphereConvexERKNS0_8CapsuleVERKNS0_11ConvexHullVERKNS_6shdfnd3aos12PsTransformVESB_PNS0_17PersistentContactERjRNS0_13ContactBufferEbRNS0_25PersistentContactManifoldERNS8_5Vec3VERKNS8_6FloatVEb
QDd:__ZN5physx19NpRigidBodyTemplateINS_14PxRigidDynamicEE16setRigidBodyFlagENS_15PxRigidBodyFlag4EnumEb
r7g:_HMAC_get_Key_m2528863640
M9f:_Collection_1_IsSynchronized_m1366278230_gshared
pzi:__ZL93StringBuilder_t1221177846_CustomAttributesCacheGenerator_StringBuilder_AppendLine_m1686706871P21CustomAttributesCache
gbd:__ZN5physx6shdfnd8PoolBaseINS_2Sc19ConstraintGroupNodeENS0_19ReflectionAllocatorIS3_EEE17releaseEmptySlabsEv
yOb:__Z29Transfer_Blittable_ArrayFieldI14SafeBinaryRead8Vector4fEvRT_R9ArrayInfoRK23StaticTransferFieldInfo
ePe:_Array_get_swapper_TisInt32_t2071877448_m2837069166_gshared
F5h:_RectTransform_INTERNAL_get_rect_m1177342209
zmg:_PointerEventData_IsScrolling_m1971908975
Pmg:__ZN16VirtFuncInvoker1IP22MouseState_t3572864619iE6InvokeEjPvi
Nnl:__GLOBAL__sub_I_RCW_cpp
dTc:__ZN5physx3Cct8SweptBoxD2Ev
qLi:__ZL53UILineInfo_t3621277874_CustomAttributesCacheGeneratorP21CustomAttributesCache
BUd:__ZN5physx2Cm12DelegateTaskINS_13PxsCCDContextEXadL_ZNS2_12postCCDSweepEPNS_10PxBaseTaskEEEED0Ev
ZGf:_Decimal_System_IConvertible_ToInt16_m3159038792
Ky:__ZN7mecanim9animation12EvaluateClipEPKNS0_4ClipEPKNS0_9ClipInputEPNS0_10ClipMemoryEPNS0_10ClipOutputE
DSh:_HashAlgorithm_get_CanReuseTransform_m160024219
p3c:__ZN5physx3Cct9SweepTest15onObstacleAddedEjPKNS_17PxObstacleContextERKNS_6PxVec3ES7_f
S8c:__ZN5physx2Gu10SupportMapD2Ev
Etb:__ZN4PPtrI11LightProbesE8TransferI18StreamedBinaryReadILb0EEEEvRT_
obk:_ComVisibleAttribute__ctor_m1789587486
ORc:__Z32Physics2D_CUSTOM_IgnoreCollisionP12Il2CppObjectS0_h
Rii:_MonoMethodInfo_GetReturnType_m2864247130
lMc:__ZN16Physics2DManager25DestroyColliderCollisionsEP10Collider2D
Ei:_JS_WebRequest_Release
OLg:_DirectoryNotFoundException__ctor_m2242202556
ajd:__ZNK5physx15NpActorTemplateINS_18PxArticulationLinkEE12getAggregateEv
xab:__ZNSt3__26__treeINS_12__value_typeINS_12basic_stringIcNS_11char_traitsIcEENS_9allocatorIcEEEE17MessageIdentifierEENS_19__map_value_compareIS7_S9_NS_4lessIS7_EELb1EEENS5_IS9_EEE7destroyEPNS_11__tree_nodeIS9_PvEE
ghf:_String_CreateString_m2448464375
arh:_X509SubjectKeyIdentifierExtension__ctor_m2959112706
Dgi:_FieldInfo_get_IsNotSerialized_m2322769148
SKd:__ZNK5physx7NpScene18getStaticStructureEv
gDi:__ZL68Math_t2022911894_CustomAttributesCacheGenerator_Math_Max_m2671311541P21CustomAttributesCache
EUd:__ZN5physx13PxsCCDContext12postCCDSweepEPNS_10PxBaseTaskE
Okl:__ZN6il2cpp8metadata15GenericMetadata7InflateEPK19Il2CppGenericMethodPK20Il2CppGenericContext
Kii:_MonoGenericCMethod_get_ReflectedType_m2689239043
a3a:__ZN22PerThreadPageAllocatorC2Ev
N9f:_Collection_1_IsFixedSize_m499196375_gshared
vrg:_ColorTween_set_startColor_m3546206870_AdjustorThunk
ehe:__ZN5physx6shdfnd10Foundation19AlignCheckAllocator28deregisterAllocationListenerERNS_20PxAllocationListenerE
Bid:__ZN5physx2Sc21ArticulationJointCore12setChildPoseERKNS_11PxTransformE
H2j:_InternalEnumerator_1_get_Current_m4083613828_gshared
O$f:_List_1_System_Collections_IList_get_IsReadOnly_m1745992999_gshared
T9k:__ZN13Il2CppHashMapINSt3__24pairIPK9EventInfoP11Il2CppClassEEj17ReflectionMapHashIS7_E19ReflectionMapEqualsIS7_ENS0_9allocatorINS1_IK10KeyWrapperIS7_EjEEEEEC2EjRKS9_RKSB_
pEh:_Dictionary_2_Remove_m4114917324_gshared
gvc:__ZN8GUIState8EndOnGUIEv
ukf:_UnicodeEncoding_GetString_m542738941
Rxc:__Z32GUIStyle_Set_Custom_PropWordWrapP12Il2CppObjecth
JCe:_UNITY_TT_Get_VMetrics
nLg:_Path_InsecureGetFullPath_m2635272425
yyf:_Enumerator_Clone_m1124749523
JEf:_DateTime_System_IConvertible_ToUInt32_m1363211018
SWd:__ZN5physx33solveContactCoulombBlockWriteBackEPKNS_23PxcSolverConstraintDescEjRNS_16PxcSolverContextEPNS_25PxcThresholdStreamElementEjPi
BPh:_RuntimeMethodHandle__ctor_m1162528746
NFk:_Predicate_1__ctor_m3243601712_gshared
$_f:_List_1_AsReadOnly_m4108578222_gshared
F2d:__ZN5physx9PxTaskMgr17submitUnnamedTaskERNS_6PxTaskENS_10PxTaskType4EnumE
XRh:_DSA__ctor_m613430209
kPe:_Array_get_swapper_TisPlayable_t3667545548_m4216505466_gshared
WRe:_SetPropertyUtility_SetStruct_TisSingle_t2076509932_m3849235084_gshared
pFa:__ZN7Texture21GetMasterTextureLimitEv
yal:__ZN6il2cpp2vm10Reflection12HasAttributeEP12Il2CppObjectP11Il2CppClass
hVa:_UNITY_png_write_sRGB
XCc:__ZN8JSONRead21TransferSTLStyleArrayI13dynamic_arrayI4AABBLj4EEEEvRT_18MemLabelIdentifier17TransferMetaFlags
CGk:_InvokableCall_1__ctor_m121193486_gshared
_5:__ZN9ShaderLabL25StaticInitializeShaderLabEPv
Die:__ZN12MeshCollider23VirtualRedirectTransferER24GenerateTypeTreeTransfer
xSd:__ZNK5physx2Sq12BucketPruner5sweepERKNS0_9ShapeDataERKNS_6PxVec3ERfRNS0_14PrunerCallbackE
T:Math_max
X9f:_Collection_1_System_Collections_IList_Insert_m1511106741_gshared
SRk:__ZL24UnresolvedVirtualCall_92P12Il2CppObjectPK10MethodInfo
l3k:_il2cpp_class_get_methods
qLg:_Path_CanonicalizePath_m383914732
Yc:invoke_viiiiiffii
$th:_Enumerator_System_Collections_IEnumerator_get_Current_m1631145297_gshared
Gsf:_ArrayList_Synchronized_m2395071980
Rpl:__ZN6il2cpp2os6Thread16GetCurrentThreadEv
O4h:_Rect_get_min_m2549872833
Dne:__ZN5physx6shdfnd8internal8HashBaseINS0_4PairIKPKNS0_14NamedAllocatorEPKcEES6_NS0_4HashIS6_EENS1_11HashMapBaseIS6_S9_SC_NS0_20NonTrackingAllocatorEE6GetKeyESE_Lb1EE15reserveInternalEj
XQg:_UnexceptionalStreamWriter_Write_m3206913035
_3b:__Z13RegisterClassI10MeshFilterEvv
fDb:__ZThn28_N14SpriteRendererD1Ev
plb:__ZN10TagManager8TransferI19StreamedBinaryWriteILb0EEEEvRT_
_Xb:__ZN11PreloadData23VirtualRedirectTransferER18StreamedBinaryReadILb0EE
dwl:__ZN6il2cpp6icalls8mscorlib6System10ReflectionL40il2cpp_class_get_generic_type_definitionEP11Il2CppClass
VRh:_DESTransform_ProcessBlock_m2826669227
c8i:__Z115RuntimeInvoker_Void_t1841601450_Il2CppObject_Int32_t2071877448_Int32_t2071877448_SByte_t454417549_Int32_t2071877448PK10MethodInfoPvPS2_
hHg:_Int16_CompareTo_m3493496879
ihj:__Z36RuntimeInvoker_Direction_t1525323322PK10MethodInfoPvPS2_
OIi:__ZL56RenderTexture_t2666733923_CustomAttributesCacheGeneratorP21CustomAttributesCache
sNi:__ZL56ColorWriteMask_t926634530_CustomAttributesCacheGeneratorP21CustomAttributesCache
wxb:__ZN6Sprite17MainThreadCleanupEv
_yh:_Enumerator_System_Collections_IEnumerator_get_Current_m2191931798_AdjustorThunk
nyi:__ZL61SignatureDescription_t89145500_CustomAttributesCacheGeneratorP21CustomAttributesCache
h2j:_InternalEnumerator_1_MoveNext_m3389738333_AdjustorThunk
ER:__ZN10AudioMixer14UpdateMuteSoloEv
MNb:__ZNSt3__26vectorINS_12basic_stringIcNS_11char_traitsIcEE13stl_allocatorIcL18MemLabelIdentifier1ELi16EEEES4_IS7_LS5_1ELi16EEE6assignINS_11__wrap_iterIPS7_EEEENS_9enable_ifIXaasr21__is_forward_iteratorIT_EE5valuesr16is_constructibleIS7_NS_15iterator_traitsISF_E9referenceEEE5valueEvE4typeESF_SF_
KVa:__Z17GetMonoManagerPtrv
iwj:_Component_GetComponents_m637589504
oqd:__ZN5physx6shdfnd5ArrayINS_3Scb13MaterialEventENS0_19ReflectionAllocatorIS3_EEE15growAndPushBackERKS3_
F1f:_Stack_1_System_Collections_ICollection_get_SyncRoot_m3151629354_gshared
xFj:_MaskableGraphic_UnityEngine_UI_IClippable_get_gameObject_m954171032
rla:__ZN9ShaderLab10SubProgram7CompileEv
AEa:__ZN7ApiGLES16SetPatchVerticesEi
JAa:__ZN9GfxDevice12PresentFrameEPK14ChannelAssigns
Xcd:__ZN5physx2Sc5Scene11onBodySleepEPNS0_7BodySimE
Iq:__ZN6Object12SetHideFlagsEi
zPa:__ZN10MemoryFileC2E18MemLabelIdentifierP14MemoryFileData14FilePermission
BKh:_TrackingServices_NotifyUnmarshaledObject_m1794048369
dVk:__ZN6il2cpp2vm5Class20FromGenericParameterEPK22Il2CppGenericParameter
vwi:__ZL59RemotingServices_t2399536837_CustomAttributesCacheGeneratorP21CustomAttributesCache
NTc:__ZL28GeomMTDCallback_PlaneCapsuleRN5physx6PxVec3ERfRKNS_10PxGeometryERKNS_11PxTransformES5_S8_
fea:__ZN15GlobalCallbacksC2Ev
Cfb:__ZN11AssetBundle8TransferI14SafeBinaryReadEEvRT_
Abj:__Z97RuntimeInvoker_Void_t1841601450_PlayableU26_t3233213460_Int32_t2071877448_PlayableU26_t3233213460PK10MethodInfoPvPS2_
_Ze:_Array_InternalArray__set_Item_TisLabelFixup_t4090909514_m565370771_gshared
mNc:__ZN7b2World10CreateBodyEPK9b2BodyDef
ZWk:__ZN15dense_hashtableINSt3__24pairIK10KeyWrapperIPK19Il2CppGenericMethodEPK26Il2CppGenericMethodIndicesEES6_N6il2cpp8metadata23Il2CppGenericMethodHashEN14dense_hash_mapIS6_SA_SE_NSD_26Il2CppGenericMethodCompareENS0_9allocatorISB_EEE9SelectKeyESG_SI_ED2Ev
Jwk:_WWW_DestroyWWW_m2548500174
ite:_UNITY_FT_New_Memory_Face
Qpd:__ZNK5physx10NpMaterial18getDynamicFrictionEv
QFi:__ZL74X509Crl_t1699034837_CustomAttributesCacheGenerator_U3CU3Ef__switchU24map13P21CustomAttributesCache
NOh:_SerializationEntry__ctor_m1619256036_AdjustorThunk
ASa:__ZZ23InitPlayerLoopCallbacksvEN43PostLateUpdatePlayerSendFrameCompletestruct7ForwardEv
hcf:__Z15CastclassSealedP12Il2CppObjectP11Il2CppClass
s3b:__ZN15ApplicationInfo14GetSandboxTypeEv
Lqd:__ZN5physx9NpPhysics16createConvexMeshERNS_13PxInputStreamE
WBj:_Playable_IsValid_m2102916683_AdjustorThunk
eQb:__Z18Transfer_BlittableI17RemapPPtrTransferLb1EhEvRK29SerializationCommandArgumentsR31RuntimeSerializationCommandInfo
wrl:__ZNSt3__26vectorIjNS_9allocatorIjEEE26__swap_out_circular_bufferERNS_14__split_bufferIjRS2_EE
E5a:__ZN16ReflectionProbes40UpdateRealtimeReflectionProbesTimeslicedEv
ual:__ZN15dense_hashtableINSt3__24pairIK10KeyWrapperINS1_IPK14Il2CppAssemblyP11Il2CppClassEEEjEES9_17ReflectionMapHashIS8_EN14dense_hash_mapIS9_jSD_19ReflectionMapEqualsIS8_ENS0_9allocatorISB_EEE9SelectKeyESG_SI_E14squash_deletedEv
NJk:_ListPool_1_Get_m529219189_gshared
pjl:__ZNSt3__26__treeINS_12__value_typeIP24Il2CppReflectionAssemblyPvEENS_19__map_value_compareIS3_S5_NS_4lessIS3_EELb1EEENS_9allocatorIS5_EEE16__insert_node_atEPNS_16__tree_node_baseIS4_EERSF_SF_
cka:__ZN13RenderManager16SetCurrentCameraEP6Camera
Mei:_MethodBuilder_GetBaseDefinition_m774166361
MXk:__ZNK15dense_hashtableI10KeyWrapperIPK17Il2CppGenericInstES4_N6il2cpp8metadata21Il2CppGenericInstHashEN14dense_hash_setIS4_S7_NS6_24Il2CppGenericInstCompareENSt3__29allocatorIS4_EEE8IdentityES9_SC_E10test_emptyERK30dense_hashtable_const_iteratorIS4_S4_S7_SE_S9_SC_E
icd:__ZN5physx2Sq17SceneQueryManager8addShapeERKNS_7NpShapeERKNS_12PxRigidActorEbPNS_9PxBounds3E
J$b:__ZN18StreamedBinaryReadILb1EE21TransferSTLStyleArrayI13dynamic_arrayIN9ShaderLab21SerializedBindChannelELj4EEEEvRT_17TransferMetaFlags
Twl:__ZN6il2cpp5utils5MatchENSt3__212basic_stringIcNS1_11char_traitsIcEENS1_9allocatorIcEEEEjRKS7_j
aue:_UNITY_FT_Destroy_Class_psnames_module_class
gKc:__ZNK12b2WheelJoint17GetReactionTorqueEf
eik:_MRUList_Evict_m2430323183
beg:_ReadOnlyCollection_1_System_Collections_Generic_ICollectionU3CTU3E_Remove_m1060547576_gshared
vLj:_Slider_get_reverseValue_m3146075392
oil:__ZN6il2cpp2vm5Image9GetCorlibEv
Mwb:__ZN2UI13RectTransform8TransferI18StreamedBinaryReadILb1EEEEvRT_
Tue:_ft_bitmap_glyph_bbox
Ukl:__ZN6il2cpp2vm11MethodStack17GetStackFramesRawEv
Xtd:__ZNK5physx15NpActorTemplateINS_7PxClothEE14getOwnerClientEv
Uvj:_Component_GetComponent_m4225719715
zWd:__ZNK5physx2Gu29EPASupportMapPairRelativeImplINS0_8CapsuleVES2_E9doSupportERKNS_6shdfnd3aos5Vec3VERS6_S9_S9_
z0e:_Array_Sort_TisVector4_t2243707581_m474199742_gshared
pge:__ZN5physx10SubSortSAH5sort4EPjjRNS_6shdfnd5ArrayINS_11RTreeNodeNQENS2_19ReflectionAllocatorIS4_EEEERjjPS4_
KXh:_GUIStyle_InitCopy_m3676786505
FQg:_TextWriter_Write_m576684782
Tvk:_Vector3_Max_m2105825185
Ak:_glIsVertexArray
Imc:__Z66Register_UnityEngine_Graphics_Internal_GetMaxDrawMeshInstanceCountv
yPa:__ZN25SingleBlockMemoryFileDataC2E18MemLabelIdentifierPvjb
umb:__ZN5Unity9Component8TransferI18StreamedBinaryReadILb0EEEEvRT_
LKg:__ZN16VirtFuncInvoker0IhE6InvokeEjPv
Sa:invoke_fff
sMj:_Text_get_fontSize_m3105730761
eTl:b14
Leh:_TlsServerHello_Update_m1740270635
Mme:__ZN5physx2Sc7PhysicsC2ERKNS_17PxTolerancesScaleERKNS_14PxvOffsetTableE
bFe:__ZN2UI6Canvas17MainThreadCleanupEv
YIj:_ScrollRect_Rebuild_m3423824761
d$f:_List_1_Find_m3862454845_gshared
gEi:__ZL85Locale_t4255929015_CustomAttributesCacheGenerator_Locale_GetText_m1445803604____args1P21CustomAttributesCache
Vhk:_MatchCollection_get_Item_m2609281578
wLa:__ZN7ApiGLES13CreateProgramEv
raj:__Z74RuntimeInvoker_Boolean_t3825574718_Vector3_t2243707580_Vector3_t2243707580PK10MethodInfoPvPS2_
lOj:_UTF8Encoding__ctor_m100325490
CFa:__ZN4crnd12crn_unpackerD2Ev
XLj:_StencilMaterial_ClearAll_m1372779118
Pk:_emscripten_glTexImage2D
Phj:__Z52RuntimeInvoker_Void_t1841601450_UIVertex_t1204258818PK10MethodInfoPvPS2_
TIh:_ObjRefSurrogate_SetObjectData_m1873902916
uCe:_tt_driver_class_pic_init
b7:__ZN18ScriptingArguments9AddStringEPKc
Pdl:__ZN15dense_hashtableINSt3__24pairIK10KeyWrapperIP11Il2CppClassES4_EES5_N6il2cpp8metadata16SZArrayClassHashEN14dense_hash_mapIS5_S4_SA_NS9_19SZArrayClassCompareENS0_9allocatorIS7_EEE9SelectKeyESC_SE_E13set_empty_keyERKS7_
gcg:_ReadOnlyCollection_1_System_Collections_IList_get_IsReadOnly_m1367736517_gshared
ZGi:__ZL116Component_t3819376471_CustomAttributesCacheGenerator_Component_GetComponentsInParent_m1920178904____includeInactive1P21CustomAttributesCache
cPl:runPostSets
yWd:__ZNK5physx2Gu29EPASupportMapPairRelativeImplINS0_8CapsuleVES2_E18doWarmStartSupportEiiRNS_6shdfnd3aos5Vec3VES7_S7_
mPi:__ZL93AxisEventData_t1524870173_CustomAttributesCacheGenerator_AxisEventData_set_moveDir_m254243794P21CustomAttributesCache
Jua:__ZL23stbir__resize_arbitraryPvPKviiiS_iiiffffPfiij14stbir_datatype12stbir_filterS4_10stbir_edgeS5_16stbir_colorspace
_Vf:_List_1_System_Collections_IList_Insert_m848656350_gshared
nRb:__Z18Transfer_BlittableI24GenerateTypeTreeTransferLb1E8Vector4fEvRK29SerializationCommandArgumentsR31RuntimeSerializationCommandInfo
HHg:_Int16_ToString_m3971652088_AdjustorThunk
Zk:_pthread_detach
g0k:__ZN6il2cpp2vm19SocketPollingThread7RunLoopEv
dOf:_KeyValuePair_2__ctor_m1640124561_AdjustorThunk
ehk:_MethodDictionary_AllocInternalProperties_m3261295876
i6i:__Z197RuntimeInvoker_Boolean_t3825574718_Il2CppObject_Il2CppObject_Il2CppObject_Int32_t2071877448_DateTimeU26_t3448131235_SByte_t454417549_BooleanU26_t3168250738_SByte_t454417549_ExceptionU26_t1467204777PK10MethodInfoPvPS2_
HRd:__ZN5physx11EdgeManager6resizeEj
Flh:_IPv6Address_set_ScopeId_m1442934355
Nte:__ZN13TextRendering4Font7PRODUCEE18MemLabelIdentifier18ObjectCreationMode
bGi:__ZL77U3CPrivateImplementationDetailsU3E_t1486305139_CustomAttributesCacheGeneratorP21CustomAttributesCache
p0b:__ZN9ShaderLab25SerializedTextureProperty8TransferI24GenerateTypeTreeTransferEEvRT_
SNk:_Comparison_1_Invoke_m2645957248_gshared
f$l:_emscripten_glIsShader__wrapper
Kxe:_tt_cmap14_char_next
Vsi:__ZL69AssemblyTrademarkAttribute_t3740556705_CustomAttributesCacheGeneratorP21CustomAttributesCache
ABa:__ZN13GfxDeviceGLES28GetNativeVertexBufferPointerEP9GfxBuffer
zEd:__ZN5physx2Sc5Scene12removeStaticERNS0_10StaticCoreERNS_6shdfnd11InlineArrayIPKNS0_9ShapeCoreELj64ENS4_19ReflectionAllocatorIS8_EEEEb
X5k:__ZN15dense_hashtableINSt3__24pairIK10KeyWrapperIPK10Il2CppTypeEjEES6_N6il2cpp8metadata14Il2CppTypeHashEN14dense_hash_mapIS6_jSB_NSA_17Il2CppTypeCompareENS0_9allocatorIS8_EEE9SelectKeyESD_SF_E15insert_noresizeERKS8_
Fja:__ZN11NamedObject8TransferI18StreamedBinaryReadILb0EEEEvRT_
pKa:__ZNK17GPUSkinPoseBuffer12GetBoneCountEv
iyc:__Z32GUIStyle_Get_Custom_PropFontSizeP12Il2CppObject
IOh:_DelegatePInvokeWrapper_CallbackHandler_t362827733
BDi:__ZL59ResolveEventArgs_t1859808873_CustomAttributesCacheGeneratorP21CustomAttributesCache
SDj:_GUI_DoTextField_m368568689
vgi:_EventInfo_get_MemberType_m3337516651
fkk:_Parser_ParseHex_m4098274221
lCc:__Z18Transfer_BlittableI8JSONReadLb1EyEvRK29SerializationCommandArgumentsR31RuntimeSerializationCommandInfo
qVk:__ZNK15dense_hashtableINSt3__24pairIK10KeyWrapperIPK22Il2CppGenericParameterEP11Il2CppClassEES6_N6il2cpp5utils11PointerHashIS4_EEN14dense_hash_mapIS6_S9_SE_NS0_8equal_toIS6_EENS0_9allocatorISA_EEE9SelectKeyESH_SJ_E12test_deletedERK24dense_hashtable_iteratorISA_S6_SE_SL_SH_SJ_E
ul:_emscripten_glMatrixMode
wx:__ZN8Animator23VirtualRedirectTransferER18StreamedBinaryReadILb0EE
ysi:__ZL93TypeBuilder_t3308873219_CustomAttributesCacheGenerator_TypeBuilder_GetConstructors_m774120094P21CustomAttributesCache
H9a:__Z22CalculateTransformPathRK9TransformPS0_
fce:__ZN5physx13GuMeshFactory17createHeightFieldERNS_13PxInputStreamE
IHd:__ZN5physx2Sc10NPhaseCore25createShapeInstancePairLLERNS0_8ShapeSimES3_NS_7PxFlagsINS_10PxPairFlag4EnumEtEE
DIh:_MethodReturnDictionary__ctor_m756139344
EX:__ZN11UnityEngine15CloudWebService14DataDispatcher16PrepareDataBlockERNS0_16SessionContainerE
JBj:_CustomAnimationPlayable_AddInput_m3120035390
NId:__ZThn8_N5physx2Sc19ShapeInstancePairLL12onDeactivateEj
T_j:_InternalEnumerator_1__ctor_m967618647_gshared
_vl:__ZN6il2cpp6icalls8mscorlib6System9Threading7Monitor4ExitEP12Il2CppObject
Tmj:__Z62RuntimeInvoker_ParameterModifier_t1820634920_Int32_t2071877448PK10MethodInfoPvPS2_
jUb:__ZL26Transfer_SimpleNativeClassI18StreamedBinaryReadILb0EE10RectOffsetLb0EEvRK29SerializationCommandArgumentsR31RuntimeSerializationCommandInfo
Zte:_UNITY_ft_destroy_default_module_classes
U0g:_SymmetricTransform_FinalDecrypt_m3674669784
CTf:_List_1_CheckMatch_m1772343151_gshared
n$a:__ZL12DepthPassJobPN21GfxDeviceAsyncCommand10ArgScratchEPKNS_3ArgE
u_b:__ZNSt3__26vectorIN9ShaderLab20SerializedSubProgram16TextureParameterENS_9allocatorIS3_EEE6assignINS_11__wrap_iterIPS3_EEEENS_9enable_ifIXaasr21__is_forward_iteratorIT_EE5valuesr16is_constructibleIS3_NS_15iterator_traitsISC_E9referenceEEE5valueEvE4typeESC_SC_
_Jg:_IntPtr_Equals_m1214967011_AdjustorThunk
zhe:__ZN9Rigidbody16ApplyConstraintsEv
XZf:_List_1_Add_m3591975577_gshared
VIe:__Z55Register_UnityEngine_CanvasGroup_get_ignoreParentGroupsv
mGg:_Guid_Equals_m2389236871
sPi:__ZL100PointerEventData_t1599784723_CustomAttributesCacheGenerator_U3CpointerPressRaycastU3Ek__BackingFieldP21CustomAttributesCache
uwk:_Vector4_ToString_m2340321043
Fn:FUNCTION_TABLE_iiiiiiiiiiii
Kfa:__Z24InitializeIl2CppFromMainRKNSt3__212basic_stringIcNS_11char_traitsIcEENS_9allocatorIcEEEES7_iPPKc
pAd:__ZN5physx2Sc17ParticleSystemSim8setFlagsEj
knb:__ZN16GraphicsSettingsD0Ev
Wbb:__Z29StdTemplateConversionFunctionIshEbPvR14SafeBinaryRead
GXa:__ZN15LODGroupManager21CalculateLODDataArrayERK13LODParametersPK6Cameraf
m:cttz_i8
nAe:_UNITY_FT_GlyphLoader_Add
qCl:_uselocale
hfe:__ZN5physx2Gu15EdgeListBuilder18CreateEdgesToFacesEjPKjPKt
y$c:__ZN5physx11PxMeshQuery5sweepERKNS_6PxVec3EfRKNS_10PxGeometryERKNS_11PxTransformEjPKNS_10PxTriangleERNS_10PxSweepHitENS_7PxFlagsINS_9PxHitFlag4EnumEtEEPKjfb
wKa:__Z26TransformVerticesInnerLoopILb0ELb0ELb0EEvPhRK10Matrix4x4fRK10Matrix3x3fjPKhiiiS8_ii25GfxTransformVerticesFlags
i$k:__ZNK15dense_hashtableINSt3__24pairIK10KeyWrapperIPK19Il2CppGenericMethodEPK26Il2CppGenericMethodIndicesEES6_N6il2cpp8metadata23Il2CppGenericMethodHashEN14dense_hash_mapIS6_SA_SE_NSD_26Il2CppGenericMethodCompareENS0_9allocatorISB_EEE9SelectKeyESG_SI_E12test_deletedERK24dense_hashtable_iteratorISB_S6_SE_SK_SG_SI_E
YCi:__ZL47Guid_t2533601593_CustomAttributesCacheGeneratorP21CustomAttributesCache
NKi:__ZL108Physics2D_t2540166467_CustomAttributesCacheGenerator_Physics2D_GetRayIntersectionAll_m253330691____distance1P21CustomAttributesCache
pwh:_Enumerator_VerifyCurrent_m2900414404_AdjustorThunk
xEg:_DateTimeFormatInfo_get_FullDateTimePattern_m2607507656
jfh:_HttpsClientStream_RaiseServerCertificateValidation_m3356770426
Doi:__ZL73Il2CppArray_CustomAttributesCacheGenerator_Array_BinarySearch_m3052238307P21CustomAttributesCache
DIf:_DelegateSerializationHolder__ctor_m3915060553
T0e:_Array_swap_TisUIVertex_t1204258818_TisUIVertex_t1204258818_m1163375424_gshared
qm:_emscripten_glViewport
zrl:__ZN6il2cpp6icalls8mscorlib6System15MonoCustomAttrs17IsDefinedInternalEP12Il2CppObjectP20Il2CppReflectionType
Jzb:__ZN4Mesh21UnswizzleVertexColorsEb
ov:__ZN18StreamedBinaryReadILb1EE21TransferSTLStyleArrayI13dynamic_arrayI11KeyframeTplI8Vector3fELj4EEEEvRT_17TransferMetaFlags
Rhj:__Z81RuntimeInvoker_Il2CppObject_Int32_t2071877448_Int32_t2071877448_Color_t2020392075PK10MethodInfoPvPS2_
Aeh:_TlsServerSettings_set_CertificateTypes_m264196087
r0j:_InternalEnumerator_1__ctor_m4150855019_gshared
CFf:_DateTime_ToString_m2276663647_AdjustorThunk
rCe:_cff_parse_font_bbox
Zhc:__Z35Application_Get_Custom_PropIsEditorv
M0c:__Z14raycast_sphereRKN5physx10PxGeometryERKNS_11PxTransformERKNS_6PxVec3ES8_fNS_7PxFlagsINS_9PxHitFlag4EnumEtEEjPNS_12PxRaycastHitEbPFbRSD_PvESG_
OFb:__ZN14PlayerSettings23VirtualRedirectTransferER18StreamedBinaryReadILb0EE
a9:__ZN13MonoBehaviour19RebuildMonoInstanceEP11Il2CppClassP12Il2CppObjectP10MonoScript
hPe:_Array_get_swapper_TisCustomAttributeTypedArgument_t1498197914_m2780757375_gshared
BNf:_KeyValuePair_2__ctor_m3201181706_AdjustorThunk
iAl:__ZN6il2cpp2os5Event5ResetEv
v3a:__Z26CombineDepthNormalsTextureRK17RenderLoopContextR13dynamic_arrayI16RenderObjectDataLj4EE
lFk:_AesManaged__ctor_m2322442838
zkl:__ZN6il2cpp8metadata15GenericMetadata17InflateParametersEPK13ParameterInfohPK20Il2CppGenericContextb
kJg:_Int64_System_IConvertible_ToUInt32_m850395426_AdjustorThunk
a8:__ZN18AwakeFromLoadQueue28InvokePersistentManagerAwakeEPNS_4ItemEj17AwakeFromLoadMode
Yci:_TypeBuilder_GetMethodsByName_m229541072
fY:__ZNSt3__215basic_stringbufIcNS_11char_traitsIcEENS_9allocatorIcEEE7seekposENS_4fposI11__mbstate_tEEj
A4e:_HMACSHA512__ctor_m2390736870
T7d:__ZNK5physx2Cm12DelegateTaskINS_2Sc5SceneEXadL_ZNS3_23postIslandGenSecondPassEPNS_10PxBaseTaskEEEE7getNameEv
gyl:__ZNSt3__26__treeINS_12__value_typeIPvxEENS_19__map_value_compareIS2_S3_NS_4lessIS2_EELb1EEENS_9allocatorIS3_EEE16__insert_node_atEPNS_16__tree_node_baseIS2_EERSD_SD_
BDb:__ZN4PPtrI6SpriteE8TransferI18StreamedBinaryReadILb0EEEEvRT_
eXa:__ZNK6Camera23CalculateShadowDistanceEv
Uci:_TypeBuilder_GetInterfaces_m1818658502
Qgh:_TlsException_get_Alert_m4022765752
m5g:_BigInteger_op_Equality_m2683055762
eCk:_U3CPostScoresU3Ec__Iterator0_MoveNext_m3527064745
fga:__Z25SetNeedToPerformRenderingb
wCk:_IntroMenu_ShowDevice_m713915189
dji:_MonoMethod_GetPseudoCustomAttributes_m466965107
p1a:__ZNSt3__227__insertion_sort_incompleteIR23CompareReflectionProbesP31RuntimeReflectionProbeBlendInfoEEbT0_S5_T_
Iqi:__ZL53SortedList_t3004938869_CustomAttributesCacheGeneratorP21CustomAttributesCache
d7h:_ResourceRequest_t2560315377_marshal_pinvoke
jvh:_Enumerator_System_Collections_IDictionaryEnumerator_get_Value_m3005608231_gshared
GQk:__ZL24UnresolvedVirtualCall_26P12Il2CppObjectS0_iiPK10MethodInfo
PEj:_MaskUtilities_NotifyStencilStateChanged_m1527407683
BVd:__ZN5physxL27PxcSweepAnyShapeHeightfieldERKNS_11PxsCCDShapeES2_PKNS_12PxsRigidBodyES5_RKNS_11PxTransformES8_fRNS_6PxVec3ESA_RNS_10PxcNpCacheERNS_18PxcNpThreadContextE
g_g:_DSAManaged_GenerateKeyPair_m2711647034
N0k:__ZNSt3__214__split_bufferI6pollfdRNS_9allocatorIS1_EEED2Ev
KWe:_Array_InternalArray__ICollection_Add_TisResourceCacheItem_t333236149_m1151081240_gshared
Xdc:__ZNK4Mesh17GetPrimitiveCountEv
HQd:__ZN5physx3Scb5SceneD2Ev
VBf:_Convert_ToInt32_m2209788057
yz:__ZN17AnimationPlayable11DerivesFromEP11Il2CppClass
JMb:__ZN6HelperI14SafeBinaryRead23TransferArrayField_InfoE24SerializationFunctionForERKS1_R23StaticTransferFieldInfoPb
aMh:_SoapServices_GetXmlTypeForInteropType_m3821579913
ODa:__ZN7ApiGLES13CreateTextureEj16TextureDimensionN2gl9TexFormatEiiiii
VYl:_emscripten_glTexParameterfv__wrapper
mlk:_CaptureAssertion_IsComplex_m1433259302
b4k:_il2cpp_method_get_param_count
tQc:__ZN11Rigidbody2D8TransferI19StreamedBinaryWriteILb0EEEEvRT_
Ihe:__Z16GetDynamicsScenev
THd:__ZThn8_N5physx2Sc18TriggerInteraction7destroyEv
utk:_TouchScreenKeyboard_get_active_m1442597648
kFi:__ZL68Uri_t19570940_CustomAttributesCacheGenerator_U3CU3Ef__switchU24map15P21CustomAttributesCache
Jye:_ps_dimension_done
$og:_LayoutRebuilder_MarkLayoutForRebuild_m640589351
TEe:__Z46Register_UnityEngine_TextGenerator_Dispose_cppv
Bmg:_PointerEventData_get_pressEventCamera_m724559964
pbf:_String_IndexOfUnchecked_m3356721554
Qsb:__ZN16LightmapSettings8TransferI14SafeBinaryReadEEvRT_
WGa:__ZN17BufferManagerGLES13ReleaseBufferEP14DataBufferGLES
o9c:__ZN5physx6shdfnd5ArrayIPvNS0_19ReflectionAllocatorINS_16NpConnectorArrayEEEE15growAndPushBackERKS2_
Y0h:_Mesh_CheckCanAccessSubmesh_m1826512193
j9:__Z64scripting_unity_engine_object_new_and_invoke_default_constructorP11Il2CppClassP6ObjectPP15Il2CppException
QGd:__ZN5physx2Sc5Scene15prepareSimulateEv
jCc:__Z18Transfer_BlittableI8JSONReadLb1EjEvRK29SerializationCommandArgumentsR31RuntimeSerializationCommandInfo
Uad:__ZN5physx6shdfnd5ArrayIPNS_2Sc11InteractionENS0_19ReflectionAllocatorIS4_EEE8recreateEj
STi:__ZL63ScrollRect_t1199013257_CustomAttributesCacheGenerator_m_InertiaP21CustomAttributesCache
Uxk:_PKCS12_Decrypt_m1557069392
KMj:_VertexHelper_AddUIVertexQuad_m280792808
vmh:_WebHeaderCollection_ToString_m1246460752
toj:__Z37RuntimeInvoker_Enumerator_t2983962278PK10MethodInfoPvPS2_
GCj:_Font_get_fontSize_m1732593415
zq:stackSave
y5h:_RectOffset_INTERNAL_CALL_Remove_m1194095901
dze:_ps_dimension_end
LL:__ZN8Animator10SetIntegerEii
Znc:__Z41Register_UnityEngine_Mesh_Internal_Createv
Gdb:__ZN16MemoryFileSystem5TouchER13FileEntryData
$Cb:__ZN14SpriteRenderer23VirtualRedirectTransferER24GenerateTypeTreeTransfer
B6e:_RIPEMD160Managed_JJ_m2933451431
Fpe:__Z63Register_UnityEngine_Physics_INTERNAL_CALL_Internal_RaycastTestv
b5e:_MACTripleDES_Initialize_m1318099802
d8g:_MD5SHA1_VerifySignature_m507888141
opf:_Byte_System_IConvertible_ToChar_m4188836679
fEg:_NumberFormatter_InitDecHexDigits_m2036076025
Ovh:_Enumerator_get_CurrentKey_m3839846791_AdjustorThunk
HCc:__ZN8JSONRead21TransferSTLStyleArrayI13dynamic_arrayIaLj1EEEEvRT_18MemLabelIdentifier17TransferMetaFlags
w6a:__ZN6Camera9SetAspectEf
Erg:_ColorTween_get_ignoreTimeScale_m641454126_AdjustorThunk
Aa:invoke_viiffiii
E4k:__ZN15dense_hashtableINSt3__24pairIK10KeyWrapperINS1_IPK14Il2CppAssemblyP11Il2CppClassEEEjEES9_17ReflectionMapHashIS8_EN14dense_hash_mapIS9_jSD_19ReflectionMapEqualsIS8_ENS0_9allocatorISB_EEE9SelectKeyESG_SI_E4findERSA_
z5g:_Kernel_modInverse_m3230829577
Hbg:_ReadOnlyCollection_1_Contains_m1800950533_gshared
crb:__ZN12CubemapArray8TransferI18StreamedBinaryReadILb1EEEEvRT_
FQi:__ZL79TouchInputModule_t2561058385_CustomAttributesCacheGenerator_m_ForceModuleActiveP21CustomAttributesCache
w_l:_emscripten_glBindVertexArray__wrapper
H7g:_MD4__ctor_m2366413460
Hxj:_Display__ctor_m563295973
zCh:_Dictionary_2_InitArrays_m435313205_gshared
kM:__ZN10ObjectPoolIN4FMOD3DSPENS0_4DSPIEE7GetFreeEi
p7a:__ZN9Transform37InitializeTransformHierarchyRecursiveER18TransformHierarchyRii
Hmi:__ZL80Decimal_t724701077_CustomAttributesCacheGenerator_Decimal_op_Implicit_m233687092P21CustomAttributesCache
Wug:_Graphic_get_useLegacyMeshGeneration_m1366444625
gmh:_ServicePointManager_get_CheckCertificateRevocationList_m4009410230
BSi:__ZL65InputField_t1631627530_CustomAttributesCacheGenerator_m_InputTypeP21CustomAttributesCache
ERk:__ZL24UnresolvedVirtualCall_78P12Il2CppObjectPK10MethodInfo
rYg:_ModulusRing_Pow_m1137250399
QCl:_fscanf
L7j:_InternalEnumerator_1_MoveNext_m2410670600_AdjustorThunk
YYa:__ZN17MeshRenderingData4InitEP4MeshS1_iP15SharedGfxBufferS3_
O9g:_CipherSuite_get_HashAlgorithmType_m3902365773
VGk:_InvokableCall_2_Find_m1763382885_gshared
Odg:_ReadOnlyCollection_1_System_Collections_ICollection_get_SyncRoot_m2779904122_gshared
p5k:__ZN15dense_hashtableINSt3__24pairIK10KeyWrapperINS1_IPK9FieldInfoP11Il2CppClassEEEjEES9_17ReflectionMapHashIS8_EN14dense_hash_mapIS9_jSD_19ReflectionMapEqualsIS8_ENS0_9allocatorISB_EEE9SelectKeyESG_SI_E12resize_deltaEjj
Qka:__ZN19ShaderPropertySheet38CopyTextureWithAuxiliaryPropertiesFromERKN9ShaderLab16FastPropertyNameERKS_
Hqh:_X509ChainStatus__ctor_m3628359961_AdjustorThunk
Dpb:__ZN14DirectorPlayer23VirtualRedirectTransferER19StreamedBinaryWriteILb0EE
aWi:__ZL77LayoutUtility_t4076838048_CustomAttributesCacheGenerator_U3CU3Ef__amU24cache4P21CustomAttributesCache
Ibf:_Evidence_get_HostEvidenceList_m2095478124
Esc:__Z57Register_UnityEngine_Transform_INTERNAL_set_localPositionv
jbh:_Context_Clear_m4000337070
NBa:__ZN13GfxDeviceGLES26SetRandomWriteTargetBufferEi15ComputeBufferID
nEk:_ShieldController_OnTriggerEnter2D_m718778480
Y2a:__ZN18BlockRangeInternal16PopLastNodeIndexEP10BlockRangeji
Vld:__ZN5physx6shdfnd4sortIPvNS0_4LessIS2_EENS0_19ReflectionAllocatorINS_2Cm5BlockIhLj256EEEEEEEvPT_jRKT0_RKT1_j
ztk:_TrackedReference_op_Equality_m3491334086
Nug:_FontUpdateTracker_UntrackText_m3827316510
wgb:__ZN18AssetBundleManager19RegisterAssetBundleEP11AssetBundle
Wce:__ZN5physx20InternalTriangleMesh7releaseEv
gUd:__ZN5physx6shdfnd5ArrayINS_16PxsCCDBlockArrayINS_13PxsCCDOverlapELi128EE9BlockInfoENS0_19ReflectionAllocatorIS5_EEE15growAndPushBackERKS5_
hcd:__ZNK5physx7NpShape8getFlagsEv
Zcc:__ZNK11ICallString6ToUTF8Ev
klk:_CaptureAssertion_get_Alternate_m2729005740
Bsl:_GC_number_stack_black_listed
nIl:__ZNKSt3__220__time_get_c_storageIwE3__cEv
F9h:_Default_SelectMethod_m3081239996
Jma:__ZN18UnityPropertySheet11UnityTexEnvC2Ev
Ivd:__ZNK5physx7NpCloth16getContactOffsetEv
whc:__ZNSt3__214__split_bufferIPN9BlobWrite11TypeContextENS_9allocatorIS3_EEE10push_frontERKS3_
lba:__ZN12FileAccessor4ReadEyyPvPy
ola:__ZN13dynamic_arrayI16ShaderKeywordSetLj4EE6insertEPS0_PKS0_S4_
HVb:__Z29Transfer_Blittable_ArrayFieldI18StreamedBinaryReadILb0EE11QuaternionfEvRT_R9ArrayInfoRK23StaticTransferFieldInfo
fhk:_MethodDictionary_IsOverridenKey_m3922224650
qxf:_SyncHashtable_Contains_m3042906549
_Dk:_RiftController_SetActive_m1457606296
dNc:__ZN14dense_hash_mapINSt3__24pairIPK10Collider2DS4_EE11Collision2DNS2_23ColliderPairHashFunctorENS0_8equal_toIS5_EE13stl_allocatorINS1_IKS5_S6_EEL18MemLabelIdentifier65ELi16EEE4findERSB_
sfc:__Z21GetSceneHierarchyPathPK6Object
N0f:_List_1_System_Collections_IList_set_Item_m4016273526_gshared
Jrc:__Z63Register_UnityEngine_RenderTexture_Internal_CreateRenderTexturev
$qh:_X509KeyUsageExtension_CopyFrom_m931530012
U5a:__ZN13RenderTexture9SetHeightEi
oFj:__ZN21InterfaceFuncInvoker0IP25RectTransform_t3349966182E6InvokeEjP11Il2CppClassPv
uFl:__ZNKSt3__27collateIcE7do_hashEPKcS3_
kph:_X509Chain_get_CertificateAuthorities_m3325663784
Iob:__ZN16LevelGameManager8TransferI24GenerateTypeTreeTransferEEvRT_
Odj:__Z102RuntimeInvoker_Int32_t2071877448_Int32_t2071877448_Il2CppObject_Il2CppObject_Il2CppObject_Il2CppObjectPK10MethodInfoPvPS2_
Pvj:_Color32__ctor_m1932627809_AdjustorThunk
aih:_SslStreamBase_Read_m1036897444
Hkl:__ZN15dense_hashtableI10KeyWrapperIP18Il2CppGenericClassES3_N6il2cpp8metadata22Il2CppGenericClassHashEN14dense_hash_setIS3_S6_NS5_25Il2CppGenericClassCompareENSt3__29allocatorIS3_EEE8IdentityES8_SB_E12resize_deltaEjj
NMe:__ZNSt3__24pairIKN4core12basic_stringIcNS1_20StringStorageDefaultIcEEEEN11UnityEngine7Connect19RemoteSettingsValueEEC2ERKSA_
Jll:__ZNK15dense_hashtableINSt3__24pairIK10KeyWrapperIP12Il2CppObjectEN6il2cpp2gc9CachedCCWEEES5_NS7_5utils11PointerHashIS3_EEN14dense_hash_mapIS5_S9_SD_NS0_8equal_toIS5_EENS0_9allocatorISA_EEE9SelectKeyESG_SI_E12test_deletedERK24dense_hashtable_iteratorISA_S5_SD_SK_SG_SI_E
CGj:_RectMask2D_PerformClipping_m1232012832
lhl:__ZN6il2cpp6icalls8mscorlib6System2IO6MonoIO17GetFileAttributesEP12Il2CppStringPi
$wh:_Transform_1_Invoke_m4020530914_gshared
pxe:_tt_cmap8_char_index
Lwk:_WWW_EscapeURL_m3653156031
xVh:_GUILayoutGroup_ResetCursor_m3160916532
zNb:__Z29Transfer_Blittable_ArrayFieldI14SafeBinaryReadjEvRT_R9ArrayInfoRK23StaticTransferFieldInfo
Etj:_Camera_FireOnPostRender_m94860165
JIb:__ZN23PreloadManagerOperationD0Ev
Re:_emscripten_set_keydown_callback
Nwf:_Enumerator_get_Value_m3684748062
rlb:__ZN19StreamedBinaryWriteILb0EE21TransferSTLStyleArrayINSt3__26vectorI17SortingLayerEntryNS2_9allocatorIS4_EEEEEEvRT_17TransferMetaFlags
GUj:_UInt32_Parse_m3371984903
tba:__ZN12FileAccessorC2Ev
xzk:_X509CertificateCollection_Compare_m1014334435
h7a:__ZN9Transform35SetLocalPositionWithoutNotificationERKN4math7_float3E
Mgd:__ZN5physx2Sc15ArticulationSim12applyImpulseERNS0_8BodyCoreERKNS_9PxcFsDataERKNS_6PxVec3ES9_
RCd:__ZNK5physx22NpParticleBaseTemplateINS_16PxParticleSystemENS_16NpParticleSystemEE7getTypeEv
kCj:_Playable_get_duration_m4155589845_AdjustorThunk
Yik:_PatternLinkStack_GetCurrent_m2994645935
JIc:__ZNK11b2GearJoint16GetReactionForceEf
Aig:_Comparison_1__ctor_m2929820459_gshared
d6e:__ZN16VirtFuncInvoker5IiP22ByteU5BU5D_t3397334013iiS1_iE6InvokeEjPvS1_iiS1_i
Hfk:_AsyncResult__ctor_m1183194429
ZI:__ZN4PPtrI13MonoBehaviourE8TransferI18StreamedBinaryReadILb0EEEEvRT_
hhk:_MethodDictionary_set_Item_m3475146889
eV:__ZN12AudioManager9SetVolumeEf
fgd:__ZNK5physx14NpArticulation26getInternalDriveIterationsEv
flj:__Z54RuntimeInvoker_Void_t1841601450_LabelFixup_t4090909514PK10MethodInfoPvPS2_
Bwi:__ZL62WellKnownObjectMode_t2630225581_CustomAttributesCacheGeneratorP21CustomAttributesCache
_Mj:_Toggle_PlayEffect_m3950629415
eSg:_MonoCustomAttrs_GetCustomAttribute_m100274015
kta:__ZN13RenderManager18UpdateAllRenderersEv
SI:__ZN18AnimatorController19TransferRuntimeDataI18StreamedBinaryReadILb0EEEEvRT_
pje:__ZThn24_N14PhysicsManagerD1Ev
IKe:__ZN22BaseUnityConnectClient30OnEnteringStatePausedOrStoppedEv
B8f:_Collection_1_System_Collections_ICollection_get_SyncRoot_m2157752542_gshared
TZk:__ZN13dynamic_arrayIPK10Il2CppTypeLj4EE6assignEPKS2_S5_
iz:__ZN7mecanim5human12HumanPoseAddERNS0_9HumanPoseERKS1_S4_
fej:__Z95RuntimeInvoker_Rect_t3681755626_Single_t2076509932_Single_t2076509932_Il2CppObject_Il2CppObjectPK10MethodInfoPvPS2_
iHk:_UnityAction_1__ctor_m2836997866_gshared
Eqj:_Animator_ResetTrigger_m865269317
nu:__Z14resize_trimmedINSt3__26vectorI24CompressedAnimationCurve13stl_allocatorIS2_L18MemLabelIdentifier25ELi16EEEEEvRT_j
LAi:__ZL64AssemblyLoadEventArgs_t4233815743_CustomAttributesCacheGeneratorP21CustomAttributesCache
E7f:_Collection_1_IsFixedSize_m218241296_gshared
M5b:__Z17BuildSmoothCornerjRP10LineVertexRKN4math8float4x4EPK15LineBuilderDataRKfSA_RK11ColorRGBA32
XCk:_PauseMenu_InitStyles_m3468426782
jfa:__ZN15dense_hashtableINSt3__24pairIKNS0_12basic_stringIcNS0_11char_traitsIcEE13stl_allocatorIcL18MemLabelIdentifier54ELi16EEEEP11AssetBundleEES8_11djb2_hash_tIS8_EN14dense_hash_mapIS8_SB_SE_NS0_8equal_toIS8_EENS0_9allocatorISC_EEE9SelectKeyESH_SJ_EC2ERKSM_j
Z6a:__Z24MergeTransformComponentsR9TransformS0_b
Mbd:__ZThn24_N5physx2Sc20ArticulationJointSimD0Ev
ksj:_DelegatePInvokeWrapper_AudioConfigurationChangeHandler_t3743753033
qOg:_MonoIO_get_PathSeparator_m2635828107
mMh:_TypeInfo_get_TypeName_m1722081275
$Hc:__ZN15b2CircleContactD0Ev
JTg:_MonoType_get_Name_m865859211
YMf:_CultureInfo__cctor_m2290268677
QYj:_ArrayReadOnlyList_1_System_Collections_IEnumerable_GetEnumerator_m3039869667_gshared
wff:_String_Trim_m3982520224
S5c:__ZN5physx14PxsAABBManager12createBPElemEv
hLh:_RemotingConfiguration__cctor_m2129988840
h5f:_Collection_1_Insert_m44548038_gshared
Isd:__ZThn12_N5physx7NpShape14onRefCountZeroEv
_Tc:__ZL26GeomMTDCallback_ConvexMeshRN5physx6PxVec3ERfRKNS_10PxGeometryERKNS_11PxTransformES5_S8_
xni:__ZL42Il2CppArray_CustomAttributesCacheGeneratorP21CustomAttributesCache
AKb:__ZNK13MonoBehaviour25GetNeedsPerObjectTypeTreeEv
lmd:__ZN5physx15NpActorTemplateINS_18PxArticulationLinkEE22setClientBehaviorFlagsENS_7PxFlagsINS_25PxActorClientBehaviorFlag4EnumEhEE
yk:_emscripten_glVertexAttribPointer
ODk:_PlayerController_ScoreLvl_m4019536602
pra:__ZN14PreloadManager26UpdatePreloadingSingleStepENS_21UpdatePreloadingFlagsEi
L$h:_Material__ctor_m1440882780
X8e:_SHA512Managed_Initialize_m891287980
j8d:__ZN18ScBeforeSolverTask11runInternalEv
gxa:__Z19InitializeGfxDevicej
Ybf:_SecurityException__ctor_m1484114982
ldk:_SinkProviderData_get_Children_m100594762
cAk:_X509Crl_GetHashName_m183504634
Ylf:_Array_GetValue_m1507415734
Xpc:__Z57Register_UnityEngine_RectTransform_INTERNAL_set_anchorMinv
VCg:_Object_MemberwiseClone_m2655589444
u8c:__ZL33GeomOverlapCallback_CapsuleConvexRKN5physx10PxGeometryERKNS_11PxTransformES2_S5_PNS_2Gu12TriggerCacheE
Lcg:_ReadOnlyCollection_1_System_Collections_IList_get_Item_m375043207_gshared
Ooa:__ZN6prcoreL25inner_stretch_i8_bilinearEPKNS_9InnerInfoE
VY:__ZN11UnityEngine15CloudWebService13WWWRestClient17GetResponseStatusEv
NLg:_DirectoryInfo_ToString_m4208086799
_uj:_Collision_get_transform_m4132935520
mji:_MonoMethod_get_IsGenericMethod_m4276550811
mxh:_Transform_1_BeginInvoke_m3826027984_gshared
gqj:_AnimationEvent_set_time_m2162176572
XAf:_Decimal_op_Implicit_m2149927308
uqk:_TextEditor_OnLostFocus_m1193078298
bde:__ZN5physx20InternalTriangleMesh9loadRTreeERNS_13PxInputStreamEj
OEd:__ZN5physx19NpRigidBodyTemplateINS_14PxRigidDynamicEE25setCMassLocalPoseInternalERKNS_11PxTransformE
TTf:_List_1_set_Capacity_m895816763_gshared
CFd:__ZNK5physx15NpActorTemplateINS_13PxRigidStaticEE14getOwnerClientEv
SNl:__ZNSt3__212basic_stringIwNS_11char_traitsIwEENS_9allocatorIwEEE9__grow_byEjjjjjj
Zml:__ZN6il2cpp6icalls8mscorlib6System9AppDomain22InternalGetProcessGuidEP12Il2CppString
LG:__ZNK25RuntimeAnimatorController30GetAnimationClipOverrideVectorEv
XAd:__ZN5physx2Sc18ParticleSystemCore16releaseParticlesEv
E_g:_KeyPairPersistence_get_UseMachineKeyStore_m560802076
AVd:__ZNK5physx2Gu29EPASupportMapPairRelativeImplINS0_8CapsuleVENS0_4BoxVEE6getDirEv
h2f:_Collection_1_CopyTo_m1840908033_gshared
A0c:__ZN5physx2Gu20intersectTriangleBoxERKNS_6shdfnd3aos5Vec3VES5_S5_S5_S5_
huh:_Enumerator_System_Collections_IDictionaryEnumerator_get_Entry_m345330700_AdjustorThunk
T1k:__ZNSt3__214__split_bufferIP9FieldInfoRNS_9allocatorIS2_EEEC2EjjS5_
Iig:_AbstractEventData__ctor_m3586111519
ERb:__Z18Transfer_BlittableI24GenerateTypeTreeTransferLb1EjEvRK29SerializationCommandArgumentsR31RuntimeSerializationCommandInfo
C7g:_MD2Managed_Padding_m410163267
uNj:_Toggle_UnityEngine_UI_ICanvasElement_get_transform_m4177274032
aob:__ZN11ColorRGBA328TransferI14SafeBinaryReadEEvRT_
hme:__ZN5physx6shdfnd5ArrayIPvNS0_19ReflectionAllocatorINS_24NpPtrTableStorageManager8PtrBlockILi4EEEEEE15growAndPushBackERKS2_
xJb:__ZN24RingBufferMemoryFileData4LockEPPv
s0f:_List_1_set_Capacity_m1734764639_gshared
U8j:_DefaultComparer__ctor_m76117625_gshared
Fua:__Z11IsHDRFormat13TextureFormat
usj:_Bounds__ctor_m1202659404_AdjustorThunk
n7h:_Rigidbody2D_INTERNAL_get_velocity_m3018296454
vg:_emscripten_glClearDepth
eqb:__ZN8Playable12SetPlayStateE9PlayState
roj:__Z70RuntimeInvoker_Boolean_t3825574718_Il2CppObject_BooleanU26_t3168250738PK10MethodInfoPvPS2_
Rvb:__ZN14SafeBinaryRead21TransferSTLStyleArrayINSt3__26vectorIN15QualitySettings14QualitySettingENS1_9allocatorIS4_EEEEEEvRT_17TransferMetaFlags
W0e:_Array_swap_TisVector2_t2243707579_m3359959735_gshared
koe:__Z13RegisterClassI12MeshColliderEvv
bMg:_File_OpenText_m4058508963
gvj:_Collision_get_frictionForceSum_m3438602686
i8i:__Z54RuntimeInvoker_Double_t4078015681_Interval_t2354235237PK10MethodInfoPvPS2_
vFb:__ZNSt3__26vectorINS_4pairIPKN5Unity4TypeE7Hash128EENS_9allocatorIS7_EEE8__appendEj
nMh:_WellKnownClientTypeEntry__ctor_m670594074
ORi:__ZL61FontData_t2614388407_CustomAttributesCacheGenerator_m_MinSizeP21CustomAttributesCache
hv:__ZN18StreamedBinaryReadILb1EE8TransferIN7mecanim13ValueConstantEEEvRT_PKc17TransferMetaFlags
yEf:_DateTime_System_IConvertible_ToSingle_m3927769066_AdjustorThunk
DBe:_cff_font_load
Huk:_Enumerator_Reset_m950879083
rfh:_RecordProtocol_SendRecord_m2977889250
WXd:__ZN5physx35solveContactPreBlock_ConcludeStaticEPKNS_23PxcSolverConstraintDescEjRNS_16PxcSolverContextE
aBk:_BatController_DisableCollision_m3478726040
Pua:__ZL22stbir__encode_scanlineP11stbir__infoiPvPfiii
rNh:_ObjectReader_ReadObjectInstance_m571922473
s8i:__Z84RuntimeInvoker_Void_t1841601450_Int32_t2071877448_Int32_t2071877448_SByte_t454417549PK10MethodInfoPvPS2_
Kpe:__ZN20QuadTreeNodeRenderer13StaticDestroyEPv
hU:__ZN14AudioBehaviourD2Ev
z5b:__ZN9Transform12CleanupClassEv
Mkj:__Z49RuntimeInvoker_Int32_t2071877448_Rect_t3681755626PK10MethodInfoPvPS2_
hbh:_ClientContext_set_ClientHelloProtocol_m2246603449
Iad:__ZN5physx6shdfnd5ArrayIPvNS0_15InlineAllocatorILj256ENS0_19ReflectionAllocatorINS_2Cm5BlockIS2_Lj32EEEEEEEE15growAndPushBackERKS2_
j7d:__ZN5physx18PxsSolverStartTask13setupDescTaskEv
mte:_UNITY_FT_Set_Pixel_Sizes
mBg:_U3CMouseDragOutsideRectU3Ec__Iterator1_MoveNext_m2845491958
k$b:__ZNSt3__26vectorIN9ShaderLab19SerializedSubShaderENS_9allocatorIS2_EEE26__swap_out_circular_bufferERNS_14__split_bufferIS2_RS4_EE
I6k:__ZNK15dense_hashtableINSt3__24pairIK10KeyWrapperINS1_IPK10MethodInfoP11Il2CppClassEEEjEES9_17ReflectionMapHashIS8_EN14dense_hash_mapIS9_jSD_19ReflectionMapEqualsIS8_ENS0_9allocatorISB_EEE9SelectKeyESG_SI_E10test_emptyEj
Av:__ZN11UnityEngine9Animation28AnimationClipBindingConstant8TransferI24GenerateTypeTreeTransferEEvRT_
jvi:__ZL59IChannelReceiver_t2788889625_CustomAttributesCacheGeneratorP21CustomAttributesCache
Ong:_StandaloneInputModule_IsModuleSupported_m623598506
ASc:__ZN5physx3Cct13BoxController6resizeEf
L0i:__Z31RuntimeInvoker_Byte_t3683104436PK10MethodInfoPvPS2_
eli:_ResourceReader_Close_m3256966401
MQh:_SByte_ToString_m4105923225_AdjustorThunk
_ib:_LZ4_compress_generic
KOh:_StreamingContext_t1417235061_marshal_pinvoke_cleanup
aNf:_CultureInfo_ConstructCurrentUICulture_m3363349599
QGi:__ZL87Component_t3819376471_CustomAttributesCacheGenerator_Component_GetComponent_m3720754210P21CustomAttributesCache
Wnf:__ZN21InterfaceFuncInvoker1IxP12Il2CppObjectE6InvokeEjP11Il2CppClassPvS1_
bTg:_MonoType_GetEvent_m4160342003
mGj:_RawImage_set_texture_m2400157626
P8d:__ZN5physx6shdfnd5ArrayINS_2Cm12DelegateTaskINS_2Sc5SceneEXadL_ZNS5_19updateCCDSinglePassEPNS_10PxBaseTaskEEEEENS0_19ReflectionAllocatorIS8_EEE8recreateEj
_Mk:_PrimeHelper_ToPrime_m1606935350_gshared
yDe:_Dual_Project
eIh:_EqualityComparer_1__ctor_m81618677_gshared
X4a:__ZNSt3__27__sort4IRNS_6__lessI11CulledLightS2_EEPS2_EEjT0_S6_S6_S6_T_
Ibl:__ZN6il2cpp2vm14TypeNameParser26ParseArrayModifierOptionalEv
NVg:_MSCompatUnicodeTable_Level3_m260824928
NBg:_LayoutElement_OnEnable_m3478706401
Sai:_ConstructorBuilder_get_CallingConvention_m443074051
afl:__ZN6il2cpp6icalls8mscorlib6System10Reflection8Assembly13get_code_baseEP24Il2CppReflectionAssemblyb
evh:_Enumerator_System_Collections_IDictionaryEnumerator_get_Entry_m487599172_gshared
Jmd:__ZN5physx34NpShapeGetScRigidObjectFromScbSLOWERKNS_3Scb5ShapeE
fZh:_GUIStyle_CalcMinMaxWidth_m2027503105
Fcj:__Z135RuntimeInvoker_RaycastHit2D_t4063908774_Vector2_t2243707579_Vector2_t2243707579_Single_t2076509932_Int32_t2071877448_Single_t2076509932PK10MethodInfoPvPS2_
Qaf:_X509Certificate_Reset_m1676863543
R_g:_KeyPairPersistence_Load_m1355205585
KIj:_ScrollRect_get_horizontalScrollbarVisibility_m4152068235
DIg:_Int32_ToString_m2960866144_AdjustorThunk
t_k:__ZN15dense_hashtableI10KeyWrapperIPK19Il2CppGenericMethodES4_N6il2cpp8metadata23Il2CppGenericMethodHashEN14dense_hash_setIS4_S7_NS6_26Il2CppGenericMethodCompareENSt3__29allocatorIS4_EEE8IdentityES9_SC_E12maybe_shrinkEv
APk:_Predicate_1_Invoke_m3539717340_gshared
Uvi:__ZL83MethodDictionary_t1742974787_CustomAttributesCacheGenerator_U3CU3Ef__switchU24map21P21CustomAttributesCache
Aed:__ZNK5physx21PxsBodyTransformVault12getTransformERKNS_11PxsBodyCoreE
XDk:_RiftController_Awake_m2610619319
Lkj:__Z57RuntimeInvoker_Int32_t2071877448_RaycastHit2D_t4063908774PK10MethodInfoPvPS2_
Cpl:__ZN6il2cpp6icalls8mscorlib6System11Environment15internalGetHomeEv
uZb:__ZN9ShaderLab26SerializedShaderDependencyC2ERKS0_
xyk:_PKCS12_get_Keys_m288413492
RZk:__ZN13dynamic_arrayIPK10Il2CppTypeLj4EE4backEv
ekb:__ZNK5Unity9Component7GetNameEv
Nmj:__Z49RuntimeInvoker_Slot_t2267560602_Int32_t2071877448PK10MethodInfoPvPS2_
w2k:__ZNSt3__214__split_bufferIN6il2cpp6icalls8mscorlib6System12PropertyPairERNS_9allocatorIS5_EEEC2EjjS8_
Zxa:__ZN13RenderTexture9SetActiveEPS_i11CubemapFaceij
cCi:__ZL79Convert_t2607082565_CustomAttributesCacheGenerator_Convert_ToUInt16_m2130758075P21CustomAttributesCache
vUc:__ZN44ConvexVsHeightfieldContactGenerationCallback7onEventEjPj
Jtg:__ZN18VirtActionInvoker1IP22GameObject_t1756533147E6InvokeEjPvS1_
_Ci:__ZL58IFormatProvider_t2849799027_CustomAttributesCacheGeneratorP21CustomAttributesCache
oKk:_ObjectPool_1_Get_m3724675538_gshared
j6:__Z27LogRepeatingStringWithFlagsRKNSt3__212basic_stringIcNS_11char_traitsIcEENS_9allocatorIcEEEE15LogMessageFlagsi
cab:__ZN13ScreenManagerD0Ev
wVa:_UNITY_png_set_error_fn
$o:FUNCTION_TABLE_diiii
PKl:__ZNKSt3__27codecvtIwc11__mbstate_tE5do_inERS1_PKcS5_RS5_PwS7_RS7_
NJc:__ZNK11b2RopeJoint16GetReactionForceEf
EE:__ZN7mecanim8skeleton26SkeletonPoseComputeGlobalQEPKNS0_8SkeletonEPKNS0_13SkeletonPoseTIN4math4trsXEEEPS7_ii
Zvg:_Graphic_UnregisterDirtyMaterialCallback_m819829270
rCc:__ZN8JSONRead21TransferSTLStyleArrayI13dynamic_arrayIfLj4EEEEvRT_18MemLabelIdentifier17TransferMetaFlags
aWd:__ZN5physx2Gu19_gjkRelativeRayCastINS0_9TriangleVENS0_8CapsuleVEEEbRT_RT0_RKNS_6shdfnd3aos15PsMatTransformVERKNS9_6FloatVERKNS9_5Vec3VESI_RSD_RSG_SK_f
awc:__ZN11IMGUIModule18MonoBehaviourDoGUIEiR14ObjectGUIStateN13MonoBehaviour13GUILayoutTypeEi21ScriptingMethodIl2Cpp4PPtrIS2_E
vWf:_List_1_GetEnumerator_m2672519407_gshared
bE:__ZN9BlobWrite8TransferI22OffsetPtrArrayTransferIiEEEvRT_PKc17TransferMetaFlags
yVg:_ContractionComparer_Compare_m314873025
X3f:_Collection_1_IsFixedSize_m1690655146_gshared
iQb:__Z18Transfer_BlittableI17RemapPPtrTransferLb1EjEvRK29SerializationCommandArgumentsR31RuntimeSerializationCommandInfo
f_h:_GUIUtility_EndGUIFromException_m2091524531
jfd:__ZN5physx6shdfnd5ArrayIPvNS0_15InlineAllocatorILj256ENS0_19ReflectionAllocatorINS_11NpAggregateEEEEEE15growAndPushBackERKS2_
VIg:_Int64_System_IConvertible_ToDouble_m638786774
dEd:__ZNK5physx14NpRigidDynamic21getMaxAngularVelocityEv
MQ:__ZN4FMOD6System7releaseEv
aSd:__ZN5physx6shdfnd8PoolBaseINS_2Sc18TriggerInteractionENS0_19ReflectionAllocatorIS3_EEE15disposeElementsEv
Rwf:_HashKeys_get_IsSynchronized_m4207641174
hTb:__Z18Transfer_BlittableI19StreamedBinaryWriteILb0EELb1E8BitFieldEvRK29SerializationCommandArgumentsR31RuntimeSerializationCommandInfo
gnj:__Z55RuntimeInvoker_TextEditOp_t3138797698_Int32_t2071877448PK10MethodInfoPvPS2_
GOf:_Enumerator_MoveNext_m3078170540_AdjustorThunk
mne:__ZN5physx28PxcContactCapsuleHeightFieldERKNS_2Gu13GeometryUnionES3_RKNS_11PxTransformES6_RKfRNS_10PxcNpCacheERNS0_13ContactBufferE
z9e:_SymmetricAlgorithm_get_Padding_m718051685
O4:__ZN26RecursivePlayableTraverser8TraverseER9FrameDataP8PlayableS3_P14DirectorPlayeriPvf
zag:_Collection_1_IsFixedSize_m1280898648_gshared
Vpb:__ZN15DirectorManager18ScheduleForRemovalEP18PlayableController
qUc:__ZL31PointInConvexPolygon2D_OutCodesPKfjffffRh
oCd:__ZN5physx22NpParticleBaseTemplateINS_16PxParticleSystemENS_16NpParticleSystemEE18setDynamicFrictionEf
Tnc:__Z22Mesh_CUSTOM_HasChannelP12Il2CppObject30InternalScriptingShaderChannel
aqa:__ZN6prcoreL17RemapGenericFloatI18TexFormatRGBAFloat17TexFormatRGBFloatEEvPKNS_9InnerInfoE
cqb:__ZN8Playable11SetDurationEd
Wxh:_Transform_1_BeginInvoke_m2296443620_gshared
wid:__ZN5physx2Sc21ArticulationJointCore21setInternalComplianceEf
$Ai:__ZL76Convert_t2607082565_CustomAttributesCacheGenerator_Convert_ToChar_m541258017P21CustomAttributesCache
Tge:__ZNK5physx6shdfnd10Foundation13getErrorLevelEv
OO:__ZN11AudioSource31UpdateEffectVirtualizationStateEb
TYh:_GUIUtility_Internal_GetHotControl_m2510727642
NO:__ZN12AudioManager29ShutdownReinitializeAndReloadEv
Exk:_NetscapeCertTypeExtension_Decode_m2210025005
FDi:__ZL59StringComparison_t2376310518_CustomAttributesCacheGeneratorP21CustomAttributesCache
Z9d:__ZN5physx2Cm12DelegateTaskINS_2Sc5SceneEXadL_ZNS3_15postNarrowPhaseEPNS_10PxBaseTaskEEEE11runInternalEv
noe:__Z20ConvertContactToMonoP9Collision
nsj:_AudioSource_PlayOneShot_m4118899740
rRc:__ZN17PhysicsMaterial2D7PRODUCEE18MemLabelIdentifier18ObjectCreationMode
c6h:_RectTransform_GetLocalCorners_m1836626405
wMh:_BaseFixupRecord_DoFixup_m1821597450
gMg:_FileLoadException__ctor_m1356374414
nah:_TlsStream_Reset_m1504601050
_5j:_InternalEnumerator_1_System_Collections_IEnumerator_get_Current_m1810411564_AdjustorThunk
Bhc:__Z29GetGlobalAllowNameConversionsv
pUc:__ZL17transformVerticesRfS_S_S_PfjPKN5physx6PxVec3EPKhRKNS1_7PxMat33E
rne:__ZNK5physx2Gu15HeightFieldUtil31getFaceIndexAtShapePointNoTest2Ejff
IU:__ZN9AudioClip27IsFormatSupportedByPlatformERKNSt3__212basic_stringIcNS0_11char_traitsIcEENS0_9allocatorIcEEEE
u3d:__ZN5physx6shdfnd5ArrayIPNS_14PxLightCpuTaskENS0_13TempAllocatorEE6resizeEjRKS3_
gDh:_Dictionary_2_System_Collections_ICollection_CopyTo_m3578539931_gshared
Soi:__ZL67Type_t_CustomAttributesCacheGenerator_Type_IsSubclassOf_m2450899481P21CustomAttributesCache
HS:__ZN11AudioSource23VirtualRedirectTransferER18StreamedBinaryReadILb0EE
_d:___syscall91
qgl:__ZN13dynamic_arrayIP12Il2CppObjectLj4EE20resize_uninitializedEjb
bTd:__ZNK5physx2Sq10AABBPruner5sweepERKNS0_9ShapeDataERKNS_6PxVec3ERfRNS0_14PrunerCallbackE
OSb:__ZN10RectOffset8TransferI19StreamedBinaryWriteILb0EEEEvRT_
z7:__ZL41AssemblyNameMatchesWithOrWithoutExtensionPKcS0_
Kib:__ZN21ArchiveStorageCreatorC2Ev
$Nd:__ZN5physx2Sc5Scene21fireCallBacksPostSyncEv
srj:_AssemblyIsEditorAssembly__ctor_m2639706522
vIa:__ZN14GfxContextGLES43AddRenderSurfaceToDeferredFBOInvalidateListEPK17RenderSurfaceGLES
yYk:__ZN15dense_hashtableINSt3__24pairIK10KeyWrapperINS0_12basic_stringIcNS0_11char_traitsIcEENS0_9allocatorIcEEEEEP11Il2CppClassEES9_N6il2cpp5utils11StringUtils12StringHasherIS8_EEN14dense_hash_mapIS9_SC_SI_NS0_8equal_toIS9_EENS6_ISD_EEE9SelectKeyESL_SM_EC2EjRKSI_RKSL_RKSO_
HUd:__ZN5physx17PxsCCDAdvanceTask11runInternalEv
yka:__ZN11NamedObject23VirtualRedirectTransferER14SafeBinaryRead
p_k:__ZN15dense_hashtableI10KeyWrapperIPK19Il2CppGenericMethodES4_N6il2cpp8metadata23Il2CppGenericMethodHashEN14dense_hash_setIS4_S7_NS6_26Il2CppGenericMethodCompareENSt3__29allocatorIS4_EEE8IdentityES9_SC_E15insert_noresizeERKS4_
$se:__ZNSt3__26vectorIN20TextRenderingPrivate8FontImpl13CharacterInfoE13stl_allocatorIS3_L18MemLabelIdentifier1ELi16EEE6insertENS_11__wrap_iterIPKS3_EERS9_
Cra:__ZN23PreloadManagerOperation6IsDoneEv
cgb:__ZN15SerializeTraitsINSt3__24pairI8UnityStrN11AssetBundle9AssetInfoEEEE8TransferI19StreamedBinaryWriteILb0EEEEvRS5_RT_
z2g:_X509Certificate_get_RawData_m3000055075
NVk:__ZNSt3__26vectorIPK10Il2CppTypeNS_9allocatorIS3_EEE21__push_back_slow_pathIRKS3_EEvOT_
Ebc:__Z33GetHasChangedDeprecatedSystemMaskv
rml:__ZN6il2cpp5utils11StringUtils11Utf16ToUtf8ERKNSt3__212basic_stringIDsNS2_11char_traitsIDsEENS2_9allocatorIDsEEEE
tLg:_MonoIO_GetException_m2577367044
I2c:__ZN5physx3Cct26CharacterControllerManagerD2Ev
Vuh:_Enumerator_VerifyState_m1165543189_AdjustorThunk
eFf:_DateTime_AddSeconds_m722082155_AdjustorThunk
euf:_SynchronizedArrayListWrapper_CopyTo_m956887031
g9j:_Comparer_1__ctor_m1202126643_gshared
Ava:__ZN21LightProbeProxyVolume18HasHardwareSupportEv
O0a:__ZN26LightProbeProxyVolumeCacheC2ER13BatchRendererR15RenderLoopStats
Joa:__ZN6prcoreL31inner_stretch_argb8888_bilinearEPKNS_9InnerInfoE
RWb:__Z18Transfer_BlittableI18StreamedBinaryReadILb1EELb1E8BitFieldEvRK29SerializationCommandArgumentsR31RuntimeSerializationCommandInfo
Fve:_UNITY_FT_Outline_Decompose
oQk:__ZL23UnresolvedVirtualCall_8P12Il2CppObjectS0_S0_PK10MethodInfo
vdh:_TlsClientCertificate_get_ClientCertificate_m3062440489
ybf:_StrongNamePublicKeyBlob_ToString_m3721281223
bOi:__ZL80UnityEvent_t408735097_CustomAttributesCacheGenerator_UnityEvent__ctor_m588741179P21CustomAttributesCache
Y$j:_InternalEnumerator_1_get_Current_m198513457_AdjustorThunk
iUd:__ZN5physx6shdfnd8internal8HashBaseINS0_4PairIKNS3_IPKNS_12PxsRigidCoreEPKNS_12PxsShapeCoreEEEPNS_11PxsCCDShapeEEESA_NS0_4HashISA_EENS1_11HashMapBaseISA_SD_SG_NS0_9AllocatorEE6GetKeyESI_Lb1EE15reserveInternalEj
U3j:_InternalEnumerator_1__ctor_m1240086835_AdjustorThunk
JY:__ZN11UnityEngine15CloudWebService10RestClientINS0_16WWWRestHeaderMapEED2Ev
Nkc:__Z31Display_CUSTOM_GetSystemExtImpl13Il2Cpp_IntPtrPiS0_
ptc:__Z58Register_UnityEngine_Object_Internal_CloneSingleWithParentv
vEh:_Dictionary_2_GetEnumerator_m2438316440_gshared
WFg:_TextInfo_ToUpper_m299550697
Awh:_ShimEnumerator_get_Entry_m2332479818_gshared
ROd:__ZN5physx2Sc5Scene21setDominanceGroupPairEhhRKNS_20PxDominanceGroupPairE
eig:_ReadOnlyCollection_1_System_Collections_IList_Contains_m4073811941_gshared
c3a:__ZN18ShadowMapJobHeaderD0Ev
avg:_Graphic_OnRectTransformDimensionsChange_m1610753363
ZCf:_Convert_ToUInt16_m3265369225
O:Math_exp
DSg:_MonoEnumInfo_get_Cache_m3551569711
Wp:FUNCTION_TABLE_iiifi
gnl:__ZN6il2cpp2os5posix13PosixAutoLockD2Ev
AQe:_Array_InternalArray__ICollection_Contains_TisVector3_t2243707580_m3625701788_gshared
Fxa:__ZNSt3__26vectorINS_4pairIyP17VertexDeclarationEENS_9allocatorIS4_EEE6insertENS_11__wrap_iterIPKS4_EERS9_
f4k:_il2cpp_object_get_virtual_method
BWb:__Z30TransferField_LinearCollectionI18StreamedBinaryReadILb1EEEvRK29SerializationCommandArgumentsR31RuntimeSerializationCommandInfo
yYa:__ZNK17MeshRenderingData30ExtractMeshBuffersAndDrawRangeEjiR11MeshBuffersR16DrawBuffersRangeb
ezh:_Enumerator_get_Current_m3774065880_gshared
lve:_UNITY_FT_Create_Class_sfnt_module_class
LMj:_Text_CalculateLayoutInputHorizontal_m1578553982
gJi:__ZL87Object_t1021602117_CustomAttributesCacheGenerator_Object_DestroyObject_m282495858____t1P21CustomAttributesCache
iol:__ZNSt3__218uninitialized_copyIPNS_4pairIK10KeyWrapperIP14Il2CppIUnknownEjEES8_EET0_T_SA_S9_
pGd:__ZN5physx7NpScene12loadFromDescERKNS_11PxSceneDescE
yHf:_Decimal_IsZero_m3557909184_AdjustorThunk
Drf:_Char_ToString_m1401375624
k5e:_MD5CryptoServiceProvider__cctor_m3309191799
z2:__ZNK10FileSystem16LastErrorMessageEv
a_f:__ZN21InterfaceFuncInvoker0I20UIVertex_t1204258818E6InvokeEjP11Il2CppClassPv
Ssh:_InterpreterFactory_get_NamesMapping_m3186583301
Cdk:_ConfigHandler_ReadCustomProviderData_m784203316
rQf:_Enumerator_System_Collections_IEnumerator_Reset_m3052395060_gshared
JOe:__ZN22UnityWebRequestManager10InitializeEv
tgb:__ZN17PersistentManager24GetTypeFromPathAndFileIDERKNSt3__212basic_stringIcNS0_11char_traitsIcEENS0_9allocatorIcEEEEx
H5g:_Kernel_DwordDivMod_m3728402123
vKb:__ZN13MonoBehaviour13AwakeFromLoadE17AwakeFromLoadMode
YMc:__ZN16CircleCollider2D14CreateInternalEP11Rigidbody2D
aQb:__ZL26Transfer_SimpleNativeClassI17RemapPPtrTransfer8GradientLb1EEvRK29SerializationCommandArgumentsR31RuntimeSerializationCommandInfo
Sbc:__ZN12CachedWriter9InitWriteER15CacheWriterBase
Ztc:__Z21UnsignedInt64ToStringy
eOj:_UTF7Decoder__ctor_m549434986
POd:__ZN5physx14PxsAABBManager15createAggregateEPvb
G6j:_InternalEnumerator_1_get_Current_m1025321669_AdjustorThunk
w2h:_Object_t1021602117_marshal_pinvoke
poc:__Z36MonoBehaviour_CUSTOM_InvokeRepeatingP12Il2CppObjectP12Il2CppStringff
Ewk:_WaitForSecondsRealtime_get_keepWaiting_m741039114
Ssc:__Z66Register_UnityEngine_Transform_INTERNAL_CALL_InverseTransformPointv
u1j:_InternalEnumerator_1_MoveNext_m2720582493_gshared
CUf:_List_1_IndexOf_m1434084853_gshared
jb:invoke_iiiiifiiiif
yql:__ZN15dense_hashtableINSt3__24pairIK10KeyWrapperIPK19Il2CppGenericMethodEP10MethodInfoEES6_N6il2cpp8metadata23Il2CppGenericMethodHashEN14dense_hash_mapIS6_S9_SD_NSC_26Il2CppGenericMethodCompareENS0_9allocatorISA_EEE9SelectKeyESF_SH_E5clearEv
Mrh:_Group__ctor_m4103922028
HVa:__ZN6Camera26ClearIntermediateRenderersEj
L0k:__ZNSt3__214__split_bufferI6pollfdRNS_9allocatorIS1_EEEC2EjjS4_
ZUa:_UNITY_png_write_pCAL
f_l:_glLinkProgram__wrapper
opa:__ZN6prcoreL12RemapGenericI17TexFormatARGB888815TexFormatBGR888EEvPKNS_9InnerInfoE
Hnf:_BitConverter_ToUInt16_m2715119381
q5e:_MD5CryptoServiceProvider_ProcessFinalBlock_m1052610785
uuf:_BitArray_Set_m2878881714
TTk:__ZL25UnresolvedVirtualCall_201P12Il2CppObjectPK10MethodInfo
U8f:_Collection_1_get_Item_m4215988522_gshared
Dsd:__ZN5physx7NpShape8requiresERNS_23PxProcessPxBaseCallbackE
Yfl:__ZN6il2cpp6icalls8mscorlib6System13Globalization11CultureInfo35construct_internal_locale_from_nameEP17Il2CppCultureInfoP12Il2CppString
lZi:__Z58RuntimeInvoker_Il2CppObject_Int32_t2071877448_Il2CppObjectPK10MethodInfoPvPS2_
b4f:__ZN18VirtActionInvoker2Ii40CustomAttributeTypedArgument_t1498197914E6InvokeEjPviS0_
hRb:__ZL22Transfer_ManagedObjectI24GenerateTypeTreeTransferLb1EEvRK29SerializationCommandArgumentsR31RuntimeSerializationCommandInfo
vJ:__ZN25RuntimeAnimatorController8TransferI19StreamedBinaryWriteILb0EEEEvRT_
B$j:_InternalEnumerator_1_Dispose_m1132415659_AdjustorThunk
WSk:__ZL25UnresolvedVirtualCall_150P12Il2CppObject38CustomAttributeNamedArgument_t94157543PK10MethodInfo
dui:__ZL55COMException_t1790481504_CustomAttributesCacheGeneratorP21CustomAttributesCache
lZg:_ASN1_get_Count_m404940548
Xek:_ContextAttribute_Equals_m53324298
qAg:_InputField_MoveLeft_m688575903
Jk:_emscripten_set_main_loop_timing
Okc:__Z34Display_CUSTOM_GetRenderingExtImpl13Il2Cpp_IntPtrPiS0_
oZk:__ZN15dense_hashtableINSt3__24pairIK10KeyWrapperI13dynamic_arrayIPK10Il2CppTypeLj4EEEPFvvEEES8_N6il2cpp8metadata19Il2CppSignatureHashEN14dense_hash_mapIS8_SB_SF_NSE_22Il2CppSignatureCompareENS0_9allocatorISC_EEE9SelectKeyESH_SJ_E12resize_deltaEjj
ZXj:_WeakReference_AllocateHandle_m1783929473
tid:__ZN5physx2Sc21ArticulationJointCore22setTangentialStiffnessEf
e$d:__ZNK5physx20SingleAABBUpdateTask7getNameEv
x8a:__ZN14ImageReference10FlipImageYEv
Dxj:_DebugLogHandler_LogFormat_m177245518
qJl:__ZNKSt3__210moneypunctIwLb0EE11do_groupingEv
emb:__Z32TransferEnumWithNameForceIntSizeI14SafeBinaryRead13TargetEyeMaskEvRT_RT0_PKc17TransferMetaFlags
Vvc:__Z14GetDefaultSkini
cNf:_CultureInfo_get_Name_m3316229893
WEf:_DateTime_get_Ticks_m310281298_AdjustorThunk
hM:__ZN4FMOD3DSP9setBypassEb
bag:_Collection_1_System_Collections_IList_get_Item_m287847793_gshared
Yeb:__Z19NormalizeWheelInputf
yrh:_CaptureCollection_CopyTo_m1982767892
Xbb:__Z29StdTemplateConversionFunctionIsaEbPvR14SafeBinaryRead
IQe:_Array_InternalArray__ICollection_Remove_TisLink_t865133271_m1984184141_gshared
ECc:__Z29Transfer_Blittable_ArrayFieldI8JSONReadhEvRT_R9ArrayInfoRK23StaticTransferFieldInfo
uCg:_LayoutRebuilder_IsDestroyed_m3442208294
rfc:__ZN11MonoManager25GetImageFromAssemblyIndexEi
sTh:_GUIContent_get_text_m2984350578
cxd:__ZN5physx2Sc9ClothCore17addCollisionPlaneERKNS_21PxClothCollisionPlaneE
JXi:__Z123RuntimeInvoker_Void_t1841601450_Int32U26_t455636984_Il2CppObject_Il2CppObject_BooleanU26_t3168250738_BooleanU26_t3168250738PK10MethodInfoPvPS2_
ESa:__ZZ23InitPlayerLoopCallbacksvEN43PostLateUpdateClearImmediateRenderersstruct7ForwardEv
dFc:__Z18Transfer_BlittableI9JSONWriteLb1EtEvRK29SerializationCommandArgumentsR31RuntimeSerializationCommandInfo
gPi:__ZL110ExecuteEvents_t1693084770_CustomAttributesCacheGenerator_ExecuteEvents_U3Cs_HandlerListPoolU3Em__0_m2903690915P21CustomAttributesCache
hMg:_FileLoadException__ctor_m918124939
$k:___syscall85
oce:__ZNK5physx13PxHeightField8isKindOfEPKc
Rrf:__ZN18VirtActionInvoker1IP12Il2CppObjectE6InvokeEjPvS1_
rZa:__ZNSt3__26__sortIRPFbP10GUIElementS2_EPS2_EEvT0_S7_T_
p6g:_SequentialSearchPrimeGeneratorBase_GenerateSearchBase_m2930465198
dte:__Z14ValidateFormatR13dynamic_arrayIN20TextRenderingPrivate16TextFormatChangeELj4EE
FS:__ZNK11AudioSource26GetTypeInfoVirtualInternalEv
Xih:__ZN23InterfaceActionInvoker2IP12Il2CppObjectS1_E6InvokeEjP11Il2CppClassPvS1_S1_
CVk:__ZN6il2cpp2vmL21SetupInterfacesLockedEP11Il2CppClassRKNS_2os12FastAutoLockE
Dyd:__ZNK5physx15NpActorTemplateINS_15PxParticleFluidEE12getAggregateEv
R9d:__ZNK5physx2Sc18ParticleSystemCore16getInternalFlagsEv
mrh:_Capture__ctor_m885749277
jwh:_Enumerator_MoveNext_m2619008060_AdjustorThunk
oyg:_SubmitEvent__ctor_m222860306
n1c:__ZN16ControllerFilter9preFilterERKN5physx12PxFilterDataEPKNS0_7PxShapeEPKNS0_12PxRigidActorERNS0_7PxFlagsINS0_9PxHitFlag4EnumEtEE
XX:__ZN11UnityEngine15CloudWebService14DataDispatcher15SetupWebRequestEv
$3i:__Z94RuntimeInvoker_Int32_t2071877448_Il2CppObject_Int32_t2071877448_Il2CppObject_Int32_t2071877448PK10MethodInfoPvPS2_
wQg:_TextWriter__cctor_m4047845042
D5b:__ZN13TrailRenderer26RendererCullingOutputReadyEPP12BaseRendererjPK6CameraRK10Matrix4x4f
Qfh:_ReceiveRecordAsyncResult_get_Record_m1336421357
GLe:__ZN11UnityEngine15PlatformWrapper13GetShaderCapsEv
zUe:__ZN16VirtFuncInvoker2IbP12Il2CppObjectS1_E6InvokeEjPvS1_S1_
a_d:__ZN16MBPOS_TmpBuffers16allocateSleepingEjj
YAi:__ZL76Convert_t2607082565_CustomAttributesCacheGenerator_Convert_ToByte_m509311047P21CustomAttributesCache
OTh:_GUILayoutGroup_GetNext_m1899084055
Iyg:_InputField_CaretBlink_m3960486606
Mk:_emscripten_glGetProgramiv
gRb:__Z65EmitSerializationCommandsForLinearCollectionOfManagedObjectsFieldI24GenerateTypeTreeTransferEvRK23TransferArrayField_InfoR20SerializationCommandR32SerializationCommandQueueBuilderRP20AllowNameConversions
sek:__ZN23InterfaceActionInvoker3IP12Il2CppObjectbbE6InvokeEjP11Il2CppClassPvS1_bb
p$g:_SmallXmlParser_ReadCharacters_m1966365555
yhh:_InternalAsyncResult_get_CompletedWithError_m3993955322
N9b:__ZN21FixedBehaviourManager6UpdateEv
vdc:__ZN9Transform9SetParentEPS_NS_15SetParentOptionE
cdg:_ReadOnlyCollection_1_System_Collections_IList_Add_m527174473_gshared
ZOj:_EventWaitHandle__ctor_m106135182
hse:__ZNK20TextRenderingPrivate7FontRefltERKS0_
Rsa:__ZN19RuntimeSceneManager24BeginIntegrateMainThreadEP10UnityScene
q9i:__Z42RuntimeInvoker_RuntimePlatform_t1869584967PK10MethodInfoPvPS2_
ggd:__ZN5physx14NpArticulation26setExternalDriveIterationsEj
TUc:__ZN16RayRTreeCallbackILi0ELb0EED0Ev
T8i:__Z80RuntimeInvoker_Void_t1841601450_Il2CppObject_Int32_t2071877448_Int16_t4041245914PK10MethodInfoPvPS2_
y3d:__ZN5physx20PxsParticleSystemSim23scheduleCollisionUpdateERNS_10PxBaseTaskE
Hrl:__ZNSt3__2plIcNS_11char_traitsIcEENS_9allocatorIcEEEENS_12basic_stringIT_T0_T1_EERKS9_S6_
t2i:__Z53RuntimeInvoker_MonoEventInfo_t2190036573_Il2CppObjectPK10MethodInfoPvPS2_
nRg:_LocalDataStoreSlot__cctor_m1192669356
Q_b:__ZN9ShaderLab20SerializedSubProgramaSERKS0_
xPl:_roundf
ihf:_String_CreateString_m2556700934
olb:__ZN18StreamedBinaryReadILb0EE21TransferSTLStyleArrayINSt3__26vectorI17SortingLayerEntryNS2_9allocatorIS4_EEEEEEvRT_17TransferMetaFlags
uKi:__ZL80Physics_t634932869_CustomAttributesCacheGenerator_Physics_RaycastAll_m3650851272P21CustomAttributesCache
d4c:__ZN5physx15PxBoxControllerD0Ev
Jx:__ZN8Animator15SetPrepareStageEv
LWi:__ZL154U3CPostScoresU3Ec__Iterator0_t4288152768_CustomAttributesCacheGenerator_U3CPostScoresU3Ec__Iterator0_System_Collections_IEnumerator_get_Current_m449712249P21CustomAttributesCache
wLj:_Slider_get_axis_m162140813
mii:_MonoEventInfo_t2190036573_marshal_pinvoke
DVk:__ZN6il2cpp2vmL24SetupTypeHierarchyLockedEP11Il2CppClassRKNS_2os12FastAutoLockE
S5k:__ZN15dense_hashtableINSt3__24pairIK10KeyWrapperIPK10Il2CppTypeEjEES6_N6il2cpp8metadata14Il2CppTypeHashEN14dense_hash_mapIS6_jSB_NSA_17Il2CppTypeCompareENS0_9allocatorIS8_EEE9SelectKeyESD_SF_E4findERS7_
a1a:__Z20CalculateLightMatrixRK15SharedLightDataP10Matrix4x4f
SJj:_ScrollRect_SetLayoutHorizontal_m3486408020
Dse:_destroy_face
IMk:_GenericEqualityComparer_1_GetHashCode_m116190842_gshared
KTh:_GUIWordWrapSizer__ctor_m201432832
Qri:__ZL55StreamWriter_t3858580635_CustomAttributesCacheGeneratorP21CustomAttributesCache
B4c:__ZN5physx19PxAllocatorCallbackD2Ev
jwl:__ZN6il2cpp6icalls8mscorlib6System8Security12Cryptography24RNGCryptoServiceProvider13RngInitializeEP11Il2CppArray
O_f:_List_1_System_Collections_ICollection_get_IsSynchronized_m227393674_gshared
llh:_IPAddress__cctor_m3624830012
QBd:__ZNK5physx15NpActorTemplateINS_16PxParticleSystemEE17getDominanceGroupEv
zT:__ZN20SoundChannelInstance7setMuteEb
oLj:_Slider_Rebuild_m3442875945
qpb:__ZN4PPtrI5LightE8TransferI19StreamedBinaryWriteILb0EEEEvRT_
B2c:__ZN5physx3Cct26CharacterControllerManager21createObstacleContextEv
aLi:__ZL115AnimatorStateInfo_t2577870592_CustomAttributesCacheGenerator_AnimatorStateInfo_t2577870592____nameHash_PropertyInfoP21CustomAttributesCache
slc:__Z49Register_UnityEngine_RectOffset_INTERNAL_CALL_Addv
fnh:_AsnEncodedData_EnhancedKeyUsageExtension_m1452131166
SIl:__ZNSt3__210moneypunctIcLb0EED2Ev
ETi:__ZL69Scrollbar_t3248359358_CustomAttributesCacheGenerator_m_OnValueChangedP21CustomAttributesCache
wXb:__Z19TransferField_ArrayI18StreamedBinaryReadILb1EE27Converter_SimpleNativeClassI17AnimationCurveTplIfEEEvRK23StaticTransferFieldInfoR31RuntimeSerializationCommandInfoRT0_
ANf:_KeyValuePair_2__ctor_m3201181706_gshared
FQc:__ZN7b2World18SetContactListenerEP17b2ContactListener
jBd:__ZN5physx15NpActorTemplateINS_15PxParticleFluidEE7releaseEv
Trh:_GroupCollection_get_IsSynchronized_m1100663675
DEa:__ZN18GfxFramebufferGLES22MakeCurrentFramebufferENS_7BuiltinE
fwl:__ZN6il2cpp2vm12MarshalAlloc4FreeEPv
ssh:_Interpreter_Close_m1500459069
BId:__ZN5physx6shdfnd5ArrayIPNS_2Sc19ShapeInstancePairLLENS0_19ReflectionAllocatorIS4_EEE15growAndPushBackERKS4_
$Wf:_List_1_System_Collections_ICollection_get_SyncRoot_m690028787_gshared
tHb:__ZN30RuntimeInitializeOnLoadManager23VirtualRedirectTransferER18StreamedBinaryReadILb1EE
Jja:__ZN12CachedReader4ReadEPvj
lZd:__ZN5physx21MBPPostUpdateWorkTaskD0Ev
hAe:_cf2_blues_init
ukd:__ZN5physx2Sc8BodyCore24clearSpatialAccelerationEbb
a0j:_InternalEnumerator_1_System_Collections_IEnumerator_get_Current_m3600601141_gshared
l8e:_SHA1Internal_HashFinal_m3188468925
awk:_Vector3_op_Inequality_m799191452
Kdl:__ZN30dense_hashtable_const_iteratorINSt3__24pairIK10KeyWrapperIP11Il2CppClassES4_EES5_N6il2cpp8metadata16SZArrayClassHashEN14dense_hash_mapIS5_S4_SA_NS9_19SZArrayClassCompareENS0_9allocatorIS7_EEE9SelectKeyESC_SE_E30advance_past_empty_and_deletedEv
d1a:__Z24CalculateLightShadowFadeRK6CamerafffR8Vector4f
F7:__ZN19RuntimeSceneManagerD2Ev
XDi:__ZL55HeaderHandler_t324204131_CustomAttributesCacheGeneratorP21CustomAttributesCache
Ick:_ChannelData_get_CustomProperties_m1470957369
Z5k:__ZNK15dense_hashtableINSt3__24pairIK10KeyWrapperIPK10Il2CppTypeEjEES6_N6il2cpp8metadata14Il2CppTypeHashEN14dense_hash_mapIS6_jSB_NSA_17Il2CppTypeCompareENS0_9allocatorIS8_EEE9SelectKeyESD_SF_E12test_deletedEj
Ioa:__ZN6prcore17GetIntegerBlitterE13TextureFormatS0_N14ImageReference8BlitModeE
uId:__ZN5physx10PxsContext20createContactManagerERKNS_24PxvManagerDescRigidRigidEPNS_18PxsMaterialManagerE
qLc:__ZN13BoxCollider2DD0Ev
svh:_Enumerator_VerifyState_m3173176371_AdjustorThunk
HGd:__ZN5physx2Cm12DelegateTaskINS_7NpSceneEXadL_ZNS2_12executeSolveEPNS_10PxBaseTaskEEEED0Ev
AVc:__ZN5physx2GuL18gPCMHullPrefetchCBEjPKNS_6PxVec3E
pad:__ZN5physx2Sc5Scene31removeActiveBreakableConstraintEPNS0_13ConstraintSimE
IJg:_Int64_ToString_m1275187741
okh:_TypeConverterAttribute__cctor_m506796812
Yif:_Encoding_get_IsReadOnly_m3729101432
Ahc:__ZN9BlobWrite14ReduceCopyImplERK14ReduceCopyDataj
AXj:_ValueType_t3507792607_marshal_pinvoke_back
m9j:_Comparer_1_System_Collections_IComparer_Compare_m1790257529_gshared
Uoj:__Z37RuntimeInvoker_Enumerator_t3220004478PK10MethodInfoPvPS2_
phi:_MethodInfo_get_ContainsGenericParameters_m572340060
dKc:__ZNK12b2WheelJoint10GetAnchorAEv
SMd:__ZN5physx6shdfnd5ArrayINS_12PxActorShapeENS0_19ReflectionAllocatorIS2_EEE15growAndPushBackERKS2_
WPa:__ZN25MultiBlocksMemoryFileData17AdjustBlocksCountEj
MCk:_LobsterProjectile_OnTriggerEnter2D_m717516755
_ga:__ZNK22BuiltinResourceManager11GetResourceEPKN5Unity4TypeERKNSt3__212basic_stringIcNS4_11char_traitsIcEENS4_9allocatorIcEEEE
OEb:__ZNK11TimeManager26GetTypeInfoVirtualInternalEv
obh:_TlsClientHello__ctor_m1699671541
gEh:_Dictionary_2_pick_value_m1594475014_gshared
Gqe:__ZN13TextRendering4Font8TransferI24GenerateTypeTreeTransferEEvRT_
iea:__ZN17CommonStringTableC2Ev
qek:_Context_NotifyGlobalDynamicSinks_m2916447645
Dkc:__Z27CullingGroup_CUSTOM_DisposeP12Il2CppObject
Z3h:_Random_Range_m2884721203
Nfl:__ZN6il2cpp6icalls8mscorlib6SystemL23CheckWideningConversionEjjj
llj:__Z48RuntimeInvoker_Void_t1841601450_Mark_t2724874473PK10MethodInfoPvPS2_
bVh:_GUILayoutEntry_ApplyStyleSettings_m371609721
vn:FUNCTION_TABLE_fiiffffiiiii
dpd:__ZN5physx2Sc14ConstraintCore8setFlagsENS_7PxFlagsINS_16PxConstraintFlag4EnumEtEE
t7f:_Collection_1_Remove_m1798559666_gshared
kn:_glStencilMask
Hnl:__ZN6il2cpp2os10ThreadImpl16GetCurrentThreadEv
ibe:__ZNK5physx2Sc15ClothFabricCore20getNbParticleIndicesEv
_eb:__ZN15GUIEventManager10QueueEventERK10InputEvent
Zuh:_Enumerator_System_Collections_IEnumerator_get_Current_m2010873149_gshared
Ssg:_Resources_t2975512894_marshal_pinvoke_cleanup
hqj:_AnimationEvent_get_messageOptions_m3547411650
Xoi:__ZL88Type_t_CustomAttributesCacheGenerator_Type_MakeGenericType_m2765875033____typeArguments0P21CustomAttributesCache
CUi:__ZL74SpriteState_t1353336012_CustomAttributesCacheGenerator_m_HighlightedSpriteP21CustomAttributesCache
OKh:_RealProxy__ctor_m2505535530
Otl:_GC_push_conditional_with_exclusions
qVj:_UInt32_System_IConvertible_ToUInt16_m2798641702_AdjustorThunk
VMh:_BinaryFormatter_get_DefaultSurrogateSelector_m219714691
mie:__ZN8Collider23VirtualRedirectTransferER18StreamedBinaryReadILb1EE
vz:__ZN21AnimationPosePlayableD0Ev
BY:__ZN11UnityEngine15CloudWebService10RestClientINS0_16WWWRestHeaderMapEE6SetUrlERK8UnityStr
kTd:__ZN5physx2Sq8AABBTree11shiftOriginERKNS_6PxVec3E
ubi:_ILGenerator_label_fixup_m1325994348
Q7g:_MD4Managed_Encode_m2097839378
$9f:_Collection_1_System_Collections_IList_get_IsFixedSize_m3252091801_gshared
qjj:__Z57RuntimeInvoker_Boolean_t3825574718_LabelFixup_t4090909514PK10MethodInfoPvPS2_
_rg:_FloatTween_get_ignoreTimeScale_m4161298485_AdjustorThunk
Prc:__Z44Register_UnityEngine_RenderTexture_set_depthv
Tki:__ZN16VirtFuncInvoker0IP18Stream_t3255436806E6InvokeEjPv
Veg:_ReadOnlyCollection_1_System_Collections_IList_get_IsFixedSize_m993752291_gshared
nCk:_IntroMenu_mainMenu_m847070236
H9c:__ZN5physx2Sc7BodySim6wakeUpEv
xK:__ZN11UnityEngine9Animation28GenericAnimationBindingCache25RegisterIAnimationBindingE11ClassIDTypeiP17IAnimationBinding
lwg:__ZN21InterfaceFuncInvoker1IP19Graphic_t2426225576iE6InvokeEjP11Il2CppClassPvi
tWg:_SimpleCollator_GetSortKey_m2188419329
kId:__ZN5physx6shdfnd8PoolBaseINS_2Gu30LargePersistentContactManifoldENS0_19ReflectionAllocatorIS3_EEE17releaseEmptySlabsEv
cad:__ZN5physx2Sc21ConstraintInteraction7destroyEv
uVi:__ZL56LayoutElement_t2808691390_CustomAttributesCacheGeneratorP21CustomAttributesCache
iHj:_Scrollbar_Set_m244028386
Ipc:__Z33Register_UnityEngine_Random_Rangev
jtc:__Z27Object_CUSTOM_DestroyObjectP12Il2CppObjectf
IWd:__ZN5physx13PxsSolverCoreD2Ev
jKl:__ZNSt3__211__money_putIwE8__formatEPwRS2_S3_jPKwS5_RKNS_5ctypeIwEEbRKNS_10money_base7patternEwwRKNS_12basic_stringIcNS_11char_traitsIcEENS_9allocatorIcEEEERKNSE_IwNSF_IwEENSH_IwEEEESQ_i
mdb:__ZN16MemoryFileSystem6ParentERK13FileEntryDataRNSt3__212basic_stringIcNS3_11char_traitsIcEENS3_9allocatorIcEEEE
kGb:__ZN14PlayerSettings8TransferI18StreamedBinaryReadILb0EEEEvRT_
c2k:__ZN6il2cpp6icalls8mscorlib6System8MonoType16GetMethodsByNameEP20Il2CppReflectionTypeP12Il2CppStringibS5_
Zzj:_AnimationPlayable_op_Implicit_m408821639
FYk:__ZN15dense_hashtableI10KeyWrapperIPK19Il2CppGenericMethodES4_N6il2cpp8metadata23Il2CppGenericMethodHashEN14dense_hash_setIS4_S7_NS6_26Il2CppGenericMethodCompareENSt3__29allocatorIS4_EEE8IdentityES9_SC_E4swapERSF_
QJd:__ZNK5physx7NpScene16getNbConstraintsEv
j2e:_LayoutGroup_SetProperty_TisAxis_t1431825778_m2174054513_gshared
Nvd:__ZN5physx7NpCloth14setWakeCounterEf
Vub:__ZN4PPtrI10GameObjectE8TransferI14SafeBinaryReadEEvRT_
TEj:_Mask_IsRaycastLocationValid_m62488857
YJi:__ZL105Physics_t634932869_CustomAttributesCacheGenerator_Physics_Raycast_m2036777053____queryTriggerInteraction5P21CustomAttributesCache
Kxa:__ZNSt3__27__sort3IRNS_4lessIN22BuiltinResourceManager8ResourceEEEPS3_EEjT0_S7_S7_T_
C8j:_DefaultComparer_Compare_m3472472212_gshared
IMg:_MonoIO_GetLength_m2812344043
Rye:_ps_hints_t2mask
wOi:__ZL68UsedByNativeCodeAttribute_t3212052468_CustomAttributesCacheGeneratorP21CustomAttributesCache
Kqk:_TextEditor_MoveTextEnd_m158107192
Vok:_SliderHandler_ThumbRect_m4193953892_AdjustorThunk
QBb:__ZN10BlendShape8TransferI19StreamedBinaryWriteILb0EEEEvRT_
Yia:__ZL4WalkRK16TypeTreeIteratorR12CachedReaderPib
zce:__ZNK5physx2Gu11HeightField17getReferenceCountEv
Buk:_Transform_IsChildOf_m10844547
PM:__Z32TransferEnumWithNameForceIntSizeI14SafeBinaryReadN10SampleClip8LoadTypeEEvRT_RT0_PKc17TransferMetaFlags
Bga:__Z19GetTimeSinceStartupv
Eka:__ZN7Texture23VirtualRedirectTransferER17RemapPPtrTransfer
udf:_SecurityFrame_get_Assembly_m2816566490
Lgi:_FieldInfo_GetPseudoCustomAttributes_m2500972355
p5c:__ZN5physx3Scb5Scene10getPxSceneEv
gEe:_TT_Load_Composite_Glyph
exk:_NetFxCoreExtensions_CreateDelegate_m2492743074
fTk:__ZL25UnresolvedVirtualCall_161P12Il2CppObject22UILineInfo_t3621277874S1_PK10MethodInfo
y9a:__Z33MultiplyMatrixArrayWithBase4x4REFPK10Matrix4x4fS1_S1_PS_j
YXi:__Z51RuntimeInvoker_Boolean_t3825574718_Int64_t909078037PK10MethodInfoPvPS2_
wmf:_Array_Sort_m2994254654
x0f:_List_1__ctor_m593058937_gshared
bTe:_Array_InternalArray__IEnumerable_GetEnumerator_TisColor32_t874517518_m2198639025_gshared
U2a:__ZN29RenderNodeQueuePrepareContextC2Ev
i0b:__ZN9ShaderLab20SerializedSubProgram16TextureParameter8TransferI24GenerateTypeTreeTransferEEvRT_
aQj:_Thread_set_Name_m1343706609
xyl:__ZN6il2cpp2os11MutexHandle4WaitEj
Egc:__ZL34GetComponentsImplementationRecurseILb1ELi1ELi1EEbR10GameObjectbRK17CompareParametersRK39GetComponentsImplementation_ReturnValue
wyl:__ZN6il2cpp2os11MutexHandle4WaitEv
_rf:_ArrayList_set_Capacity_m592558035
xqa:__ZN6prcoreL17RemapGenericFloatI15TexFormatRGHalf18TexFormatARGBFloatEEvPKNS_9InnerInfoE
HSg:_MonoEnumInfo_t2335995564_marshal_pinvoke_cleanup
zia:__ZNK13RenderTexture13GetDataHeightEv
UIg:_Int64_System_IConvertible_ToDecimal_m3390697048_AdjustorThunk
AVa:__ZN13RenderManager23AddRemoveCamerasDelayedEv
$Ua:_UNITY_png_write_pHYs
Era:__ZN23PreloadManagerOperation11GetPriorityEv
zLf:_Exception_get_InnerException_m3722561235
bRe:_Array_InternalArray__ICollection_Remove_TisILTokenInfo_t149559338_m1523907845_gshared
mZf:_List_1_GetEnumerator_m4053501645_gshared
YHb:__ZN30RuntimeInitializeOnLoadManager9ClassInfo8TransferI18StreamedBinaryReadILb1EEEEvRT_
Nhk:__ZN21InterfaceFuncInvoker4IP17Match_t3164245899P17Regex_t1803876613P8String_tiiE6InvokeEjP11Il2CppClassPvS3_S5_ii
qwf:_Hashtable_Rehash_m2877670513
Ggl:__ZN6il2cpp2vm8Liveness3EndEPv
T5a:__ZN13RenderTexture8SetWidthEi
EAg:_InputField_Insert_m1593238693
l5b:__ZNK28RectTransformPropertyBinding12SetPPtrValueERKN11UnityEngine9Animation10BoundCurveEi
dyh:_Transform_1_EndInvoke_m958090529_gshared
tUb:__Z18Transfer_BlittableI18StreamedBinaryReadILb0EELb0EfEvRK29SerializationCommandArgumentsR31RuntimeSerializationCommandInfo
bCb:__ZN10MeshFilterD0Ev
iEe:_UNITY_FT_GlyphLoader_CheckSubGlyphs
j4i:__Z132RuntimeInvoker_Int32_t2071877448_Il2CppObject_Int32_t2071877448_Int32_t2071877448_Il2CppObject_Int32_t2071877448_Int32U26_t455636984PK10MethodInfoPvPS2_
r0k:__ZN6il2cpp2vm21ThreadPoolCompartment20SpawnNewWorkerThreadEv
FWe:_Array_InternalArray__ICollection_Add_TisCustomAttributeTypedArgument_t1498197914_m3260005285_gshared
fxf:_SyncHashtable_GetObjectData_m3774367030
HIg:_Int32_ToString_m1128850770
oGg:_Guid_GetHashCode_m1401300871
aKk:_ListPool_1_U3Cs_ListPoolU3Em__0_m1243609651_gshared
pzc:__Z42Register_UnityEngine_GUIStyle_set_fontSizev
Zsi:__ZL61CallingConventions_t1097349142_CustomAttributesCacheGeneratorP21CustomAttributesCache
Mrd:__ZNK5physx9NpFactory11getNbShapesEv
jug:_FontData__ctor_m3822008992
$Xi:__Z140RuntimeInvoker_Boolean_t3825574718_Il2CppObject_Int32_t2071877448_Il2CppObject_SByte_t454417549_Int64U26_t763825331_ExceptionU26_t1467204777PK10MethodInfoPvPS2_
lQk:__ZL23UnresolvedVirtualCall_5P12Il2CppObjectsPK10MethodInfo
dG:__ZN4PPtrI6AvatarE8TransferI19StreamedBinaryWriteILb0EEEEvRT_
uhj:__Z42RuntimeInvoker_ScreenMatchMode_t1916789528PK10MethodInfoPvPS2_
k5:__ZN9ShaderLab16FastPropertyName4InitEPKc
MIc:__ZN11b2GearJointD0Ev
tDj:_GUI_Label_m2412846501
Xaa:__Z18PathToAbsolutePathRKNSt3__212basic_stringIcNS_11char_traitsIcEENS_9allocatorIcEEEE
T7k:__ZN15dense_hashtableINSt3__24pairIK10KeyWrapperINS1_IPK12PropertyInfoP11Il2CppClassEEEjEES9_17ReflectionMapHashIS8_EN14dense_hash_mapIS9_jSD_19ReflectionMapEqualsIS8_ENS0_9allocatorISB_EEE9SelectKeyESG_SI_E13clear_deletedER30dense_hashtable_const_iteratorISB_S9_SD_SK_SG_SI_E
x4b:__Z13RegisterClassIN2UI13RectTransformEEvv
RVg:_MSCompatUnicodeTable_ToWidthCompat_m2299599532
xUg:_NumberFormatter_get_IsFloatingSource_m2830957202
jBb:__ZN10VertexData8TransferI17RemapPPtrTransferEEvRT_
X5a:__ZN13RenderTexture9SetMipMapEb
wGl:__ZNKSt3__27num_getIwNS_19istreambuf_iteratorIwNS_11char_traitsIwEEEEE6do_getES4_S4_RNS_8ios_baseERjRl
AGl:__ZNKSt3__27num_getIwNS_19istreambuf_iteratorIwNS_11char_traitsIwEEEEE6do_getES4_S4_RNS_8ios_baseERjRm
SIj:_ScrollRect_set_verticalScrollbarSpacing_m2356851539
vGl:__ZNKSt3__27num_getIwNS_19istreambuf_iteratorIwNS_11char_traitsIwEEEEE6do_getES4_S4_RNS_8ios_baseERjRb
Upb:__Z18GetDirectorManagerv
EGl:__ZNKSt3__27num_getIwNS_19istreambuf_iteratorIwNS_11char_traitsIwEEEEE6do_getES4_S4_RNS_8ios_baseERjRe
eVg:_OperatingSystem_GetObjectData_m2276196875
ykb:__ZNK10TagManager26GetTypeInfoVirtualInternalEv
xGl:__ZNKSt3__27num_getIwNS_19istreambuf_iteratorIwNS_11char_traitsIwEEEEE6do_getES4_S4_RNS_8ios_baseERjRx
BGl:__ZNKSt3__27num_getIwNS_19istreambuf_iteratorIwNS_11char_traitsIwEEEEE6do_getES4_S4_RNS_8ios_baseERjRy
e7h:_ResourceRequest_t2560315377_marshal_pinvoke_back
qPi:__ZL92PointerEventData_t1599784723_CustomAttributesCacheGenerator_U3CpointerDragU3Ek__BackingFieldP21CustomAttributesCache
jsc:__Z38Transform_CUSTOM_INTERNAL_get_rotationP12Il2CppObjectP11Quaternionf
yGl:__ZNKSt3__27num_getIwNS_19istreambuf_iteratorIwNS_11char_traitsIwEEEEE6do_getES4_S4_RNS_8ios_baseERjRt
kcl:__ZNSt3__26vectorIN6il2cpp2vm17TypeNameParseInfoENS_9allocatorIS3_EEE8allocateEj
hPc:__ZN16b2StackAllocator4FreeEPv
_ti:__ZL66CriticalFinalizerObject_t1920899984_CustomAttributesCacheGeneratorP21CustomAttributesCache
VGa:__ZN7ApiGLES19UploadBufferSubDataEjN2gl12BufferTargetEllPKv
TTd:__ZN5physx2Sc5Scene17createClothSolverEv
Vef:_String_System_IConvertible_ToInt32_m1927223638
BRe:_Array_InternalArray__ICollection_Remove_TisContentType_t1028629049_m3085152315_gshared
Tzd:__ZNK5physx15PxsParticleData16getMaxParticlesVEv
rRh:_CryptographicException__ctor_m406825529
kH:__ZN7mecanim12statemachine20StateMachineConstant8TransferI14SafeBinaryReadEEvRT_
Ztj:_Canvas_set_sortingOrder_m2922819993
Wke:__ZThn116_N5physx7profile8ZoneImplINS_28PxProfileNameProviderForwardEE12removeClientERNS_19PxProfileZoneClientE
pZd:__ZN15MBP_PairManager17removeMarkedPairsEPK10MBP_ObjectPN5physx16PxsBroadPhaseMBPERK8BitArrayS8_
__k:__ZNSt3__26__treeINS_12__value_typeIP11Il2CppClassS3_EENS_19__map_value_compareIS3_S4_NS_4lessIS3_EELb1EEENS_9allocatorIS4_EEE25__emplace_unique_key_argsIS3_JNS_4pairIS3_S3_EEEEENSD_INS_15__tree_iteratorIS4_PNS_11__tree_nodeIS4_PvEEiEEbEERKT_DpOT0_
chf:_ASCIIEncoding__ctor_m4127831672
GOb:__Z19TransferField_ArrayI14SafeBinaryRead27Converter_SimpleNativeClassI8GUIStyleEEvRK23StaticTransferFieldInfoR31RuntimeSerializationCommandInfoRT0_
hKb:__ZN9TextAsset23VirtualRedirectTransferER19StreamedBinaryWriteILb0EE
nOj:_UTF8Encoding__ctor_m3336862259
VBk:_HazardCollision_OnTriggerEnter2D_m3106441549
gfj:__Z54RuntimeInvoker_Boolean_t3825574718_HitInfo_t1761367055PK10MethodInfoPvPS2_
Bph:_X509Chain_GetAuthorityKeyIdentifier_m2607407678
lwl:__ZN6il2cpp5utils10MemoryPoolC2Ev
fVd:__ZN5physx21PxcUnimplementedSweepERKNS_11PxsCCDShapeES2_PKNS_12PxsRigidBodyES5_RKNS_11PxTransformES8_S8_S8_fRNS_6PxVec3ESA_RNS_10PxcNpCacheERNS_18PxcNpThreadContextEf
jrd:__ZN5physx9NpPhysics33unregisterDeletionListenerObjectsERNS_18PxDeletionListenerEPKPKNS_6PxBaseEj
Lxd:__ZNK5physx2Sc9ClothCore22getAngularInertiaScaleEv
YHl:__ZNKSt3__28time_getIcNS_19istreambuf_iteratorIcNS_11char_traitsIcEEEEE13__get_weekdayERiRS4_S4_RjRKNS_5ctypeIcEE
nng:_RaycastResult_set_gameObject_m1138581891_AdjustorThunk
cal:__ZN14dense_hash_mapI10KeyWrapperINSt3__24pairIPK12PropertyInfoP11Il2CppClassEEEj17ReflectionMapHashIS8_E19ReflectionMapEqualsIS8_ENS1_9allocatorINS2_IKS9_jEEEEE15set_deleted_keyERSF_
Hsj:_Bounds_get_extents_m4077324178_AdjustorThunk
_$i:__Z117RuntimeInvoker_Int32_t2071877448_Il2CppObject_Il2CppObject_Int32_t2071877448_Int32_t2071877448_BooleanU26_t3168250738PK10MethodInfoPvPS2_
tec:__ZN12InputManager10GetAxisRawERKNSt3__212basic_stringIcNS0_11char_traitsIcEENS0_9allocatorIcEEEE
SJ:__ZN19StreamedBinaryWriteILb0EE21TransferSTLStyleArrayI22OffsetPtrArrayTransferIN7mecanim8skeleton19SkeletonMaskElementEEEEvRT_17TransferMetaFlags
Tid:__ZN5physx20NpRigidActorTemplateINS_18PxArticulationLinkEE12setActorFlagENS_11PxActorFlag4EnumEb
u1e:_Dictionary_2_Do_ICollectionCopyTo_TisKeyValuePair_2_t3716250094_m1740410536_gshared
rnl:__ZN6il2cpp2os10ThreadImplD2Ev
v0g:_RSAManaged_Dispose_m3018788098
eJc:__ZN12b2MouseJoint23InitVelocityConstraintsERK12b2SolverData
gEc:__ZN8Gradient8TransferI9JSONWriteEEvRT_
Mch:_Context_get_ReceivedConnectionEnd_m3369356276
nyk:_X509CertificateEnumerator_MoveNext_m1422952050
Mjh:_NameObjectCollectionBase_get_Count_m2353593692
Cdl:__ZN15dense_hashtableINSt3__24pairIK10KeyWrapperIP11Il2CppClassES4_EES5_N6il2cpp8metadata16SZArrayClassHashEN14dense_hash_mapIS5_S4_SA_NS9_19SZArrayClassCompareENS0_9allocatorIS7_EEE9SelectKeyESC_SE_E9copy_fromERKSH_j
$Qi:__ZL73U3COnFinishSubmitU3Ec__Iterator0_t99135383_CustomAttributesCacheGeneratorP21CustomAttributesCache
geb:__ZNK12TLSAllocatorI14StackAllocatorE22GetAllocatedMemorySizeEv
mx:__ZN7mecanim6memory16ChainedAllocator8AllocateEjj
kDf:_Convert_ToUInt32_m3394039268
vfc:__Z32GetSceneHierarchyPathDescriptivePK6Object
FAb:__ZNSt3__26vectorI7SubMesh13stl_allocatorIS1_L18MemLabelIdentifier16ELi16EEEC2ERKS5_
bT:__ZNK7WeakPtrI20SoundChannelInstanceE10SharedData9GetRawPtrEv
gOa:__ZN12HandlerChain4NameEv
qBk:_BoblinController_DestroySelf_m1005996901
yn:FUNCTION_TABLE_fiiiiiifiiiiiif
CEb:__ZNSt3__26vectorI9InputAxisNS_9allocatorIS1_EEE10deallocateEv
E6d:__ZN5physx37setupFinalizeSolverConstraintsCoulombERNS_13PxcNpWorkUnitERKNS_2Gu13ContactBufferERKNS_27PxcCorrelationBufferCoulombERKNS_11PxTransformESB_bPhRKNS_13PxcSolverBodyESF_RKNS_17PxcSolverBodyDataESI_ffjffff
kHg:_Int16_Equals_m3925135434_AdjustorThunk
IO:__ZN12AudioManager8TransferI18StreamedBinaryReadILb1EEEEvRT_
GJe:__Z44Register_UnityEngine_CanvasRenderer_get_cullv
Hyh:_Enumerator_Dispose_m2532362830_AdjustorThunk
Hqi:__ZL60IHashCodeProvider_t1980576455_CustomAttributesCacheGeneratorP21CustomAttributesCache
VWi:__ZL68PixelCamera2D_t2016158893_CustomAttributesCacheGenerator_pixelHeightP21CustomAttributesCache
wPf:_Enumerator_VerifyState_m1677639504_AdjustorThunk
xcb:__Z29StdTemplateConversionFunctionIbbEbPvR14SafeBinaryRead
yah:_CipherSuiteCollection_get_Item_m280627160
Uzf:_DateTime__ParseString_m2623687350
eKh:_SerializationInfoEnumerator_MoveNext_m1876990879
HRj:_TimeSpan_Duration_m4205681645
Q9a:__ZN14UnityWebStream24UpdateAllUnityWebStreamsEv
k4f:_Collection_1_System_Collections_IList_get_IsReadOnly_m2329986891_gshared
bH:__ZN15SerializeTraitsINSt3__24pairIj8UnityStrEEE8TransferI14SafeBinaryReadEEvRS3_RT_
jpi:__ZL60ObsoleteAttribute_t3878847927_CustomAttributesCacheGeneratorP21CustomAttributesCache
Gth:_CostDelegate_BeginInvoke_m1628968398
iYe:_Array_InternalArray__ICollection_CopyTo_TisRaycastHit2D_t4063908774_m3837098618_gshared
qYd:__ZN5physx31ComputeCreatedDeletedPairsListsEPKjS1_jRPNS_17PxcBroadPhasePairERjS5_S4_S5_S5_RNS_14SapPairManagerE
Osa:__ZN18LoadSceneOperation21MustCompleteNextFrameEv
pR:__ZNK12AudioManager16GetAudioListenerEv
sii:_MonoField_get_FieldType_m598011426
ufc:__ZNSt3__2plIcNS_11char_traitsIcEE13stl_allocatorIcL18MemLabelIdentifier1ELi16EEEENS_12basic_stringIT_T0_T1_EERKSA_SC_
j4f:_Collection_1_System_Collections_IList_get_IsFixedSize_m1624702704_gshared
egb:__ZN18AssetBundleManager30CollectPreloadDataDependenciesER4PPtrI11AssetBundleEbR13dynamic_arrayIiLj4EE
JGi:__ZL48Camera_t189460977_CustomAttributesCacheGeneratorP21CustomAttributesCache
Zlj:__Z73RuntimeInvoker_Void_t1841601450_Int32_t2071877448_RaycastResult_t21186376PK10MethodInfoPvPS2_
hfl:__ZNSt3__212basic_stringIcNS_11char_traitsIcEENS_9allocatorIcEEE6__initINS_11__wrap_iterIPcEEEENS_9enable_ifIXsr21__is_forward_iteratorIT_EE5valueEvE4typeESB_SB_
gLc:__ZNK11Rigidbody2D20GetAttachedCollidersER13dynamic_arrayIP10Collider2DLj4EE
s1d:__ZN5physx2Gu16pcmContactBoxBoxERKNS0_13GeometryUnionES3_RKNS_11PxTransformES6_RKfRNS0_5CacheERNS0_13ContactBufferE
Nzg:_InputField_OnDisable_m1865339380
nVj:_UInt32_System_IConvertible_ToType_m747769316
Ry:__ZN7mecanim9animation12GetHumanPoseERKNS0_18ClipMuscleConstantEPKNS0_10ValueDeltaERNS_5human9HumanPoseE
I7k:__ZN6il2cpp2vm10Reflection17GetPropertyObjectEP11Il2CppClassPK12PropertyInfo
rWl:_glDeleteVertexArrays__wrapper
ATb:__Z29Transfer_Blittable_ArrayFieldI19StreamedBinaryWriteILb0EEjEvRT_R9ArrayInfoRK23StaticTransferFieldInfo
n2:__Z13GetFileSystemv
qEh:_Dictionary_2_TryGetValue_m2001075715_gshared
Swa:__ZNK5Unity4Type21FindAllDerivedClassesER13dynamic_arrayIPKS0_Lj4EENS0_17TypeFilterOptionsE
wDb:__ZN14SafeBinaryRead8TransferIfEEvRT_PKc17TransferMetaFlags
RTb:__ZL12InvokeMethodI18StreamedBinaryReadILb0EEEvRK29SerializationCommandArgumentsR31RuntimeSerializationCommandInfo
QEg:_DaylightTime_get_Delta_m2316831491
qOc:__ZNSt3__27__sort5IR24RayHitsByDepthComparitorP12RaycastHit2DEEjT0_S5_S5_S5_S5_T_
xQe:_Array_InternalArray__ICollection_Contains_TisUILineInfo_t3621277874_m1175659630_gshared
XQj:_WaitHandle_WaitOne_m370363697
PPi:__ZL114PointerEventData_t1599784723_CustomAttributesCacheGenerator_PointerEventData_set_pointerCurrentRaycast_m2431897513P21CustomAttributesCache
Hrh:_FactoryCache_Lookup_m1681894361
uEl:__ZNSt3__215basic_streambufIcNS_11char_traitsIcEEED2Ev
yFf:_DateTime_Subtract_m698282245_AdjustorThunk
W8j:_DefaultComparer__ctor_m2470932885_gshared
Mde:__ZN5physx2Gu5RTree15exportExtraDataERNS_22PxSerializationContextE
Uja:__Z23scripting_gchandle_freej
GXb:__Z29Transfer_Blittable_ArrayFieldI18StreamedBinaryReadILb1EE5RectTIfEEvRT_R9ArrayInfoRK23StaticTransferFieldInfo
GCi:__ZL79Convert_t2607082565_CustomAttributesCacheGenerator_Convert_ToUInt64_m1896191125P21CustomAttributesCache
q6e:_RIPEMD160Managed_Initialize_m3365407578
ucc:__Z29GetTextureSizeAllowedMultiple13TextureFormat
iKl:__ZNSt3__211__money_putIwE13__gather_infoEbbRKNS_6localeERNS_10money_base7patternERwS8_RNS_12basic_stringIcNS_11char_traitsIcEENS_9allocatorIcEEEERNS9_IwNSA_IwEENSC_IwEEEESJ_Ri
klh:_IPAddress_HostToNetworkOrder_m1092199707
aTd:__ZNK5physx2Sq10AABBPruner7overlapERKNS0_9ShapeDataERNS0_14PrunerCallbackE
kSe:_SetPropertyUtility_SetStruct_TisSpriteState_t1353336012_m2898060836_gshared
abf:_SecurityAttribute__ctor_m3425755778
nac:__ZN21IntermediateRenderers3AddEP20IntermediateRenderer
Yob:__ZN14RenderSettings23VirtualRedirectTransferER18StreamedBinaryReadILb1EE
lId:__ZN5physx6shdfnd5ArrayIPvNS0_19ReflectionAllocatorINS_2Gu30LargePersistentContactManifoldEEEE4copyINS0_15InlineAllocatorILj256ES6_EEEEvRKNS1_IS2_T_EE
rGk:_InvokableCall_1_add_Delegate_m3068046591_gshared
Ig:_glCheckFramebufferStatus
lLi:__ZL55TextGenerator_t647235000_CustomAttributesCacheGeneratorP21CustomAttributesCache
QTe:_Array_compare_TisInt32_t2071877448_m840310202_gshared
u3i:__Z57RuntimeInvoker_Il2CppObject_Il2CppObject_Byte_t3683104436PK10MethodInfoPvPS2_
a8j:_InternalEnumerator_1_System_Collections_IEnumerator_get_Current_m442726479_AdjustorThunk
WRh:_DESTransform_ECB_m2629024873
i6j:_InternalEnumerator_1_System_Collections_IEnumerator_get_Current_m790514740_AdjustorThunk
c9d:__ZN5physx2Cm12DelegateTaskINS_2Sc5SceneEXadL_ZNS3_19updateCCDSinglePassEPNS_10PxBaseTaskEEEE11runInternalEv
r4c:__ZN5physx6string9sprintf_sEPcjPKcz
yu:__ZNSt3__26vectorI24CompressedAnimationCurve13stl_allocatorIS1_L18MemLabelIdentifier25ELi16EEE6resizeEj
Gge:__ZThn8_N5physx19TriangleMeshBuilderD1Ev
VBl:_sift
Vtc:__Z19ConcatWithSeparatorRKNSt3__212basic_stringIcNS_11char_traitsIcEE13stl_allocatorIcL18MemLabelIdentifier1ELi16EEEES8_S8_
t6g:__ZN16VirtFuncInvoker2IbP21BigInteger_t925946153P12Il2CppObjectE6InvokeEjPvS1_S3_
wZc:__ZN5physx2Gu16intersectRayAABBERKNS_6PxVec3ES3_S3_S3_RfS4_
qxb:__ZN9Transform23VirtualRedirectTransferER17RemapPPtrTransfer
Pjj:__Z87RuntimeInvoker_Int32_t2071877448_Playable_t3667545548_Playable_t3667545548_Il2CppObjectPK10MethodInfoPvPS2_
dYf:_List_1_AddCollection_m2221063383_gshared
gy:__ZN21AnimationClipPlayable7SetTimeEd
sxf:_SyncHashtable_Remove_m694556812
V5e:_RijndaelManaged_CreateDecryptor_m3253408643
UUe:_Array_InternalArray__IndexOf_TisByte_t3683104436_m3605266236_gshared
zZh:_GUIStyle_set_richText_m1853532836
Hag:_Collection_1_System_Collections_IList_Insert_m435904526_gshared
Y5j:_InternalEnumerator_1_System_Collections_IEnumerator_get_Current_m1810411564_gshared
dXh:_GUISkin_get_horizontalScrollbarThumb_m4062590908
VGj:_RaycastAllCallback_Invoke_m981876639
TFl:__ZNKSt3__26locale5__imp9use_facetEl
jdf:_UnicodeEncoding__ctor_m72484327
M6d:__ZN5physx30setupFinalizeSolverConstraintsERNS_13PxcNpWorkUnitERKNS_2Gu13ContactBufferERKNS_20PxcCorrelationBufferERKNS_11PxTransformESB_bPhRKNS_13PxcSolverBodyESF_RKNS_17PxcSolverBodyDataESI_ffffff
Gni:__ZL74Il2CppArray_CustomAttributesCacheGenerator_Array_GetUpperBound_m1352329707P21CustomAttributesCache
Eca:__ZN22BuiltinResourceManager16StaticInitializeEPv
HEk:_SwitchController_OnCollisionEnter2D_m136698547
Uw:__ZN7mecanim4hand8HandPose8TransferI19StreamedBinaryWriteILb0EEEEvRT_
Znd:__ZN5physx7NpScene17releaseBatchQueryEPNS_12PxBatchQueryE
bbl:__ZN6il2cpp2gc9AllocatorIP12Il2CppThreadE10deallocateEPvj
Oeg:_ReadOnlyCollection_1_System_Collections_IList_Contains_m1838328308_gshared
JFd:__ZN5physx20NpRigidActorTemplateINS_13PxRigidStaticEE11attachShapeERNS_7PxShapeE
AIk:_UnityEvent_1_GetDelegate_m2720691419_gshared
d6d:__ZN5physx26solveVBlockDefaultFrictionEPNS_13PxsSolverCoreEfjjPNS_13PxcSolverBodyEPNS_17PxcSolverBodyDataEjjPNS_25PxcArticulationSolverDescEjPNS_23PxcSolverConstraintDescEjS9_jRNS_6shdfnd5ArrayINS_24PxsConstraintBatchHeaderENSA_19ReflectionAllocatorISC_EEEESG_PNS_2Cm13SpatialVectorEPNS_25PxcThresholdStreamElementEjRj
ESk:__ZL25UnresolvedVirtualCall_132P12Il2CppObjectiPK10MethodInfo
vkk:_Alternation_get_Alternatives_m1445219249
vch:_ClientSessionInfo_SetContext_m2649357891
Vcb:__ZNSt3__26__treeINS_12__value_typeINS_12basic_stringIcNS_11char_traitsIcEE13stl_allocatorIcL18MemLabelIdentifier54ELi16EEEEPN16MemoryFileSystem4NodeEEENS_19__map_value_compareIS8_SC_NS_4lessIS8_EELb1EEES5_ISC_LS6_54ELi16EEE12__find_equalIS8_EERPNS_16__tree_node_baseIPvEESO_RKT_
nmd:__ZN5physx15NpActorTemplateINS_18PxArticulationLinkEE17resolveReferencesERNS_24PxDeserializationContextE
DZi:__Z69RuntimeInvoker_Boolean_t3825574718_Il2CppObject_DoubleU26_t1208767207PK10MethodInfoPvPS2_
Ws:__ZN14AnimationEvent8TransferI14SafeBinaryReadEEvRT_
mkg:_RaycasterManager_GetRaycasters_m1154876874
Rhh:_SslStreamBase_InternalReadCallback_m2524917586
Oba:__ZN8Remapper6RemoveEi
GUf:_List_1_CheckCollection_m2608305187_gshared
HPd:__ZN5physx19NpRigidBodyTemplateINS_18PxArticulationLinkEE9visualizeERNS_2Cm12RenderOutputEPNS_7NpSceneE
lXd:__ZN5physx11writeBack1DERKNS_23PxcSolverConstraintDescERNS_16PxcSolverContextERNS_17PxcSolverBodyDataES6_
ATj:_Type_get_ContainsGenericParameters_m505913180
hte:__ZL36CleanupTextRenderingScriptingClassesv
YUc:__ZThn4_N16RayRTreeCallbackILi0ELb0EED0Ev
J5a:__ZN15ReflectionProbe17UseRendererResultEP13ProbeRenderer
cmf:_Array_BinarySearch_m3270245097
Rnc:__Z34Mesh_CUSTOM_SetArrayForChannelImplP12Il2CppObject30InternalScriptingShaderChannel34InternalScriptingVertexChannelTypeiP11Il2CppArrayi
TLg:_MonoIO_DeleteFile_m3273821223
Dsg:__ZN16VirtFuncInvoker0I17Color_t2020392075E6InvokeEjPv
BXg:_BigInteger_GenerateRandom_m2507308768
oEf:_DateTime_System_IConvertible_ToDouble_m1431748426_AdjustorThunk
KNh:__ZN16VirtFuncInvoker0IdE6InvokeEjPv
Ylj:__Z76RuntimeInvoker_Void_t1841601450_Int32_t2071877448_ContactPoint2D_t3659330976PK10MethodInfoPvPS2_
fQe:_Array_InternalArray__ICollection_Contains_TisUInt16_t986882611_m510319131_gshared
zOd:__ZNK5physx2Sc5Scene20getNbParticleSystemsEv
OHf:_Decimal_ToString_m541380585
ush:_RepeatContext_get_Previous_m808449037
R4i:__Z60RuntimeInvoker_DateTime_t693205669_Il2CppObject_Il2CppObjectPK10MethodInfoPvPS2_
Ngi:_MemberFilter__ctor_m1775909550
r3k:_il2cpp_class_is_valuetype
H1e:_Dictionary_2_Do_ICollectionCopyTo_TisKeyValuePair_2_t488203048_m2668228264_gshared
gSd:__ZN5physx2Gu17GetGeomSweepFuncsEv
Wbd:__ZN5physx6shdfnd8PoolBaseINS_15PxsArticulationENS0_16AlignedAllocatorILj64ENS0_9AllocatorEEEE17releaseEmptySlabsEv
UKf:_Enum_ToObject_m2601523252
fQl:dynCall_viiffiii
phh:_InternalAsyncResult_get_FromWrite_m2893408424
uVk:__ZN6il2cpp2vm5Class15GetElementClassEP11Il2CppClass
lCg:_U3CDelayedSetDirtyU3Ec__Iterator0_System_Collections_IEnumerator_get_Current_m851854792
kIf:_Delegate_CreateDelegate_m1706525923
SLl:__ZNKSt3__25ctypeIwE10do_tolowerEPwPKw
ozd:__ZN5physx22NpParticleBaseTemplateINS_15PxParticleFluidENS_15NpParticleFluidEE23setParticleReadDataFlagENS_22PxParticleReadDataFlag4EnumEb
hOj:_UTF7Encoding_GetBytes_m3015176946
Rnb:__ZN16GraphicsSettings8TransferI17RemapPPtrTransferEEvRT_
i6g:_BigInteger_op_LessThanOrEqual_m3528380540
dPg:_StreamReader__ctor_m2654332332
iHe:__ZN2UI6Canvas13UpdateBatchesEb
A9:__Z28scripting_method_is_instance21ScriptingMethodIl2Cpp
e_b:__ZNSt3__26vectorIN9ShaderLab20SerializedSubProgram14ConstantBufferENS_9allocatorIS3_EEE18__construct_at_endINS_11__wrap_iterIPS3_EEEENS_9enable_ifIXsr21__is_forward_iteratorIT_EE5valueEvE4typeESC_SC_j
HPi:__ZL105PointerEventData_t1599784723_CustomAttributesCacheGenerator_PointerEventData_set_pointerEnter_m1440587006P21CustomAttributesCache
MSf:_List_1_CheckCollection_m3968030679_gshared
dPk:_Predicate_1_BeginInvoke_m3556950370_gshared
Ssd:__ZN5physx2Gu5Debug9visualizeERKNS_13PxBoxGeometryERNS_2Cm12RenderOutputERKNS5_8Matrix34ERKNS_9PxBounds3Eyfj
Yjf:_StringBuilder_ToString_m617673931
Rya:__ZNK13GfxDeviceGLES12GetWireframeEv
d$k:__ZN15dense_hashtableINSt3__24pairIK10KeyWrapperIPK19Il2CppGenericMethodEPK26Il2CppGenericMethodIndicesEES6_N6il2cpp8metadata23Il2CppGenericMethodHashEN14dense_hash_mapIS6_SA_SE_NSD_26Il2CppGenericMethodCompareENS0_9allocatorISB_EEE9SelectKeyESG_SI_E4findERS7_
tTc:__ZN5physx6shdfnd5ArrayIPKvNS0_19ReflectionAllocatorIS3_EEE6resizeEjRKS3_
vfg:_ReadOnlyCollection_1_System_Collections_ICollection_get_IsSynchronized_m3127987432_gshared
fAa:__ZN9GfxDevice18AllocRenderSurfaceEb
S6d:__ZN5physx31setupFinalizeSolverConstraints4EPNS_21PxcSolverContact4DescERNS_18PxcNpThreadContextEPhffRKNS_6shdfnd3aos5Vec4VES9_S9_S9_
zKd:__ZN5physx7NpScene5flushEb
Lkk:_AnchorInfo_get_IsComplete_m1247624133
ytg:_Dropdown_Show_m324374589
j7:__ZL27CleanupCoreScriptingClassesv
jHh:__ZN16VirtFuncInvoker1Ii38CustomAttributeNamedArgument_t94157543E6InvokeEjPvS0_
g5j:_InternalEnumerator_1_get_Current_m4290564662_AdjustorThunk
aUc:__ZN5physx2Gu13GeometryUnion3setERKNS_10PxGeometryE
l2c:__ZThn8_N5physx3Cct17CapsuleController15getPxControllerEv
ULk:_GenericComparer_1__ctor_m3575096182_gshared
Gmg:_RaycastResult_get_isValid_m2482925612
Fnc:__Z26AnimationCurve_CUSTOM_InitP12Il2CppObjectP11Il2CppArray
bHc:__ZNK14b2PolygonShape5CloneEP16b2BlockAllocator
h9k:__ZN6il2cpp2vm10Reflection7IsEventEP12Il2CppObject
Q_k:__ZNSt3__26__treeINS_12__value_typeIPFvvEPK10MethodInfoEENS_19__map_value_compareIS3_S7_NS_4lessIS3_EELb1EEENS_9allocatorIS7_EEE16__insert_node_atEPNS_16__tree_node_baseIPvEERSI_SI_
p8:__ZN17PersistentManager26GetStreamNameSpaceInternalEi
SRc:__Z40Rigidbody2D_CUSTOM_INTERNAL_get_positionP12Il2CppObjectP13Vector2fIcall
YM:__ZN4FMOD6System11createSoundEPKcjP22FMOD_CREATESOUNDEXINFOPPNS_5SoundE
Teg:_ReadOnlyCollection_1_System_Collections_ICollection_get_IsSynchronized_m4056631538_gshared
ap:FUNCTION_TABLE_iiifiiii
W5g:__ZN16VirtFuncInvoker1IP21BigInteger_t925946153iE6InvokeEjPvi
jej:__Z66RuntimeInvoker_Void_t1841601450_Int32_t2071877448_Rect_t3681755626PK10MethodInfoPvPS2_
W1h:_Object_Destroy_m4145850038
Kea:__ZNSt3__26__treeINS_12__value_typeINS_12basic_stringIcNS_11char_traitsIcEENS_9allocatorIcEEEEiEENS_19__map_value_compareIS7_S8_NS_4lessIS7_EELb1EEENS5_IS8_EEE7destroyEPNS_11__tree_nodeIS8_PvEE
Mcl:__ZN6il2cpp2vm4Type14IsSystemDBNullEPK10Il2CppType
ghc:__ZN9Scripting28CreateEngineScriptableObjectEP12Il2CppObject
ole:__ZThn128_N5physx7profile8ZoneImplINS_28PxProfileNameProviderForwardEED1Ev
X5:__ZN9ShaderLab19CommonPropertyNames13StaticCleanupEPv
YWf:_List_1_System_Collections_IList_Remove_m3137919634_gshared
_Ij:_ScrollRect_UpdateBounds_m3266596336
wTd:__ZN5physx2Sq17AABBTreeUpdateMap10invalidateEjjRNS0_8AABBTreeE
HUa:_unity_z_zcfree
wEj:_LayoutUtility_GetFlexibleWidth_m1731978987
f6d:__ZN5physx28solveParallelDefaultFrictionERNS_18PxsDynamicsContextEjjPNS_13PxcSolverBodyEPNS_17PxcSolverBodyDataEjjPNS_25PxcArticulationSolverDescEjPNS_23PxcSolverConstraintDescEjS9_jPiSA_SA_SA_SA_SA_PNS_25PxcThresholdStreamElementEjSA_PNS_2Cm13SpatialVectorEPKPNS_11PxsBodyCoreERNSD_10BitMapBaseINS_6shdfnd9AllocatorEEEPKPNS_15PxsArticulationEjPViRNSL_5ArrayINS_24PxsConstraintBatchHeaderENSL_19ReflectionAllocatorISW_EEEES10_RNSV_IjNSX_IjEEEES13_PPNS_12PxsRigidBodyEj
VUl:_glStencilOpSeparate__wrapper
Gcc:__ZN4Mesh5SetUvEiPKfjj
nta:__ZN7Texture13SetAnisoLimitENS_20AnisotropicFilteringE
Dta:__ZN28LightProbeProxyVolumeManager25UpdateSHCoeffsTextureDataER21LightProbeProxyVolume
KOa:__Z18CreateDecompressor15CompressionType18MemLabelIdentifier
qV:__ZN11AudioModule16SetListenerPauseEb
J6h:_Renderer_set_sortingOrder_m809829562
Bi:_emscripten_glCompressedTexSubImage2D
lIa:__ZN13GfxDeviceGLES22MemoryBarrierImmediateEyN2gl17MemoryBarrierTypeE
S7k:__ZNK15dense_hashtableINSt3__24pairIK10KeyWrapperINS1_IPK12PropertyInfoP11Il2CppClassEEEjEES9_17ReflectionMapHashIS8_EN14dense_hash_mapIS9_jSD_19ReflectionMapEqualsIS8_ENS0_9allocatorISB_EEE9SelectKeyESG_SI_E12test_deletedEj
G$c:__ZN5physx6shdfnd5ArrayIjNS0_19ReflectionAllocatorIjEEE8recreateEj
Xgl:__ZN6il2cpp6icalls8mscorlib6System4Type18internal_from_nameEP12Il2CppStringbb
Mqa:__ZN6prcoreL26RemapGenericFloatToIntegerI18TexFormatARGBFloat17TexFormatARGB8888EEvPKNS_9InnerInfoE
frl:__ZN6il2cpp6icalls8mscorlib6System10Reflection9MonoField16GetValueInternalEP21Il2CppReflectionFieldP12Il2CppObject
D3b:__ZN6Object27GetOffsetOfInstanceIdMemberEv
pCe:_cff_ps_has_glyph_names
NGk:_InvokableCall_1__ctor_m2837611051_gshared
Lge:__ZN5physx15writeWordBufferEPKtjbRNS_14PxOutputStreamE
Dxh:_Transform_1_EndInvoke_m1025924012_gshared
Eni:__ZL81Il2CppArray_CustomAttributesCacheGenerator_Array_GetValue_m3550694941____indices0P21CustomAttributesCache
rgg:_ReadOnlyCollection_1_System_Collections_Generic_ICollectionU3CTU3E_get_IsReadOnly_m2873538493_gshared
vik:_PatternCompiler_EmitPosition_m3013268572
drh:_X509SubjectKeyIdentifierExtension__ctor_m1109455121
W8f:_Collection_1_SetItem_m2707773254_gshared
ZQk:__ZL24UnresolvedVirtualCall_45P12Il2CppObject19DateTime_t693205669PK10MethodInfo
Svg:_Graphic_CreateColorFromAlpha_m2614574534
Bkf:_UnicodeEncoding_GetHashCode_m2443440683
Bzc:__Z44Register_UnityEngine_GUIStyle_SetDefaultFontv
Mdi:_GenericTypeParameterBuilder_GetPropertyImpl_m3566422383
onl:__GLOBAL__sub_I_ThreadImpl_cpp
_Wb:__Z18Transfer_BlittableI18StreamedBinaryReadILb1EELb1EiEvRK29SerializationCommandArgumentsR31RuntimeSerializationCommandInfo
$D:__ZN9BlobWrite8TransferI22OffsetPtrArrayTransferIKN4math7_float3EEEEvRT_PKc17TransferMetaFlags
R9e:_TripleDES_IsWeakKey_m483013953
Nyh:_Enumerator__ctor_m3819430617_AdjustorThunk
J9c:__ZN5physx2Sc7BodySim37checkSleepReadinessBesidesWakeCounterEv
YWb:__Z18Transfer_BlittableI18StreamedBinaryReadILb1EELb1EsEvRK29SerializationCommandArgumentsR31RuntimeSerializationCommandInfo
z8k:__ZN15dense_hashtableINSt3__24pairIK10KeyWrapperINS1_IPK9EventInfoP11Il2CppClassEEEjEES9_17ReflectionMapHashIS8_EN14dense_hash_mapIS9_jSD_19ReflectionMapEqualsIS8_ENS0_9allocatorISB_EEE9SelectKeyESG_SI_E13clear_deletedER30dense_hashtable_const_iteratorISB_S9_SD_SK_SG_SI_E
uB:__ZN26AnimatorControllerPlayable17IsMultithreadableEv
IDf:__ZN16VirtFuncInvoker0IP27NumberFormatInfo_t104580544E6InvokeEjPv
bef:_Single_System_IConvertible_ToSByte_m3757385387
ljj:__Z51RuntimeInvoker_Boolean_t3825574718_Slot_t2022531261PK10MethodInfoPvPS2_
XMg:_StreamAsyncResult_SetComplete_m2141125667
sta:__ZL21SetAnisoLimitEnumImplN7Texture20AnisotropicFilteringEb
FKe:__ZN22BaseUnityConnectClient17OnEnterStateReadyEv
wCd:__ZNK5physx22NpParticleBaseTemplateINS_16PxParticleSystemENS_16NpParticleSystemEE15getMaxParticlesEv
nnd:__ZN5physx2Sc16ArticulationCore14setWakeCounterEf
JHd:__ZN5physx2Sc10NPhaseCore24createTriggerInteractionERNS0_8ShapeSimES3_NS_7PxFlagsINS_10PxPairFlag4EnumEtEE
HBc:__ZN8JSONRead18TransferStringDataI8UnityStrEEvRT_
xQa:__ZN15dense_hashtableINSt3__24pairIKNS0_12basic_stringIcNS0_11char_traitsIcEE13stl_allocatorIcL18MemLabelIdentifier54ELi16EEEEP20ArchiveStorageReaderEES8_11djb2_hash_tIS8_EN14dense_hash_mapIS8_SB_SE_NS0_8equal_toIS8_EES5_ISC_LS6_54ELi16EEE9SelectKeyESH_SI_E13set_empty_keyERKSC_
JXc:__Z19sweepConvex_BoxGeomRKN5physx10PxGeometryERKNS_11PxTransformERKNS_20PxConvexMeshGeometryES5_RKNS_6PxVec3EfRNS_10PxSweepHitENS_7PxFlagsINS_9PxHitFlag4EnumEtEEf
jJl:__ZNKSt3__210moneypunctIcLb1EE14do_frac_digitsEv
jUc:__ZN5physx2Gu9ContainerD2Ev
p$h:_Keyframe_get_tangentMode_m1869200796_AdjustorThunk
Wmc:__Z29Input_CUSTOM_GetMouseButtonUpi
$Vc:__ZN5physx2Gu12selectNormalEhff
C2k:__ZN6il2cpp6icalls8mscorlib6System8MonoType16InternalGetEventEP20Il2CppReflectionTypeP12Il2CppStringi
rVj:_UInt32_System_IConvertible_ToUInt32_m1257480358_AdjustorThunk
lDf:_Convert_ToUInt32_m3085255294
_ve:_UNITY_tt_face_load_maxp
Twc:__Z39Register_UnityEngine_Event_Internal_Usev
fnc:__Z46Input_CUSTOM_INTERNAL_set_compositionCursorPosRK13Vector2fIcall
Iz:__ZN7mecanim5human12FullBodyMaskEv
YAd:__ZN5physx3Scb14ParticleSystem16releaseParticlesEjRKNS_16PxStrideIteratorIKjEE
vAi:__ZL98Activator_t1850728717_CustomAttributesCacheGenerator_Activator_CreateInstance_m1465989661____args1P21CustomAttributesCache
s5:__ZN19ShaderPropertySheet11ComputeHashEv
D$h:__ZN23InterfaceActionInvoker4IiP18Object_t1021602117P8String_tP24ObjectU5BU5D_t3614634134E6InvokeEjP11Il2CppClassPviS1_S3_S5_
Zok:_SliderHandler_MousePosition_m4110511062_AdjustorThunk
JNd:__ZN5physx2Sc5Scene21processLostTouchPairsEv
ZHc:__ZN12b2EPCollider24ComputePolygonSeparationEv
xr:__ZN4PPtrI6ObjectE8TransferI18StreamedBinaryReadILb1EEEEvRT_
yrg:_ColorTween_get_tweenMode_m2919867230_AdjustorThunk
vj:_llvm_fabs_f32
kqg:_CanvasScaler_HandleScaleWithScreenSize_m80056230
xQh:_SByte_System_IConvertible_ToUInt64_m2174352876_AdjustorThunk
L1k:__ZNK6il2cpp5utils10functional6FilterINSt3__212basic_stringIcNS3_11char_traitsIcEENS3_9allocatorIcEEEENS0_11StringUtils21CaseSensitiveComparerEEclIPKcEEbRKT_
ft:__ZN7mecanim9animation18ClipMuscleConstant8TransferI14SafeBinaryReadEEvRT_
Zdi:_GenericTypeParameterBuilder_get_AssemblyQualifiedName_m902593295
_$d:__ZN5physx22PxcContactConvexConvexERKNS_2Gu13GeometryUnionES3_RKNS_11PxTransformES6_RKfRNS_10PxcNpCacheERNS0_13ContactBufferE
XNj:_UTF7Encoding_InternalGetBytes_m2772055844
yIh:_EqualityComparer_1__ctor_m831468288_gshared
rVc:__ZNK5physx2Gu11ConvexHullV12HillClimbingERKNS_6shdfnd3aos5Vec3VE
PDk:_U3CNextSceneU3Ec__Iterator0__ctor_m4291572605
rLb:__ZL29CanTransferTypeAsNestedObjectI18TransferField_InfoEbRKT_
CHd:__ZNK5physx2Sc17ParticleSystemSim7getCoreEv
Kwc:__Z40Register_UnityEngine_Event_set_modifiersv
HHf:_Decimal_CompareTo_m2454501434_AdjustorThunk
E8:__ZN14SafeBinaryReadD2Ev
_Tj:_UInt16_System_IConvertible_ToChar_m4055364664
MAd:__ZN5physx2Sc18ParticleSystemCore10setDampingEf
p4b:__Z13RegisterClassI7TextureEvv
Plk:_ExpressionCollection_OnValidate_m1703610065
sBj:_Playable_INTERNAL_CALL_GetPlayStateInternal_m3560305748
hy:__ZNK21AnimationClipPlayable7GetTimeEv
wvb:__ZN8Gradient8TransferI18StreamedBinaryReadILb1EEEEvRT_
lyh:_Enumerator_Dispose_m2369319718_AdjustorThunk
aCi:__ZL79Convert_t2607082565_CustomAttributesCacheGenerator_Convert_ToUInt16_m3991499696P21CustomAttributesCache
t6c:__ZN5physx2Sc10NPhaseCore16deleteFilterPairEPNS0_10FilterPairE
lzc:__Z45Register_UnityEngine_GUIStyle_SetFontInternalv
$Mc:__ZN19CollisionListener2DD0Ev
RMg:__ZN16VirtFuncInvoker5IP12Il2CppObjectP22ByteU5BU5D_t3397334013iiP24AsyncCallback_t163412349S1_E6InvokeEjPvS3_iiS5_S1_
z1f:_Enumerator_Dispose_m1520016780_AdjustorThunk
Khb:__ZN15dense_hashtableINSt3__24pairIKNS0_12basic_stringIcNS0_11char_traitsIcEENS0_9allocatorIcEEEES7_EES7_11djb2_hash_tIS7_EN14dense_hash_mapIS7_S7_SB_NS0_8equal_toIS7_EE13stl_allocatorIS9_L18MemLabelIdentifier54ELi16EEE9SelectKeyESE_SH_ED2Ev
_gl:__ZN6il2cpp6icalls8mscorlib6System4Type15MakeGenericTypeEP20Il2CppReflectionTypeP11Il2CppArray
Tme:_PxCreateBasePhysics
Wj:_SDL_PauseAudio
Nwc:__Z40Register_UnityEngine_Event_set_characterv
Kmf:_Array_Sort_m2323017822
Btl:_GC_clear_mark_bit
BHj:_Scrollbar_UpdateDrag_m3839695926
cWh:_GUILayoutUtility__cctor_m2957755459
Ojc:__Z48Register_UnityEngine_Camera_set_orthographicSizev
tad:__ZN5physx2Sc5Scene28addActiveBreakableConstraintEPNS0_13ConstraintSimE
W5:__ZN9ShaderLab19CommonPropertyNames16StaticInitializeEPv
spd:__ZN5physx6shdfnd8PoolBaseINS_16NpParticleSystemENS0_19ReflectionAllocatorIS2_EEE15disposeElementsEv
Bxa:__ZN17ShaderPassContext8CopyFromERKS_
$ra:__ZN13MemoryManager31DisallowAllocationsOnThisThreadEv
O3h:_Quaternion_Euler_m3586339259
FF:__ZN7mecanim9animation18CreateAvatarOutputEPKNS0_14AvatarConstantEbbRNS_6memory9AllocatorE
Kle:__ZN5physx7profile11EventBufferINS_24PxDefaultContextProviderENS_6shdfnd6MutexTINS0_26WrapperReflectionAllocatorIhEEEENS0_14ScopedLockImplIS7_EENS_24PxProfileNullEventFilterEE10eventValueEtyx
wRh:_CspParameters__ctor_m2546931874
JS:__ZN11AudioSource23VirtualRedirectTransferER24GenerateTypeTreeTransfer
sZc:__ZN5physx2Gu11getBoxEdgesEv
oyb:__ZN14Texture2DArray23VirtualRedirectTransferER14SafeBinaryRead
p0a:__ZNK6Camera21CalculateCanDoShadowsEv
hMd:__ZNK5physx2Sc5Scene17getBroadPhaseCapsERNS_16PxBroadPhaseCapsE
qDh:_Dictionary_2_make_pair_m2631942124_gshared
fmd:__ZN5physx9NpFactory14onActorReleaseEPNS_7PxActorE
WXk:__ZN14dense_hash_mapI10KeyWrapperINSt3__212basic_stringIcNS1_11char_traitsIcEENS1_9allocatorIcEEEEEP11Il2CppClassN6il2cpp5utils11StringUtils12StringHasherIS7_EENS1_8equal_toIS8_EENS5_INS1_4pairIKS8_SA_EEEEEC2EjRKSF_RKSH_
_vg:_Graphic__cctor_m1643894470
M6j:_InternalEnumerator_1_System_Collections_IEnumerator_get_Current_m3244783182_AdjustorThunk
Vpl:__ZN6il2cpp2os6Thread12SetStackSizeEj
Ooh:_X509ChainElementEnumerator_get_Current_m2232618221
vcd:__ZN5physx2Sc5Actor15onElementAttachERNS0_7ElementE
D3f:_Collection_1_Clear_m3860339101_gshared
CIb:__ZNK20ArchiveStorageReader15HasStreamBlocksEv
gdc:__ZNK8Renderer16IsVisibleInSceneEv
Ocj:__Z44RuntimeInvoker_AnimatorStateInfo_t2577870592PK10MethodInfoPvPS2_
UIj:_ScrollRect_set_onValueChanged_m3957749575
N2:__Z13VFormatBufferPciPKcz
xAd:__ZN5physx2Sc18ParticleSystemCore23setSimulationFilterDataERKNS_12PxFilterDataE
YUb:__Z18Transfer_BlittableI18StreamedBinaryReadILb0EELb1EhEvRK29SerializationCommandArgumentsR31RuntimeSerializationCommandInfo
Cui:__ZL90SafeHandle_t2733794115_CustomAttributesCacheGenerator_SafeHandle_get_IsInvalid_m3910183075P21CustomAttributesCache
Txg:_Image_GenerateSimpleSprite_m4275440988
Nxj:_Display_get_systemHeight_m3377672024
PUj:_UInt16_ToString_m3280699191
tIk:_UnityEvent_1_GetDelegate_m2566156550_gshared
Qqa:__ZN6prcoreL27StretchGenericFloatBilinearI15TexFormatRFloatEEvPKNS_9InnerInfoE
qSd:__ZN5physx6shdfnd8internal8HashBaseINS0_4PairIKNS_2Sq13PrunerPayloadEjEES5_NS0_4HashIS5_EENS1_11HashMapBaseIS5_jS9_NS0_9AllocatorEE6GetKeyESB_Lb1EE15reserveInternalEj
xvi:__ZL62IDynamicMessageSink_t3056162262_CustomAttributesCacheGeneratorP21CustomAttributesCache
w_i:__Z33RuntimeInvoker_UInt32_t2149682021PK10MethodInfoPvPS2_
aZi:__Z130RuntimeInvoker_Int32_t2071877448_Il2CppObject_Int32_t2071877448_Int32_t2071877448_Il2CppObject_Int32_t2071877448_Int32_t2071877448PK10MethodInfoPvPS2_
pSe:_Array_InternalArray__IEnumerable_GetEnumerator_TisBoolean_t3825574718_m798244337_gshared
f_f:_List_1_CopyTo_m158925060_gshared
Kkb:__ZN4core20StringStorageDefaultIcE6assignERKS1_
b2i:__Z102RuntimeInvoker_Il2CppObject_Int32_t2071877448_Int32_t2071877448_Il2CppObject_Il2CppObject_Il2CppObjectPK10MethodInfoPvPS2_
GJb:__ZN39AssetBundleLoadFromStreamAsyncOperationC2ERKNSt3__212basic_stringIcNS0_11char_traitsIcEENS0_9allocatorIcEEEE
AUe:_Array_IndexOf_TisCustomAttributeNamedArgument_t94157543_m745056346_gshared
psa:__Z33scripting_unity_engine_object_newP11Il2CppClassP6Object
H$k:__ZN6il2cpp2vm13MetadataCache28GetFieldDefaultValueForFieldEPK9FieldInfo
V8j:_DefaultComparer_Compare_m3277849110_gshared
OYj:_ArrayReadOnlyList_1_ReadOnlyError_m2289309720_gshared
lA:__ZN27AnimationLayerMixerPlayableD2Ev
Y0k:__ZN6il2cpp2vm8basepathEPKc
bWd:__ZN5physx2Gu22gjkRelativePenetrationINS0_9TriangleVENS0_8CapsuleVEEEjRKT_RKT0_RKNS_6shdfnd3aos15PsMatTransformVERKNSB_6FloatVERNSB_5Vec3VESJ_SJ_RSF_PhSL_Rh
faa:__ZNSt3__212basic_stringIcNS_11char_traitsIcEE13stl_allocatorIcL18MemLabelIdentifier1ELi16EEE9push_backEc
Khe:__ZN9Rigidbody14SetIsKinematicEb
WFh:_DefaultComparer_GetHashCode_m320514092_gshared
p8g:_PKCS1_Verify_v15_m478274703
XO:__ZN12AudioManager39HandlePendingAudioConfigurationCallbackEv
msa:__ZNK8Material16MarkDependenciesER27GarbageCollectorThreadState
C7a:__Z20RequiredComponentsOfP11Il2CppClass
QBj:_GenericMixerPlayable_InternalCreate_m559491731
Vk:_emscripten_glIsFramebuffer
oJa:__ZNK13TranslateGLES9GetFormatE13TextureFormat17TextureColorSpace
pzb:__ZN12_GLOBAL__N_16qAtan2Eff
dGl:__ZNSt3__215__num_get_floatIfEET_PKcS3_Rj
pCf:_Convert_ToInt64_m954367741
Yk:_JS_Sound_SetLoopPoints
Srf:_ArrayList__ctor_m1467563650
iT:__ZN12AudioManager17ShouldSourcePauseEb
Cwl:__ZN6il2cpp2vm26MetadataAllocGenericMethodEv
OKa:__ZN19ConstantBuffersGLES12RecordRenderEv
URd:__ZN5physx13ActorAABBTaskD2Ev
Stk:_Transform_INTERNAL_set_rotation_m3703763817
msb:__ZN18AsyncUploadManager22UploadStreamingTextureEP28FileTextureUploadInstruction
dEc:__ZN9JSONWrite8TransferI10RectOffsetEEvRT_PKc17TransferMetaFlags
UFa:__ZN4crnd12symbol_codec11decode_bitsEj
QNl:__ZNSt3__212basic_stringIwNS_11char_traitsIwEENS_9allocatorIwEEE7reserveEj
_Hc:__ZN15b2CircleContact8EvaluateEP10b2ManifoldRK11b2TransformS4_
a0e:_Array_Sort_TisRaycastResult_t21186376_TisRaycastResult_t21186376_m38820193_gshared
Fqj:_Animator_ResetTriggerString_m1445965342
DTj:_Type_GetGenericTypeDefinition_m2658530753
Rrc:__Z55Register_UnityEngine_RenderTexture_INTERNAL_CALL_Createv
M9b:__ZN21FixedBehaviourManagerD0Ev
xKi:__ZL55RaycastHit2D_t4063908774_CustomAttributesCacheGeneratorP21CustomAttributesCache
cMg:_StreamReader__ctor_m3454466728
vDc:__ZL17Transfer_GUIStyleI9JSONWriteLb0EEvRK29SerializationCommandArgumentsR31RuntimeSerializationCommandInfo
XCa:__ZNK18GfxFramebufferGLES15GetSamplesCountEv
C_b:__ZNSt3__26vectorIN9ShaderLab20SerializedSubProgram15MatrixParameterENS_9allocatorIS3_EEE26__swap_out_circular_bufferERNS_14__split_bufferIS3_RS5_EE
Ruk:_Vector2_get_Item_m2792130561
bsa:__Z16MarkDependenciesR27GarbageCollectorThreadStatej
kHl:__ZNSt3__27num_putIwNS_19ostreambuf_iteratorIwNS_11char_traitsIwEEEEED0Ev
Gqh:_X509ChainElementEnumerator_Reset_m3832280427
KOi:__ZL75EventSystem_t3466835263_CustomAttributesCacheGenerator_U3CU3Ef__mgU24cache0P21CustomAttributesCache
aUg:_MulticastDelegate_RemoveImpl_m2024746777
tqg:_CanvasUpdateRegistry_ParentCount_m2367607495
WTg:_MulticastDelegate_Equals_m3064081489
bhj:__Z54RuntimeInvoker_Void_t1841601450_ColorBlock_t2652774230PK10MethodInfoPvPS2_
d4g:_Activator_CreateInstance_m1465989661
N5:__ZNK9Transform11GetPositionEv
Zod:__ZN5physx12NpConstraint8requiresERNS_23PxProcessPxBaseCallbackE
Hdk:__ZN21InterfaceFuncInvoker1IP8String_tS1_E6InvokeEjP11Il2CppClassPvS1_
EBj:_Playable_INTERNAL_CALL_GetDurationInternal_m2061318387
dZa:__ZN23SharedMeshRenderingData18UnloadVertexStreamEi
gwk:_Vector4_set_Item_m3077071044
nvg:__ZN16VirtFuncInvoker0IP19Material_t193706927E6InvokeEjPv
l3c:__ZN5physx3Cct13HandleManager3AddEPv
mac:__ZN31CanvasBatchIntermediateRenderer11AddSubBatchERK16DrawBuffersRangePK19ShaderPropertySheet
jQi:__ZL104PointerEventData_t1599784723_CustomAttributesCacheGenerator_PointerEventData_set_scrollDelta_m4002219844P21CustomAttributesCache
Q8b:__ZN19RenderEventsContextC2Ei
IW:__Z6simd4fRKf
YGk:_InvokableCall_3_Find_m3470456112_gshared
bYe:_Array_InternalArray__ICollection_CopyTo_TisColor32_t874517518_m379086718_gshared
uLj:_Slider_ClampValue_m2851810895
zl:_emscripten_glEnable
GWh:_GUISkin_set_font_m4009958323
sIk:_UnityEvent_1_FindMethod_Impl_m3813546_gshared
Ell:__ZN6il2cpp2gc16GarbageCollector29RegisterFinalizerForNewObjectEP12Il2CppObject
Fkb:__ZN10TagManager23VirtualRedirectTransferER14SafeBinaryRead
jbe:__ZNK5physx2Sc15ClothFabricCore9getNbSetsEv
Qbk:_MarshalAsAttribute__ctor_m1892084128
uve:_UNITY_FT_Init_Class_ft_grays_raster
baj:__Z53RuntimeInvoker_Void_t1841601450_Vector3U26_t425862308PK10MethodInfoPvPS2_
x3a:__Z15InitLightMeshesv
qAi:__ZL97WaitHandle_t677569169_CustomAttributesCacheGenerator_WaitHandle_t677569169____Handle_PropertyInfoP21CustomAttributesCache
oLd:__ZNK5physx7NpScene26getNbContactDataBlocksUsedEv
JNf:_KeyValuePair_2_ToString_m1391611625_AdjustorThunk
zo:FUNCTION_TABLE_iifiii
ill:__ZNK10KeyWrapperIP12Il2CppObjectEeqERKS2_
X_c:__ZN5physx2Gu29computeCapsule_HeightFieldMTDERKNS_21PxHeightFieldGeometryERKNS_11PxTransformERNS0_8CapsuleVEffbjRNS_10PxSweepHitE
NGd:__ZNK5physx2Cm12DelegateTaskINS_7NpSceneEXadL_ZNS2_14executeCollideEPNS_10PxBaseTaskEEEE7getNameEv
Cce:__ZN5physx2Gu11HeightField15exportExtraDataERNS_22PxSerializationContextE
gwb:__ZN15QualitySettings8TransferI19StreamedBinaryWriteILb0EEEEvRT_
_Tf:_List_1_System_Collections_Generic_IEnumerableU3CTU3E_GetEnumerator_m1503548298_gshared
$Sb:__Z18Transfer_BlittableI19StreamedBinaryWriteILb0EELb1E8Vector2fEvRK29SerializationCommandArgumentsR31RuntimeSerializationCommandInfo
pAe:_cf2_arrstack_init
VUk:__ZN30dense_hashtable_const_iteratorINSt3__24pairIK10KeyWrapperIPK22Il2CppGenericParameterEP11Il2CppClassEES6_N6il2cpp5utils11PointerHashIS4_EEN14dense_hash_mapIS6_S9_SE_NS0_8equal_toIS6_EENS0_9allocatorISA_EEE9SelectKeyESH_SJ_EppEv
gui:__ZL65ClassInterfaceAttribute_t910653559_CustomAttributesCacheGeneratorP21CustomAttributesCache
Qth:__ZN16VirtFuncInvoker2Ii19Vector2_t2243707579S0_E6InvokeEjPvS0_S0_
z0:__Z15CleanLogHandler7LogTypePKcz
Q0b:__ZN9ShaderLab19SerializedSubShader8TransferI19StreamedBinaryWriteILb0EEEEvRT_
trd:__ZN5physx10NpMaterialC2ERKNS_2Sc12MaterialCoreE
gU:__ZN14AudioBehaviour15ThreadedCleanupEv
V2d:__ZN5physx9PxTaskMgr10resolveRowEjb
PK:__ZN10HumanTrait12CleanupClassEv
SKb:__ZN6Camera17RemoveImageFilterERK11ImageFilter
LHa:__ZNSt3__218__insertion_sort_3IR25ValueParameterArraySorterPN20GpuProgramParameters14ValueParameterEEEvT0_S6_T_
Nuf:_CaseInsensitiveHashCodeProvider_AreEqual_m2456617355
lmh:_WebHeaderCollection__ctor_m4088938710
qEj:_LayoutUtility_GetLayoutProperty_m4052007472
RGk:_InvokableCall_1_Invoke_m3239892614_gshared
tye:_Horizontal_Sweep_Init
qhe:__ZN8Collider12GetIsTriggerEv
bLk:_EqualityComparer_1_get_Default_m1806515335_gshared
XRk:__ZL24UnresolvedVirtualCall_97P12Il2CppObjectS0_iS0_iPK10MethodInfo
CJl:__ZNKSt3__210moneypunctIwLb1EE14do_curr_symbolEv
Tch:_Context_set_WriteSequenceNumber_m3356252710
Fae:__ZNK5physx13NpClothFabric13getRestvaluesEPfj
Tel:__ZN6il2cpp6icalls8mscorlib6System9ThreadingL20GetSerializedCultureERPhRj
mYc:__ZN5physx2Gu16_gjkLocalRayCastINS0_9TriangleVENS0_11ConvexHullVEEEbRT_RT0_RKNS_6shdfnd3aos6FloatVERKNS9_5Vec3VESF_RSA_RSD_SH_f
fy:__ZNK8Playable11GetDurationEv
pXf:_List_1_Find_m928286154_gshared
xy:__ZN17AnimationPlayable28ComputeNeedsBindingRebuildedEv
AJl:__ZNKSt3__210moneypunctIwLb1EE16do_thousands_sepEv
Ead:__ZN5physx6shdfnd8PoolBaseINS_2Cm5BlockIPvLj32EEENS0_19ReflectionAllocatorIS5_EEE17releaseEmptySlabsEv
F8j:_DefaultComparer__ctor_m2859550749_gshared
dqj:_AnimationEvent_get_functionName_m4178006856
gYd:__ZN5physx23PxsBroadPhaseContextSap21batchUpdateFewUpdatesEjRPNS_17PxcBroadPhasePairERjS4_
C$c:__ZN5physx3Cct17getSceneTimestampEPKNS0_30InternalCBData_FindTouchedGeomE
Dgd:__ZN5physx14NpArticulation12applyImpulseEPNS_18PxArticulationLinkERKNS_24PxArticulationDriveCacheERKNS_6PxVec3ES8_
noh:_X509ExtensionCollection__ctor_m1324282194
z2h:_Physics_Raycast_m2874007225
AMe:__ZN18UnityConnectClient33OnPlayerSessionStateChangedStaticEPS_jyy
IK:__ZN25RuntimeAnimatorController12CleanupClassEv
S$h:_Material_SetTexture_m58378708
JWj:_UIntPtr__ctor_m3900568171_AdjustorThunk
RZj:_InternalEnumerator_1_get_Current_m1943362081_gshared
yDa:__ZN7ApiGLES4LoadE16GfxDeviceLevelGL
Jtb:__ZN18StreamedBinaryReadILb0EE21TransferSTLStyleArrayI13dynamic_arrayI31EnlightenSystemAtlasInformationLj8EEEEvRT_17TransferMetaFlags
Cqd:__ZN5physx9NpPhysics15createAggregateEjb
NFa:__ZN4crnd12crn_unpacker22decode_color_endpointsEv
ddg:_ReadOnlyCollection_1_System_Collections_IList_Clear_m3006875897_gshared
$Qf:_Enumerator_System_Collections_IEnumerator_get_Current_m3866069145_gshared
Yp:FUNCTION_TABLE_viiffffi
I2h:_Physics_Raycast_m2994111303
pXg:_PreviousInfo_t581002487_marshal_pinvoke_cleanup
zGl:__ZNKSt3__27num_getIwNS_19istreambuf_iteratorIwNS_11char_traitsIwEEEEE6do_getES4_S4_RNS_8ios_baseERjS8_
$ga:__ZN8Material11SetPassFastEPN9ShaderLab4PassER17ShaderPassContextP6Shaderib
Sog:_AspectRatioFitter_UpdateRect_m3782072749
hab:__ZNK13ScreenManager13GetLockCursorEv
IMe:__ZN11UnityEngine7Connect20BasePersistentValues10SaveValuesER9JSONWrite
nmc:__Z31Renderer_Set_Custom_PropEnabledP12Il2CppObjecth
R4h:_Rect_get_max_m96665935_AdjustorThunk
olg:_ExecuteEvents_get_pointerDownHandler_m1172742772
M2d:__ZN5physx9PxTaskMgr12addReferenceEj
pOc:__ZNSt3__27__sort4IR24RayHitsByDepthComparitorP12RaycastHit2DEEjT0_S5_S5_S5_T_
bqh:_X509CertificateEnumerator_System_Collections_IEnumerator_MoveNext_m3708362145
X_a:__Z12SetupLODFadeR9GfxDeviceR17ShaderPassContextf
VKc:__ZN26b2PolygonAndCapsuleContact6CreateEP9b2FixtureiS1_iP16b2BlockAllocator
k3a:__ZL24CollectForwardObjectsJobP27CollectForwardObjectsHeader
guh:_Enumerator_System_Collections_IDictionaryEnumerator_get_Entry_m345330700_gshared
Hxi:__ZL53HMACSHA256_t2622794722_CustomAttributesCacheGeneratorP21CustomAttributesCache
vWa:__Z13IsNodeVisibleRK9SceneNodeRK4AABBRK22SceneCullingParameters
ZLl:__ZNSt3__27codecvtIDic11__mbstate_tED0Ev
MX:__ZN11UnityEngine15CloudWebService16SessionContainer7RestoreERK8UnityStrPvy
sgi:_EventInfo__ctor_m1190141300
G_j:_InternalEnumerator_1_MoveNext_m3585886944_gshared
MJe:__Z57RectTransformUtility_CUSTOM_INTERNAL_CALL_PixelAdjustRectP12Il2CppObjectS0_R5RectTIfE
BMh:_DelayedFixupRecord_FixupImpl_m4249966635
J_l:_emscripten_glStencilMask__wrapper
zte:__ZZ29InitializeTextRenderingModulevEN40CleanUpTextRenderingGarbageCollectstruct7ForwardEv
$Xg:_BigInteger_op_Implicit_m4032862257
U9:__ZN11TypeManager19ClassNameToTypeInfoEPKcb
NXg:_BigInteger_ToString_m3837784224
tYa:__ZN15RenderNodeQueue7CleanupEv
HQa:__ZNK17ArchiveFileSystem8PositionERK13FileEntryData
D4c:__ZN16NovodexAllocator8allocateEjPKcS1_i
mJf:_DllNotFoundException__ctor_m267198482
fFl:__ZNSt3__215basic_streambufIcNS_11char_traitsIcEEEC2Ev
bTi:__ZL81U3CMouseDragOutsideRectU3Ec__Iterator1_t2599668326_CustomAttributesCacheGeneratorP21CustomAttributesCache
bPj:_NativeEventCalls_CreateEvent_internal_m1605829321
o0e:_Array_Sort_TisUIVertex_t1204258818_TisUIVertex_t1204258818_m1327748421_gshared
hNi:__ZL73RuntimePlatform_t1869584967_CustomAttributesCacheGenerator_MetroPlayerX64P21CustomAttributesCache
tQk:__ZL24UnresolvedVirtualCall_13P12Il2CppObjectaPK10MethodInfo
oZi:__Z65RuntimeInvoker_Int32_t2071877448_Il2CppObject_Int32U26_t455636984PK10MethodInfoPvPS2_
g3a:__ZN9ShaderLab10GrabPassesD2Ev
wYh:_GUIStyle_set_font_m312124587
xyb:__ZN14Texture2DArray13UploadTextureEv
nhj:__Z69RuntimeInvoker_TextGenerationSettings_t2543476768_Vector2_t2243707579PK10MethodInfoPvPS2_
Bdf:_SecurityFrame_t1002202659_marshal_pinvoke
Ixe:_tt_cmap14_done
Ssa:__ZN18AwakeFromLoadQueue25RegisterObjectInstanceIDsEv
ghe:__ZN5physx21PxProfileNameProviderD2Ev
gpf:_Buffer_BlockCopy_m1586717258
$Yk:__ZN15dense_hashtableI10KeyWrapperIPK17Il2CppGenericInstES4_N6il2cpp8metadata21Il2CppGenericInstHashEN14dense_hash_setIS4_S7_NS6_24Il2CppGenericInstCompareENSt3__29allocatorIS4_EEE8IdentityES9_SC_E12maybe_shrinkEv
fxi:__ZL93X509Certificate_t283079845_CustomAttributesCacheGenerator_X509Certificate_GetName_m2354987368P21CustomAttributesCache
_ni:__ZL65Il2CppArray_CustomAttributesCacheGenerator_Array_Copy_m1969461849P21CustomAttributesCache
sre:__ZN20TextRenderingPrivate19NativeTextGenerator15InsertCharacterEiPj
$Ld:__ZN5physx2Sc5Scene22removeBroadPhaseRegionEj
v9i:__Z52RuntimeInvoker_Void_t1841601450_ColorU26_t3402129837PK10MethodInfoPvPS2_
D3c:__ZN5physx2Cm12RenderBuffer5clearEv
JMf:_CompareInfo_GetSortKey_m3691382873
Nxd:__ZNK5physx2Sc9ClothCore21getStiffnessFrequencyEv
SJc:__ZN11b2RopeJoint24SolveVelocityConstraintsERK12b2SolverData
BGf:_DBNull_ToString_m3228904745
GNa:__ZN14GfxDeviceStats15SetScreenParamsEiiiiii
rmh:_WebHeaderCollection_AddWithoutValidate_m1479880592
r8e:_SHA1Managed_HashCore_m2658295635
V6i:__Z80RuntimeInvoker_Void_t1841601450_Int32_t2071877448_Int32_t2071877448_Il2CppObjectPK10MethodInfoPvPS2_
rUd:__ZN5physx13PxsCCDContext14postCCDAdvanceEPNS_10PxBaseTaskE
Kll:__ZNK15dense_hashtableINSt3__24pairIK10KeyWrapperIP12Il2CppObjectEN6il2cpp2gc9CachedCCWEEES5_NS7_5utils11PointerHashIS3_EEN14dense_hash_mapIS5_S9_SD_NS0_8equal_toIS5_EENS0_9allocatorISA_EEE9SelectKeyESG_SI_E13find_positionERS6_
G8g:_RC4_get_IV_m506011366
Zzk:_X509Crl__ctor_m2469408229
JSb:__Z18Transfer_BlittableI19StreamedBinaryWriteILb0EELb0EyEvRK29SerializationCommandArgumentsR31RuntimeSerializationCommandInfo
uui:__ZL82SafeHandle_t2733794115_CustomAttributesCacheGenerator_SafeHandle_Close_m1146946803P21CustomAttributesCache
tuh:_Enumerator_get_CurrentValue_m3562053380_AdjustorThunk
jrh:_X509SubjectKeyIdentifierExtension_CopyFrom_m136762226
D5:__Z12MurmurHash2APKvij
YOf:_Enumerator_System_Collections_IEnumerator_Reset_m610822832_AdjustorThunk
J6g:_ASN1_get_Length_m778823697
xhl:__ZN6il2cpp6icalls8mscorlib6System2IO6MonoIO20GetFileSystemEntriesEP12Il2CppStringS6_iiPi
Goc:__Z41MonoBehaviour_Set_Custom_PropUseGUILayoutP12Il2CppObjecth
nse:_UNITY_FT_Open_Face
jWl:_glGenRenderbuffers__wrapper
Tsj:_Bounds_ToString_m1966597703
JYg:_BigInteger_op_Division_m1581119694
GYb:__ZN16ScriptingManagerD0Ev
Jmi:__ZL81Decimal_t724701077_CustomAttributesCacheGenerator_Decimal_op_Implicit_m2135798419P21CustomAttributesCache
Col:__ZNK15dense_hashtableINSt3__24pairIK10KeyWrapperIP14Il2CppIUnknownEjEES5_N6il2cpp5utils11PointerHashIS3_EEN14dense_hash_mapIS5_jSB_NS0_8equal_toIS5_EENS0_9allocatorIS7_EEE9SelectKeyESE_SG_E12test_deletedERK24dense_hashtable_iteratorIS7_S5_SB_SI_SE_SG_E
cOh:_CallbackHandler_Invoke_m1498072969
bSh:_DSACryptoServiceProvider__ctor_m701823690
H_d:__ZNK5physx10BPWorkTask7getNameEv
IVh:_Mathf_Clamp_m2354025655
aai:_CustomAttributeData_GetCustomAttributes_m2421330738
Nmd:__ZN5physx2Sc8ShapeSim16onResetFilteringEv
ESj:_Type_get_IsEnum_m313908919
ukc:__Z44Register_UnityEngine_Component_get_transformv
s_f:_List_1_Reverse_m3395936565_gshared
Ilc:__Z39GameObject_CUSTOM_FindGameObjectWithTagP12Il2CppString
M4f:_Collection_1_System_Collections_ICollection_CopyTo_m1335644572_gshared
jr:__ZN4PPtrI9TransformE8TransferI18StreamedBinaryReadILb1EEEEvRT_
nYf:_List_1_CheckMatch_m2830747427_gshared
oad:__ZN5physx2Sc16ActorInteractionD2Ev
PNa:__ZN17ArchiveFileSystem12MountArchiveEPKcS1_
VIf:_StackFrame_GetMethod_m72881026
ikl:__ZN15dense_hashtableI10KeyWrapperIP18Il2CppGenericClassES3_N6il2cpp8metadata22Il2CppGenericClassHashEN14dense_hash_setIS3_S6_NS5_25Il2CppGenericClassCompareENSt3__29allocatorIS3_EEE8IdentityES8_SB_E15set_deleted_keyERKS3_
QEc:__Z18Transfer_BlittableI9JSONWriteLb1E8Vector4fEvRK29SerializationCommandArgumentsR31RuntimeSerializationCommandInfo
m7:__Z11RequireTypePKcS0_S0_
UEl:__ZThn8_NSt3__214basic_iostreamIcNS_11char_traitsIcEEED0Ev
Euh:_Enumerator_System_Collections_IEnumerator_Reset_m70453843_gshared
tnd:__ZN5physx2Sc16ArticulationCore26setExternalDriveIterationsEj
Avk:_Vector3_get_Item_m3616014016
xUi:__ZL59Slider_t297367283_CustomAttributesCacheGenerator_m_MinValueP21CustomAttributesCache
WAa:__ZN9GfxDevice15ImmediateVertexEfff
Y3b:__Z13RegisterClassI8MaterialEvv
xyi:__ZL51Evidence_t1407710183_CustomAttributesCacheGeneratorP21CustomAttributesCache
MDd:__ZN5physx14NpRigidDynamic10clearForceENS_11PxForceMode4EnumE
lnb:__ZN16GraphicsSettings13AwakeFromLoadE17AwakeFromLoadMode
OLf:_FieldAccessException__ctor_m3893881490
sej:__Z82RuntimeInvoker_Int32_t2071877448_Rect_t3681755626_Il2CppObject_Vector2_t2243707579PK10MethodInfoPvPS2_
Vq:__ZN6Object13AwakeFromLoadE17AwakeFromLoadMode
Kya:__ZN13GfxDeviceGLES15SetStencilStateEPK18DeviceStencilStatei
bGe:__ZN2UI11CanvasGroup8TransferI18StreamedBinaryReadILb1EEEEvRT_
XBl:_cycle
qsk:_TextGenerator_Populate_m4139823822
FFi:__ZL72PKCS12_t1362584795_CustomAttributesCacheGenerator_U3CU3Ef__switchU24map5P21CustomAttributesCache
pe:_emscripten_glUniform1iv
RMj:_Text_get_preferredHeight_m452532789
KNc:__ZN15b2DistanceProxy3SetEPK7b2Shapei
Tef:_String_System_IConvertible_ToDouble_m3860911722
Wcb:__ZN16MemoryFileSystemD2Ev
yBh:_Dictionary_2_System_Collections_Generic_ICollectionU3CSystem_Collections_Generic_KeyValuePairU3CTKeyU2CTValueU3EU3E_Contains_m842343255_gshared
Z6g:_ARC4Managed__ctor_m2922048522
Ere:__Z17dynamic_pptr_castIP9Texture2D7TextureET_RK4PPtrIT0_E
Zy:__ZN7mecanim14ValueArrayLoopERKNS_10ValueArrayES2_RS0_fRKNS_14ValueArrayMaskE
Sdg:_ReadOnlyCollection_1_System_Collections_IList_set_Item_m1272038804_gshared
SZj:_InternalEnumerator_1_System_Collections_IEnumerator_get_Current_m1931522460_AdjustorThunk
OJa:__ZN14DrawBufferGLESI12VertexBuffer27VertexBufferUsageMapperGLESE12EnsureBufferEj
Yaf:_SecurityPermission_IsEmpty_m1869313067
Sca:__ZN13RuntimeStaticI23MeshVertexFormatManagerE13StaticDestroyEPv
nJa:__ZN7ApiGLES15TextureSubImageEj16TextureDimensionN2gl9TexFormatEiiiiiiiiPKv
Rjc:__Z37Register_UnityEngine_Camera_get_depthv
_$g:_EncryptedPrivateKeyInfo_get_Salt_m2734354394
Pwb:__ZN12ImmediatePtrI9TransformE8TransferI18StreamedBinaryReadILb1EEEEvRT_
u8b:__ZN12MeshRenderer7PRODUCEE18MemLabelIdentifier18ObjectCreationMode
qgg:_ReadOnlyCollection_1_System_Collections_Generic_IListU3CTU3E_set_Item_m1918537449_gshared
_3f:_Collection_1_System_Collections_ICollection_CopyTo_m3896480607_gshared
Tlg:_PointerEventData_set_position_m794507622
OZd:__ZNK5physx16PxsBroadPhaseMBP18getNumDeletedPairsEv
Mke:__ZN5physx7profile8ZoneImplINS_28PxProfileNameProviderForwardEE10startEventEty
Vea:__ZN15dense_hashtableINSt3__24pairIKPKcPK4RTTIEES3_N11TypeManager23ConstCharPtrHashFunctorEN14dense_hash_mapIS3_S7_SA_NS9_19ConstCharPtrEqualToE13stl_allocatorIS8_L18MemLabelIdentifier6ELi16EEE9SelectKeyESC_SF_E12resize_deltaEjj
LUd:__ZN5physx10PxsCCDPair17sweepAdvanceToToiEfb
q3b:__ZN15ApplicationInfo16GetInstallerNameEv
zcb:__Z23ConvertIntegerToTypePtrItEbPvR14SafeBinaryRead
oF:__ZN7mecanim5human29HumanGetGoalOrientationOffsetENS0_4GoalE
Ge:_emscripten_glStencilFunc
o2i:__Z101RuntimeInvoker_Void_t1841601450_Il2CppObject_Il2CppObject_Il2CppObject_Il2CppObject_Int32_t2071877448PK10MethodInfoPvPS2_
Pld:__ZN5physx6shdfnd8PoolBaseINS_2Cm5BlockIhLj384EEENS0_19ReflectionAllocatorIS4_EEE17releaseEmptySlabsEv
M8d:__ZN5physx16PxsIslandManager11freeBuffersEv
mQk:__ZL23UnresolvedVirtualCall_6P12Il2CppObjectiPK10MethodInfo
b8:__ZN18AwakeFromLoadQueueD2Ev
jji:_MonoMethod_MakeGenericMethod_impl_m2063853616
yed:__ZN5physx2Cm12DelegateTaskINS_2Sc17ParticleSystemSimEXadL_ZNS3_21prepareCollisionInputEPNS_10PxBaseTaskEEEE11runInternalEv
Cdf:__Z46il2cpp_codegen_get_marshal_directive_exceptionPKc
T1b:__ZN9ShaderLab20SerializedSubProgram14AddMatrixParamEPKcii15ShaderParamTypei
Me:_glGetActiveUniformBlockName
RNh:__ZN16VirtFuncInvoker0I18Decimal_t724701077E6InvokeEjPv
Gug:_FontData_set_verticalOverflow_m4211463083
soi:__ZL65Il2CppArray_CustomAttributesCacheGenerator_Array_Sort_m2090966156P21CustomAttributesCache
uGg:_Guid_AppendByte_m2890893073
l5d:__ZL28removeBrokenEdgesFromIslandsPKjjS0_jS0_RKN5physx11NodeManagerERNS1_11EdgeManagerERNS1_13IslandManagerERNS1_2Cm10BitMapBaseINS1_6shdfnd9AllocatorEEEPSD_
sqf:_Char_System_IConvertible_ToType_m3106771703_AdjustorThunk
jth:_Interval_Intersects_m3480157390_AdjustorThunk
znc:__Z39Quaternion_CUSTOM_INTERNAL_CALL_InverseRK11QuaternionfRS_
Abk:_GCHandle_Alloc_m1063472408
UP:__ZN4FMOD7Channel20set3DConeOrientationEP11FMOD_VECTOR
yQi:__ZL86StandaloneInputModule_t70867863_CustomAttributesCacheGenerator_m_InputActionsPerSecondP21CustomAttributesCache
mo:FUNCTION_TABLE_iiifii
Wth:_Comparer_1__ctor_m4052560291_gshared
eLi:__ZL54SkeletonBone_t345082847_CustomAttributesCacheGeneratorP21CustomAttributesCache
jRh:_CryptoConfig_CreateFromName_m391442950
Sjl:__ZN6il2cpp2vm12GenericClass11SetupEventsEP11Il2CppClass
QDe:_tt_delta_interpolate
Bxe:_tt_cmap12_get_info
yxf:_SortedList__ctor_m3698381356
tnj:__Z31RuntimeInvoker_Slot_t2022531261PK10MethodInfoPvPS2_
IPg:_StreamWriter_LowLevelWrite_m4205372900
RPk:__ZN6il2cpp6icalls8mscorlib6System7Decimal14decimalCompareEP19il2cpp_decimal_reprS5_
Xgd:__ZN5physx26PxcFsComputeJointLoadsSimdERKNS_9PxcFsDataEPKNS_12PxcFsInertiaEPNS_6shdfnd3aos6Mat33VEPKfjjNS_21PxcFsScratchAllocatorE
thi:_Module__ctor_m3853650010
dvf:_CollectionBase_System_Collections_IList_get_Item_m2370387510
gHl:__ZNSt3__29__num_putIcE23__widen_and_group_floatEPcS2_S2_S2_RS2_S3_RKNS_6localeE
EGd:__ZN5physx6shdfnd8SyncImpl7getSizeEv
uwi:__ZL59RemotingException_t109604560_CustomAttributesCacheGeneratorP21CustomAttributesCache
v2:__Z15CreateDirectoryRKNSt3__212basic_stringIcNS_11char_traitsIcEENS_9allocatorIcEEEE
koa:__ZNSt3__26__treeINS_12__value_typeIN9ShaderLab16FastPropertyNameE10ColorRGBAfEENS_19__map_value_compareIS3_S5_NS_4lessIS3_EELb1EEENS_9allocatorIS5_EEE12__find_equalIS3_EERPNS_16__tree_node_baseIPvEENS_21__tree_const_iteratorIS5_PNS_11__tree_nodeIS5_SF_EEiEESI_RKT_
BXl:_glCopyTexImage2D__wrapper
Czi:__ZL88UTF7Encoding_t741406939_CustomAttributesCacheGenerator_UTF7Encoding_GetBytes_m3015176946P21CustomAttributesCache
uBg:_LayoutElement__ctor_m789941073
_Oi:__ZL77ExecuteEvents_t1693084770_CustomAttributesCacheGenerator_U3CU3Ef__mgU24cache9P21CustomAttributesCache
Btj:_Camera_FireOnPreCull_m1679634170
Lti:__ZL68TargetInvocationException_t4098620458_CustomAttributesCacheGeneratorP21CustomAttributesCache
ADi:__ZL56RankException_t1539875949_CustomAttributesCacheGeneratorP21CustomAttributesCache
m1c:__ZN5physx11PxHitBufferINS_12PxRaycastHitEED0Ev
PDg:_NumberFormatter_CountTrailingZeros_m2398864634
i3g:___Il2CppComDelegate_t3311706788_create_ccw
mqa:__ZN6prcoreL17RemapGenericFloatI14TexFormatRHalf15TexFormatRFloatEEvPKNS_9InnerInfoE
i3a:__Z16ShouldUseShadowsb
yih:_TlsStream_SetLength_m1460039587
LQk:__ZL24UnresolvedVirtualCall_31P12Il2CppObjectiS0_S0_PK10MethodInfo
BWc:__ZN5physx2Gu24contactSphereHeightFieldERKNS0_13GeometryUnionES3_RKNS_11PxTransformES6_RKfRNS0_5CacheERNS0_13ContactBufferE
Okj:__Z55RuntimeInvoker_Int32_t2071877448_UICharInfo_t3056636800PK10MethodInfoPvPS2_
GGa:__ZN7ApiGLES10DrawArraysE16GfxPrimitiveTypejjj
Hyj:_Event_PopEvent_m1952528237
LSc:__ZN5physx3Cct13BoxController15getPxControllerEv
EN:__ZN10SampleClip13LoadBaseSoundEv
WYc:__ZN5physx2Gu22gjkRelativePenetrationINS0_17ShrunkConvexHullVES2_EEjRKT_RKT0_RKNS_6shdfnd3aos15PsMatTransformVERKNSA_6FloatVERNSA_5Vec3VESI_SI_RSE_PhSK_Rh
KZh:_GUIStyleState__ctor_m2708667747
O0i:__Z62RuntimeInvoker_Il2CppObject_Int32_t2071877448_SByte_t454417549PK10MethodInfoPvPS2_
Ow:__ZN7mecanim9animation4Clip8TransferI19StreamedBinaryWriteILb0EEEEvRT_
K8f:_Collection_1_Contains_m643401393_gshared
K9d:__ZN5physx2Sc19ParticlePacketShapeC2ERNS0_17ParticleSystemSimEjPNS_16PxvParticleShapeE
soa:__ZN22DeviceMVPMatricesStateC2ER9GfxDevice
okk:_Regex_IsMatch_m1286520424
Eqd:__ZN5physx9NpPhysics18createTriangleMeshERNS_13PxInputStreamE
Bo:FUNCTION_TABLE_iiiiifiiiif
k5i:__Z48RuntimeInvoker_Int64_t909078037_Int64_t909078037PK10MethodInfoPvPS2_
Lef:_String__ctor_m372528291
Oea:__ZN6Object16StaticInitializeEv
F5d:__ZN5physx2Cm12DelegateTaskINS_2Sc5SceneEXadL_ZNS3_14updateDynamicsEPNS_10PxBaseTaskEEEED0Ev
zal:__ZN6il2cpp2vm10Reflection12HasAttributeEP9FieldInfoP11Il2CppClass
zsa:__ZNSt3__26__treeIiNS_4lessIiEE13stl_allocatorIiL18MemLabelIdentifier1ELi16EEE7destroyEPNS_11__tree_nodeIiPvEE
Oc:invoke_viiifi
MPi:__ZL104PointerEventData_t1599784723_CustomAttributesCacheGenerator_PointerEventData_get_pointerDrag_m2740415629P21CustomAttributesCache
jKi:__ZL79Physics_t634932869_CustomAttributesCacheGenerator_Physics_RaycastAll_m233036521P21CustomAttributesCache
KSg:_LongComparer_Compare_m3981323622
I_i:__Z64RuntimeInvoker_UInt64_t2909196914_Il2CppObject_Int32_t2071877448PK10MethodInfoPvPS2_
Yde:__ZN5physx6shdfnd5ArrayIPNS_7PxActorENS0_19ReflectionAllocatorIS3_EEE8recreateEj
lWi:__ZL109LayoutUtility_t4076838048_CustomAttributesCacheGenerator_LayoutUtility_U3CGetFlexibleHeightU3Em__7_m947156537P21CustomAttributesCache
QNc:__ZNSt3__27__sort4IRN15Cast2DQueryBase14FixtureContactEPS2_EEjT0_S5_S5_S5_T_
GLj:_Slider_FindSelectableOnUp_m15474611
Dwa:__ZNK11AssetBundle14GetPreloadDataEiR13dynamic_arrayIiLj4EE
h1g:_EncryptedData_get_EncryptedContent_m2732115576
_6h:_RenderTexture_INTERNAL_CALL_Release_m1818573204
Wf:_JS_Sound_SetPosition
Mjk:_Assertion_set_FalseExpression_m1781616372
frh:_X509SubjectKeyIdentifierExtension_FromHexChars_m2515150420
tua:__ZNK9Texture3D26CanReuploadDataToGfxDeviceEv
f$k:__ZL13GetSharedInstPK17Il2CppGenericInst
$oi:__ZL51IReflect_t3412036974_CustomAttributesCacheGeneratorP21CustomAttributesCache
Xng:_StandaloneInputModule_SendSubmitEventToSelectedObject_m3421155293
uck:_AppDomainLevelActivator__ctor_m230071814
awj:_Component_GetComponentsInChildren_m908027537
UKe:__ZN22BaseUnityConnectClient17SaveSessionValuesEv
_fk:_CallContextRemotingData_Clone_m2226242476
d8:__Z63ThreadAndSerializationSafeCheckSetMonoBehaviourBeingTransferredP13MonoBehaviour
aud:__ZNK5physx7NpCloth14getNbParticlesEv
z6c:__ZN5physx2Sc10NPhaseCore24releaseShapeInstancePairEPNS0_19ShapeInstancePairLLEjj
n3a:__Z24SetupActiveLightsContextR21ActiveLightingContextRK12ActiveLightsRK11CullResultsP14ShadowMapCacheRK10MinMaxAABB
oCh:_Dictionary_2_System_Collections_Generic_ICollectionU3CSystem_Collections_Generic_KeyValuePairU3CTKeyU2CTValueU3EU3E_Contains_m3400497673_gshared
Pqc:__Z38Sprite_CUSTOM_INTERNAL_get_textureRectP12Il2CppObjectP5RectTIfE
xGf:_DBNull_System_IConvertible_ToUInt32_m2681284284
HTh:_GUILayoutUtility_DoGetRect_m33366174
s_h:_HumanBone_set_boneName_m2410239828_AdjustorThunk
lmb:__ZN6Camera8TransferI24GenerateTypeTreeTransferEEvRT_
aIh:_EqualityComparer_1__cctor_m416314417_gshared
Ra:invoke_iiiiiiif
Ka:invoke_iiiiiiii
nJb:__ZN24RingBufferMemoryFileData16ConsumeReadBytesEy
jYd:__ZN5physx21SapPostUpdateWorkTaskD0Ev
WOa:__ZN15dense_hashtableINSt3__24pairIKNS0_12basic_stringIcNS0_11char_traitsIcEE13stl_allocatorIcL18MemLabelIdentifier54ELi16EEEEP20ArchiveStorageReaderEES8_11djb2_hash_tIS8_EN14dense_hash_mapIS8_SB_SE_NS0_8equal_toIS8_EES5_ISC_LS6_54ELi16EEE9SelectKeyESH_SI_E12maybe_shrinkEv
a1h:_Mesh_GetUVChannel_m364477864
yph:_X509ChainElementCollection_Contains_m3599995067
GZl:b120
wmd:__ZN5physx7NpActor18releaseConstraintsERNS_12PxRigidActorE
J3c:__ZN5physx6shdfnd5ArrayINS_11PxDebugLineENS0_19ReflectionAllocatorIS2_EEE8recreateEj
OZl:b125
MZl:b124
N_l:b127
PZl:b126
P_l:b129
Vpc:__Z52Register_UnityEngine_RectTransform_INTERNAL_get_rectv
nXi:__Z53RuntimeInvoker_Il2CppObject_Il2CppObject_Il2CppObjectPK10MethodInfoPvPS2_
xCd:__ZNK5physx22NpParticleBaseTemplateINS_16PxParticleSystemENS_16NpParticleSystemEE20getMaxMotionDistanceEv
Awg:_GridLayoutGroup_set_spacing_m118889422
yZf:_List_1_ToArray_m2390522926_gshared
Dui:__ZL70TypeLibImportClassAttribute_t2390314680_CustomAttributesCacheGeneratorP21CustomAttributesCache
Aha:__ZN19RenderBufferManager13GetTempBufferEii17DepthBufferFormat19RenderTextureFormatj22RenderTextureReadWrite14VRTextureUsagei
nGb:__ZN18StreamedBinaryReadILb0EE21TransferSTLStyleArrayI13dynamic_arrayI16SplashScreenLogoLj4EEEEvRT_17TransferMetaFlags
P5k:__ZNK15dense_hashtableINSt3__24pairIK10KeyWrapperINS1_IPK9FieldInfoP11Il2CppClassEEEjEES9_17ReflectionMapHashIS8_EN14dense_hash_mapIS9_jSD_19ReflectionMapEqualsIS8_ENS0_9allocatorISB_EEE9SelectKeyESG_SI_E12test_deletedERK24dense_hashtable_iteratorISB_S9_SD_SK_SG_SI_E
pEd:__ZNK5physx14NpRigidDynamic25getContactReportThresholdEv
nef:_Single_CompareTo_m2081476257
hRe:_Array_InternalArray__ICollection_Remove_TisX509ChainStatus_t4278378721_m4127982424_gshared
gkc:__Z47Register_UnityEngine_Camera_get_allCamerasCountv
Iyd:__ZN5physx22NpParticleBaseTemplateINS_15PxParticleFluidENS_15NpParticleFluidEE16releaseParticlesEv
iHc:__ZN14b2CapsuleShapeD2Ev
XKe:__ZN22BaseUnityConnectClient20StartEventDispatcherEv
Qcc:__ZNSt3__26vectorIj13stl_allocatorIjL18MemLabelIdentifier1ELi16EEE6assignIPKtEENS_9enable_ifIXaasr21__is_forward_iteratorIT_EE5valuesr16is_constructibleIjNS_15iterator_traitsIS9_E9referenceEEE5valueEvE4typeES9_S9_
FD:__ZN7mecanim9animation16EvaluateAvatarIKEPKNS0_14AvatarConstantEPKNS0_11AvatarInputEPNS0_12AvatarOutputEPNS0_12AvatarMemoryEPNS0_15AvatarWorkspaceEb
pHa:__ZL25ProgramUniformMatrix4x3fvPK7ApiGLESjiihPKv
Sbb:__Z29StdTemplateConversionFunctionIsiEbPvR14SafeBinaryRead
m5d:__Z22updateIslandsToProcessRKN5physx2Cm10BitMapBaseINS_6shdfnd9AllocatorEEEPKjRKNS_11NodeManagerERS4_
$Gh:_EqualityComparer_1_System_Collections_IEqualityComparer_Equals_m3376587337_gshared
Voi:__ZL68Type_t_CustomAttributesCacheGenerator_Type_GetConstructor_m835344477P21CustomAttributesCache
mTa:__ZN12InputManager13InputEndFrameEv
dxf:_SyncHashtable__ctor_m2029869827
Z1k:__ZNSt3__26__treeIP11Il2CppClassNS_4lessIS2_EENS_9allocatorIS2_EEE25__emplace_unique_key_argsIS2_JRKS2_EEENS_4pairINS_15__tree_iteratorIS2_PNS_11__tree_nodeIS2_PvEEiEEbEERKT_DpOT0_
oal:__ZN15dense_hashtableINSt3__24pairIK10KeyWrapperINS1_IPK9FieldInfoP11Il2CppClassEEEjEES9_17ReflectionMapHashIS8_EN14dense_hash_mapIS9_jSD_19ReflectionMapEqualsIS8_ENS0_9allocatorISB_EEE9SelectKeyESG_SI_EC2EjRKSD_RKSG_RKSK_
ebl:__ZN6il2cpp2vm6Thread5SetupEP12Il2CppThread
whe:__ZN8Collider30GetRelativePositionAndRotationERK9TransformR10Matrix4x4f
wBj:_Playables_SetPlayStateValidated_m770460097
RUd:__ZN5physx35PxcSweepEstimateAnyShapeHeightfieldERKNS_11PxsCCDShapeES2_PKNS_12PxsRigidBodyES5_RKNS_11PxTransformES8_f
Fhg:_ReadOnlyCollection_1_System_Collections_IList_Remove_m2200089035_gshared
c4c:__ZN5physx3Cct13BoxControllerC2ERKNS_16PxControllerDescERNS_9PxPhysicsEPNS_7PxSceneE
V3f:_Collection_1_CheckWritable_m2756357359_gshared
jDl:___munmap
Pyg:_InputField_get_characterLimit_m2386380888
iRi:__ZL68ColorBlock_t2652774230_CustomAttributesCacheGenerator_m_PressedColorP21CustomAttributesCache
bCf:_Convert_ToInt64_m1722087499
S1a:__ZN22RenderingCommandBuffer24PostExecuteCommandBufferER17ShaderPassContextP13RenderTexture
Og:_localtime_r
Mff:__ZN16VirtFuncInvoker3IbP8String_tS1_iE6InvokeEjPvS1_S1_i
E9i:__Z80RuntimeInvoker_Il2CppObject_Ray_t2469606224_Single_t2076509932_Int32_t2071877448PK10MethodInfoPvPS2_
yAi:__ZL81AppDomain_t2719102437_CustomAttributesCacheGenerator_assembly_resolve_in_progressP21CustomAttributesCache
pui:__ZL65InterfaceTypeAttribute_t4113096249_CustomAttributesCacheGeneratorP21CustomAttributesCache
MOh:_CallbackHandler_EndInvoke_m2406225629
Rg:_strftime
Lha:__ZN7Texture33SetStoredColorSpaceNoDirtyNoApplyE17TextureColorSpace
V2:__ZN12FileAccessorD2Ev
nna:__ZN10ColorRGBAf8TransferI18StreamedBinaryReadILb0EEEEvRT_
Uzb:__ZN14VertexDataInfoC2Ev
JLf:_Exception_GetObjectData_m2653827630
Hvk:_Vector3_Equals_m2692262876_AdjustorThunk
h1j:_InternalEnumerator_1_get_Current_m2415979394_gshared
Zdh:_TlsClientHello_Update_m1723542631
GWb:__ZL17Transfer_GUIStyleI18StreamedBinaryReadILb1EELb1EEvRK29SerializationCommandArgumentsR31RuntimeSerializationCommandInfo
EIj:_ScrollRect_SetDirtyCaching_m1491302821
s2k:__ZN6il2cpp6icalls8mscorlib6SystemL9IsPrivateEPK12PropertyInfo
XUd:__ZNK5physx18PxcConvexTriangles16getPolygonNormalEj
cai:_CustomAttributeData_GetCustomAttributes_m3258419955
f6:__ZN9shadertag10InitializeEv
bme:__ZN5physx24NpPtrTableStorageManager8canReuseEjj
wif:_EncoderFallback__ctor_m1639180960
w8j:_InternalEnumerator_1_MoveNext_m1441038493_gshared
dwb:__ZN15QualitySettings14QualitySetting8TransferI24GenerateTypeTreeTransferEEvRT_
PXe:_Array_InternalArray__ICollection_CopyTo_TisParameterModifier_t1820634920_m4127516211_gshared
mdf:_DecoderReplacementFallback__ctor_m2344783488
Hvh:_Enumerator_System_Collections_IDictionaryEnumerator_get_Key_m467957770_AdjustorThunk
fJd:__ZN5physx2Sc27ConstraintProjectionManager33processConstraintForGroupBuildingEPNS0_13ConstraintSimERNS0_20ScratchAllocatorListIS3_Lj64EEE
Su:__ZN17AnimationCurveTplI8Vector3fE8TransferI18StreamedBinaryReadILb1EEEEvRT_
dvg:_GraphicRegistry_UnregisterGraphicForCanvas_m820096873
BEe:__Z28Font_Get_Custom_PropMaterialP12Il2CppObject
Dwl:__ZN6il2cpp6icalls8mscorlib6System9Threading16NativeEventCalls19ResetEvent_internalE12Il2CppIntPtr
QOi:__ZL65EventTrigger_t1967201810_CustomAttributesCacheGenerator_delegatesP21CustomAttributesCache
k5f:_Collection_1_Remove_m4136193368_gshared
cCf:_Decimal__ctor_m1770144563
Ikg:_EventTrigger_OnPointerUp_m2791622548
NKj:_Shadow_set_useGraphicAlpha_m141905402
_bc:__ZN22BlockMemoryCacheWriter14LockCacheBlockEjPPhS1_
Wpl:__ZN6il2cpp2os6Thread10RunWrapperEPv
nvc:__ZNSt3__218__insertion_sort_3IRPFbPKN5IMGUI9GUIWindowES4_EPPS2_EEvT0_SA_T_
DMk:_GenericEqualityComparer_1_Equals_m1109000020_gshared
vBd:__ZN5physx22NpParticleBaseTemplateINS_15PxParticleFluidENS_15NpParticleFluidEED2Ev
gMi:__ZL61GUISkin_t1436893342_CustomAttributesCacheGenerator_m_textAreaP21CustomAttributesCache
kHd:__ZN5physx2Cm29ConstraintImmediateVisualizer19visualizeDoubleConeERKNS_11PxTransformEfb
FBc:__Z22TransferField_NonArrayI8JSONRead27Converter_SimpleNativeClassI8GUIStyleEEvRK23StaticTransferFieldInfoR31RuntimeSerializationCommandInfoRT0_
W5k:__ZN15dense_hashtableINSt3__24pairIK10KeyWrapperIPK10Il2CppTypeEjEES6_N6il2cpp8metadata14Il2CppTypeHashEN14dense_hash_mapIS6_jSB_NSA_17Il2CppTypeCompareENS0_9allocatorIS8_EEE9SelectKeyESD_SF_E12resize_deltaEjj
wTc:__ZN5physx6shdfnd5ArrayINS_13PxExtendedBoxENS0_19ReflectionAllocatorIS2_EEE8recreateEj
z_d:__ZN5physx20ProcessBPResultsTask11runInternalEv
Jad:__ZN5physx6shdfnd5ArrayIPvNS0_19ReflectionAllocatorINS_2Cm5BlockIS2_Lj16EEEEEE4copyINS0_15InlineAllocatorILj256ES7_EEEEvRKNS1_IS2_T_EE
wh:_llvm_eh_typeid_for
S9b:__Z13RegisterClassI10GameObjectEvv
Bqi:__ZL53HashValues_t2390200547_CustomAttributesCacheGeneratorP21CustomAttributesCache
hoh:_X509BasicConstraintsExtension_get_PathLengthConstraint_m3004531343
csi:__ZL125GenericTypeParameterBuilder_t1370236603_CustomAttributesCacheGenerator_GenericTypeParameterBuilder_GetConstructors_m103067670P21CustomAttributesCache
NJd:__ZN5physx7NpScene19getActiveTransformsERjh
m7d:__ZN5physx6shdfnd5ArrayIPKNS_24PxsIndexedContactManagerENS0_19ReflectionAllocatorIS4_EEE8recreateEj
RRg:_MissingMemberException__ctor_m4277447068
Aki:_StrongNameKeyPair_System_Runtime_Serialization_ISerializable_GetObjectData_m1693082120
R1a:__ZNK19RenderEventsContext25PostExecuteCommandBuffersEiR17ShaderPassContextP13RenderTextureP19ProfilerInformationi
mMa:__ZN9GfxDevice14EndBufferWriteEP9GfxBufferj
LLk:_EqualityComparer_1__ctor_m3155445483_gshared
Kol:__ZN6il2cpp2vm6Method8GetParamEPK10MethodInfoj
nJg:_Int64_CompareTo_m1953686218
_Lk:_GenericComparer_1__ctor_m221205314_gshared
shl:__ZN6il2cpp6icalls8mscorlib6System2IO6MonoIO4ReadE12Il2CppIntPtrP11Il2CppArrayiiPi
j_l:_glBindVertexArray__wrapper
uge:__ZN5physx6shdfnd5ArrayINS_11RTreeNodeNQENS0_19ReflectionAllocatorIS2_EEE19resizeUninitializedEj
v7c:__ZNK5physx2Sc16InteractionScene18getLLIslandManagerEv
ZRh:_DSA_Create_m3450041777
mma:__ZN8Material8TransferI14SafeBinaryReadEEvRT_
uUd:__ZN5physx17PxcNpMemBlockPool34acquireExceptionalConstraintMemoryEj
Xqb:__ZN12CubemapArray17UploadToGfxDeviceEv
zqa:__ZN6prcoreL17RemapGenericFloatI15TexFormatRGHalf17TexFormatRGBAHalfEEvPKNS_9InnerInfoE
XPf:_Enumerator_System_Collections_IEnumerator_Reset_m2200349770_gshared
G9f:_Collection_1_get_Item_m3791221403_gshared
Rxi:__ZL54PaddingMode_t3032142640_CustomAttributesCacheGeneratorP21CustomAttributesCache
Bij:__Z75RuntimeInvoker_Void_t1841601450_ConstraintU26_t2775779428_Int32_t2071877448PK10MethodInfoPvPS2_
GVd:__ZN5physxL23PxcSweepConvexTrianglesERKNS_11PxsCCDShapeES2_RKNS_11PxTransformES5_S5_S5_fRNS_6PxVec3ES7_RNS_10PxcNpCacheERNS_18PxcNpThreadContextERKNS_2Cm23FastVertex2ShapeScalingERNS_2Gu9TriangleVEf
esd:__ZNK5physx7NpShape16getPlaneGeometryERNS_15PxPlaneGeometryE
Woh:_X509Chain_CheckRevocationOnChain_m2441901351
B9e:_SymmetricAlgorithm_CreateDecryptor_m4240570785
Ege:__ZN5physx27InternalTriangleMeshBuilder14fillRemapTableEv
VN:__ZN11AudioSource4StopEb
Wed:__ZN5physx6shdfnd8PoolBaseINS_13NpRigidStaticENS0_19ReflectionAllocatorIS2_EEE17releaseEmptySlabsEv
qOb:__ZN14SafeBinaryRead21TransferSTLStyleArrayI13dynamic_arrayI10Matrix4x4fLj4EEEEvRT_17TransferMetaFlags
L9f:_Collection_1_CheckWritable_m732350052_gshared
tpf:_Byte_System_IConvertible_ToDecimal_m1036493607
oAi:__ZL47Timer_t791717973_CustomAttributesCacheGeneratorP21CustomAttributesCache
Gga:__Z25GetSplashScreenBackgroundRK5RectTIfE
e$j:_InternalEnumerator_1_System_Collections_IEnumerator_get_Current_m1679297177_gshared
pSi:__ZL65Image_t2042527209_CustomAttributesCacheGenerator_m_PreserveAspectP21CustomAttributesCache
R8j:_DefaultComparer_Compare_m1247109616_gshared
Pki:_ResourceManager__ctor_m498829021
xLa:__ZN18GlslGpuProgramGLESD2Ev
Xke:__ZThn116_NK5physx7profile8ZoneImplINS_28PxProfileNameProviderForwardEE10hasClientsEv
P1d:__ZN5physx2Gu20pcmContactCapsuleBoxERKNS0_13GeometryUnionES3_RKNS_11PxTransformES6_RKfRNS0_5CacheERNS0_13ContactBufferE
dOh:_SerializationCallbacks__ctor_m722356782
yBc:__ZN10Matrix4x4f8TransferI8JSONReadEEvRT_
WZh:_GUIUtility_INTERNAL_CALL_Internal_GetNextControlID2_m502958187
X7b:__ZN22GenericPropertyBinding8RegisterEPKc11ClassIDTypePFfPvEPFvS3_fE
W9:__ZN14dense_hash_mapIPKcPK4RTTIN11TypeManager23ConstCharPtrHashFunctorENS5_19ConstCharPtrEqualToE13stl_allocatorINSt3__24pairIKS1_S4_EEL18MemLabelIdentifier6ELi16EEE5beginEv
KNk:_Comparison_1_Invoke_m2255009434_gshared
bJf:_StackTrace__ctor_m772333217
npj:__Z93RuntimeInvoker_Il2CppObject_Vector2_t2243707579_Vector2_t2243707579_Il2CppObject_Il2CppObjectPK10MethodInfoPvPS2_
S7:__ZN17PersistentManager18ReadObjectThreadedEi
ECa:__ZN25TransformFeedbackSkinning31CleanupTransformFeedbackShadersEv
Cvl:__ZN6il2cpp6icalls8mscorlib6System7Runtime16CompilerServices14RuntimeHelpers15InitializeArrayEP11Il2CppArray12Il2CppIntPtr
G2j:_InternalEnumerator_1_System_Collections_IEnumerator_get_Current_m2851415307_gshared
ure:__ZNK20TextRenderingPrivate8FontImpl19GetCharacterAdvanceEjijfPj
Gyl:__ZN6il2cpp6icalls8mscorlib4Mono8Security12Cryptography18KeyPairPersistence16_IsUserProtectedEP12Il2CppString
tfh:__ZN16VirtFuncInvoker1IP28HandshakeMessage_t3938752374hE6InvokeEjPvh
Bfg:_ReadOnlyCollection_1_Contains_m3936562733_gshared
skh:_DefaultUriParser__ctor_m4218024811
Dbi:_DerivedType_GetField_m3960169619
_Gf:_Decimal_System_IConvertible_ToInt16_m3159038792_AdjustorThunk
pBb:__ZN10VertexData8TransferI18StreamedBinaryReadILb0EEEEvRT_
Ked:__ZN5physx2Sc5Scene9addStaticERNS0_10StaticCoreEPKPvjj
Khc:__Z39DeleteLastPathNameComponentWithAnySlashRKNSt3__212basic_stringIcNS_11char_traitsIcEENS_9allocatorIcEEEE
M1g:_PKCS12_GetExistingParameters_m2413397265
Z7f:_Collection_1_ClearItems_m4268731177_gshared
HCk:_LobsterProjectile__ctor_m3862696527
P9a:__ZN14PreloadManager16UpdatePreloadingEv
vlb:__ZN12BaseRendererD2Ev
Nxk:_X509CertificateCollection__ctor_m858704242
eJl:__ZNKSt3__210moneypunctIcLb1EE16do_thousands_sepEv
XQf:_Enumerator__ctor_m425576865_AdjustorThunk
uQd:__ZN5physx2Sc5Scene9addShapesEPKPvjjRNS0_8RigidSimEPNS_12PxsRigidBodyERPNS0_8ShapeSimEPNS_9PxBounds3E
T$i:__Z148RuntimeInvoker_Int32_t2071877448_Il2CppObject_Int32_t2071877448_Int32_t2071877448_Il2CppObject_Int32_t2071877448_Int32_t2071877448_Int32_t2071877448PK10MethodInfoPvPS2_
Chg:_ReadOnlyCollection_1_System_Collections_IList_Contains_m1545447998_gshared
MVi:__ZL79LayoutRebuilder_t2155218138_CustomAttributesCacheGenerator_U3CU3Ef__mgU24cache0P21CustomAttributesCache
F0d:__ZN5physx23PxcPCMContactConvexMeshERKNS_2Gu13GeometryUnionES3_RKNS_11PxTransformES6_RKfRNS_10PxcNpCacheERNS0_13ContactBufferE
Ieb:__ZNK21UnityDefaultAllocatorI17LowLevelAllocatorE8ContainsEPKv
o0k:__ZNSt3__213__vector_baseI6pollfdNS_9allocatorIS1_EEED2Ev
och:_ClientSessionInfo_get_Id_m3046630969
oCi:__ZL78Convert_t2607082565_CustomAttributesCacheGenerator_Convert_ToUInt32_m759656532P21CustomAttributesCache
Fi:_emscripten_get_main_loop_timing
JLg:_DirectoryInfo__ctor_m3750996792
qpg:_BaseMeshEffect_ModifyMesh_m2134816219
a$e:_Array_qsort_TisVector2_t2243707579_m3527759534_gshared
cwb:__ZN24GenerateTypeTreeTransfer21TransferSTLStyleArrayINSt3__26vectorIN15QualitySettings14QualitySettingENS1_9allocatorIS4_EEEEEEvRT_17TransferMetaFlags
f7h:_ResourceRequest_t2560315377_marshal_pinvoke_cleanup
IZf:_List_1_System_Collections_Generic_IEnumerableU3CTU3E_GetEnumerator_m166627113_gshared
zEb:__ZNSt3__26vectorI9InputAxisNS_9allocatorIS1_EEE6resizeEj
ebf:_SecurityElement_IsValidAttributeValue_m483287146
Xhf:_Decoder_set_Fallback_m1780632169
Eq:getTempRet0
P0d:__ZN5physx2Gu33MultiplePersistentContactManifold24addManifoldContactPointsEPNS0_21MeshPersistentContactEjPPNS0_15PCMContactPatchEjRKNS_6shdfnd3aos6FloatVESB_h
C2i:__Z114RuntimeInvoker_Void_t1841601450_Il2CppObject_Il2CppObject_Int32_t2071877448_Il2CppObject_Il2CppObject_Il2CppObjectPK10MethodInfoPvPS2_
t9h:_AssemblyTitleAttribute__ctor_m1696431446
$xg:_Image_AddQuad_m1603575622
B8g:_PrivateKeyInfo_RemoveLeadingZero_m3396807048
rbg:_ReadOnlyCollection_1_System_Collections_Generic_ICollectionU3CTU3E_get_IsReadOnly_m1251192075_gshared
y3g:__ZThn4_N6il2cpp2vm13ComObjectBaseI34__Il2CppComDelegate_t3311706788CCW18Il2CppIInspectableNS0_7details6ComNilES5_S5_S5_S5_S5_S5_E7ReleaseEv
vSf:_List_1_GrowIfNeeded_m185971996_gshared
Nel:__ZN6il2cpp6icalls8mscorlib6System9ThreadingL21lookup_cached_cultureEP12Il2CppThreadi
jSj:__ZN16VirtFuncInvoker1IP24DaylightTime_t3800227331iE6InvokeEjPvi
j4a:__ZN18DeferredRenderLoopD2Ev
Kdi:_GenericTypeParameterBuilder_GetMethods_m1243855818
Laa:__ZNK16TypeTreeIterator4NameEv
s2:__ZN15FileSystemEntry3SetEPKc
I7d:__ZN5physx6shdfnd5ArrayIPNS_13PxcNpMemBlockENS0_19ReflectionAllocatorIS3_EEE6resizeEjRKS3_
X7j:_InternalEnumerator_1__ctor_m2808001655_gshared
R4e:_MACTripleDES__ctor_m884945242
tEd:__ZN5physx14NpRigidDynamic8requiresERNS_23PxProcessPxBaseCallbackE
DP:__ZN20SoundChannelInstance15ParameterBuffer5ApplyEPN4FMOD7ChannelE
eRk:__ZL24UnresolvedVirtualCall_52P12Il2CppObjectPK10MethodInfo
MCb:__ZN23SharedMeshRenderingDataD0Ev
rre:__ZN20TextRenderingPrivate19NativeTextGenerator9InsertTabEv
nni:__ZL73Enum_t2459695545_CustomAttributesCacheGenerator_Enum_ToObject_m1688724857P21CustomAttributesCache
$Uh:_Rect_set_y_m4294916608
CZk:__ZN15dense_hashtableINSt3__24pairIK10KeyWrapperI13dynamic_arrayIPK10Il2CppTypeLj4EEEPFvvEEES8_N6il2cpp8metadata19Il2CppSignatureHashEN14dense_hash_mapIS8_SB_SF_NSE_22Il2CppSignatureCompareENS0_9allocatorISC_EEE9SelectKeyESH_SJ_E16reset_thresholdsEv
Dke:__ZN5physx7profile8ZoneImplINS_28PxProfileNameProviderForwardEE21setProfileZoneManagerEPNS_20PxProfileZoneManagerE
iLe:__ZN11UnityEngine15PlatformWrapper24GetRuntimePlatformStringEv
nj:_glIsEnabled
QYb:__ZN15CacheWriterBaseD2Ev
E1c:__ZN5physx3Cct17CapsuleController15setFootPositionERKNS_14PxExtendedVec3E
a$c:__ZN5physx2Gu33PCMCapsuleVsMeshContactGeneration13generateEEMTDERKNS_6shdfnd3aos5Vec3VES6_RKNS3_6FloatVES6_jS6_S6_PNS0_21MeshPersistentContactERj
rod:__ZN18MultiQueryCallbackIN5physx10PxSweepHitEED0Ev
AAf:_Convert_ToDateTime_m1251728572
rj:_emscripten_glDrawElementsInstanced
S4f:_Collection_1_System_Collections_IList_IndexOf_m51140022_gshared
a7g:_ARC4Managed_Dispose_m4102232694
u7g:_HMAC_Initialize_m3052649104
qwh:_Enumerator_Dispose_m793495907_AdjustorThunk
S8a:__ZN18JobBatchDispatcherD2Ev
qwb:__ZN9Transform17MainThreadCleanupEv
sul:_GC_clear_hdr_marks
SUl:_glScissor__wrapper
e$l:_emscripten_glCreateShader__wrapper
Dyg:_InputField_get_caretSelectPositionInternal_m3523572533
Tze:_cff_fd_select_get
Wti:__ZL73CompilationRelaxationsAttribute_t238494011_CustomAttributesCacheGeneratorP21CustomAttributesCache
Blj:__Z74RuntimeInvoker_Void_t1841601450_Int32_t2071877448_KeyValuePair_2_t38854645PK10MethodInfoPvPS2_
yL:__Z13RegisterClassI18AnimatorControllerEvv
kWa:__ZL54CombineLocalShadowCasterCullignIndexListsAndDestroyJobP25LocalShadowCullingJobData
QMj:_Text_get_minHeight_m1562513104
$8e:_SHA512Managed_processBlock_m3220567420
Hjh:_NameObjectCollectionBase_get_Keys_m446053925
Bj:_emscripten_glGetShaderiv
wxh:_Transform_1__ctor_m353209818_gshared
jSa:__ZZ23InitPlayerLoopCallbacksvEN41EarlyUpdateUpdateAllUnityWebStreamsstruct7ForwardEv
FQ:__ZN4FMOD6System10getVersionEPj
D8d:__ZN5physx2Sc7BodySim10sleepCheckEffb
z9k:__ZN15dense_hashtableINSt3__24pairIK10KeyWrapperIPK10Il2CppTypeEjEES6_N6il2cpp8metadata14Il2CppTypeHashEN14dense_hash_mapIS6_jSB_NSA_17Il2CppTypeCompareENS0_9allocatorIS8_EEE9SelectKeyESD_SF_E15set_deleted_keyERKS8_
w4b:__ZN5Unity9Component7PRODUCEE18MemLabelIdentifier18ObjectCreationMode
RMi:__ZL96RemoteSettings_t392466225_CustomAttributesCacheGenerator_RemoteSettings_CallOnUpdate_m1624968574P21CustomAttributesCache
vVe:_Array_InternalArray__IndexOf_TisSByte_t454417549_m1427585061_gshared
qYi:__Z75RuntimeInvoker_Byte_t3683104436_Il2CppObject_Int32_t2071877448_Il2CppObjectPK10MethodInfoPvPS2_
iFe:__ZN2UI6Canvas23VirtualRedirectTransferER24GenerateTypeTreeTransfer
jzf:_Decimal_u64_m3991988111
$wk:_YieldInstruction_t3462875981_marshal_pinvoke
pPk:_Predicate_1_BeginInvoke_m2959352225_gshared
fyk:_X509Certificate_Parse_m1764345628
nfk:_SynchronizationAttribute_GetClientContextSink_m1264319894
Ppe:__ZN13TextRendering4Font13AwakeFromLoadE17AwakeFromLoadMode
ePj:__ZN16VirtFuncInvoker0I8IntPtr_tE6InvokeEjPv
wMe:__ZThn564_N18UnityConnectClient18OnAdsIdRequestDoneERK8UnityStrbS2_
Jza:__ZN9GfxDevice21ReleaseSharedMeshDataEP14SharedMeshData
b3g:_SmallXmlParser_Peek_m2814840810
Tuj:_CanvasRenderer_get_absoluteDepth_m4243141
sFb:__ZNSt3__27__sort5IRNS_6__lessINS_4pairIPKN5Unity4TypeE7Hash128EES8_EEPS8_EEjT0_SC_SC_SC_SC_T_
Dxf:_Enumerator_Reset_m466659019
OSk:__ZL25UnresolvedVirtualCall_142P12Il2CppObjectssPK10MethodInfo
ODl:_vprintf
lHk:_UnityAction_1_EndInvoke_m2822290096_gshared
tll:__ZNK15dense_hashtableINSt3__24pairIK10KeyWrapperIP12Il2CppObjectEN6il2cpp2gc9CachedCCWEEES5_NS7_5utils11PointerHashIS3_EEN14dense_hash_mapIS5_S9_SD_NS0_8equal_toIS5_EENS0_9allocatorISA_EEE9SelectKeyESG_SI_E10test_emptyEj
ztl:_GC_unreachable_finalize_mark_proc
clk:_BalancingGroup_set_Balance_m3452171919
UK:__ZZN8Animator15InitializeClassEvEN31FunctorImpl_389kDidDeleteMotion4CallEPviR11MessageData
Mg:___syscall192
rmg:_PointerEventData_set_worldNormal_m2025727441
Xul:_maybe_finalize
aOe:__ZN20HardwareInfoReporter18ReportHardwareInfoEv
Npc:__Z43RectTransform_CUSTOM_INTERNAL_get_anchorMaxP12Il2CppObjectP13Vector2fIcall
Bza:__ZN9GfxDevice38ScheduleDynamicVBOGeometryJobsInternalEPFvP25DynamicVBOGeometryJobDatajEPFvS1_ES1_j16GfxPrimitiveTypeP21DynamicVBOChunkHandle
s0a:__Z16SyncFenceNoClearRK8JobFence
_la:__ZN8Material28UpdateHashesOnPropertyChangeEN9ShaderLab16FastPropertyNameE
Jqc:__Z53Register_UnityEngine_SortingLayer_GetLayerValueFromIDv
dcb:__Z29StdTemplateConversionFunctionIhhEbPvR14SafeBinaryRead
IKk:_EqualityComparer_1_System_Collections_IEqualityComparer_Equals_m349194518_gshared
Kuf:_CaseInsensitiveComparer_Compare_m1192858479
YMb:__Z18Transfer_BlittableI14SafeBinaryReadLb1E8Vector4fEvRK29SerializationCommandArgumentsR31RuntimeSerializationCommandInfo
XOg:_StreamAsyncResult_set_Done_m4272090534
rCg:_LayoutRebuilder_Clear_m2390054824
a7f:_Collection_1_System_Collections_IList_Insert_m2968289909_gshared
O9h:_Default_SelectMethod_m622251293
OS:__ZN11AudioSource12AddToManagerEv
vx:__ZN8Animator23VirtualRedirectTransferER19StreamedBinaryWriteILb0EE
Pfk:_AsyncResult_get_NextSink_m1172723924
qil:__ZN6il2cpp2vm5Image13ClassFromNameEPK11Il2CppImagePKcS6_
rQl:dynCall_vdddddd
Z$b:__ZN24GenerateTypeTreeTransfer21TransferSTLStyleArrayINSt3__26vectorIN9ShaderLab14SerializedPassENS1_9allocatorIS4_EEEEEEvRT_17TransferMetaFlags
abd:__ZN5physx6shdfnd8internal8HashBaseIPNS_2Sc13ConstraintSimES5_NS0_4HashIS5_EENS1_11HashSetBaseIS5_S7_NS0_9AllocatorELb1EE6GetKeyES9_Lb1EE6createERKS5_Rb
P6:__ZL32MarkLevelGameManagerDependenciesR27GarbageCollectorThreadState
S7i:__Z49RuntimeInvoker_Void_t1841601450_UInt16_t986882611PK10MethodInfoPvPS2_
PBa:__ZNK13GfxDeviceGLES26HasActiveRandomWriteTargetEv
xnj:__Z37RuntimeInvoker_ILTokenInfo_t149559338PK10MethodInfoPvPS2_
W6h:_RenderTexture_set_height_m1787187
Rid:__ZNK5physx15NpActorTemplateINS_18PxArticulationLinkEE7getNameEv
KVl:_glGetActiveUniformsiv__wrapper
Hpj:__Z50RuntimeInvoker_Il2CppObject_ColorTween_t3438117476PK10MethodInfoPvPS2_
_Sc:__ZNK5physx3Cct10Controller16getInternalStateERNS_17PxControllerStateE
U6i:__Z59RuntimeInvoker_Il2CppObject_Double_t4078015681_Il2CppObjectPK10MethodInfoPvPS2_
is:__Z20AnimationEventToMonoRK14AnimationEventR18MonoAnimationEvent
d9i:__Z83RuntimeInvoker_Void_t1841601450_Il2CppObject_Il2CppObject_Il2CppObject_Il2CppObjectPK10MethodInfoPvPS2_
E7:__ZNK15dense_hashtableINSt3__24pairIKiiEEi21InstanceIDHashFunctorN14dense_hash_mapIiiS4_NS0_8equal_toIiEE13stl_allocatorIS3_L18MemLabelIdentifier1ELi16EEE9SelectKeyES7_SA_E13find_positionERS2_
LFj:_Navigation_get_selectOnLeft_m3980387574_AdjustorThunk
nxj:_CustomYieldInstruction_get_Current_m1743233962
vkl:__ZN30dense_hashtable_const_iteratorI10KeyWrapperIP18Il2CppGenericClassES3_N6il2cpp8metadata22Il2CppGenericClassHashEN14dense_hash_setIS3_S6_NS5_25Il2CppGenericClassCompareENSt3__29allocatorIS3_EEE8IdentityES8_SB_E30advance_past_empty_and_deletedEv
uPd:__ZN5physx10PxsContext15setScratchBlockEPvj
tlc:__Z52Register_UnityEngine_RectOffset_INTERNAL_CALL_Removev
$Ni:__ZL74UnityEventBase_t828812576_CustomAttributesCacheGenerator_m_PersistentCallsP21CustomAttributesCache
MEh:_DefaultComparer__ctor_m2265472997_gshared
_Aj:_CustomAnimationPlayable_op_Implicit_m3677069457
uDb:__ZN4PPtrI6SpriteE8TransferI14SafeBinaryReadEEvRT_
Z5c:__ZN5physx2Cm27getDynamicGlobalPoseAlignedERKNS_11PxTransformES3_S3_RS1_
m2i:__Z45RuntimeInvoker_Il2CppObject_IntPtr_t_IntPtr_tPK10MethodInfoPvPS2_
b$b:__ZNSt3__26vectorIN9ShaderLab14SerializedPassENS_9allocatorIS2_EEE8__appendEj
lee:__ZN5physx6shdfnd5ArrayIPvNS0_19ReflectionAllocatorIN17PxcPoolMallocData10PoolData32EEEE15growAndPushBackERKS2_
Qch:_Context_get_SupportedCiphers_m2172827298
kKc:__ZN12b2WheelJoint24SolveVelocityConstraintsERK12b2SolverData
a0i:__Z170RuntimeInvoker_Int32_t2071877448_Il2CppObject_Int32_t2071877448_Int32_t2071877448_Il2CppObject_Int16_t4041245914_Int32_t2071877448_SByte_t454417549_ContextU26_t3131521781PK10MethodInfoPvPS2_
ssb:__ZN9Texture2D23VirtualRedirectTransferER18StreamedBinaryReadILb0EE
uMc:__ZN10Collider2D8TransferI24GenerateTypeTreeTransferEEvRT_
$cf:__ZN16VirtFuncInvoker0IP23CompareInfo_t2310920157E6InvokeEjPv
kTh:_GUIClip_Pop_m603598875
MJf:_Double_System_IConvertible_ToUInt16_m286326038_AdjustorThunk
XLh:_TypeInfo__ctor_m1475908211
clb:__ZNSt3__26__treeINS_12__value_typeIN4core12basic_stringIcNS2_20StringStorageDefaultIcEEEEjEENS_19__map_value_compareIS6_S7_NS_4lessIS6_EELb1EEE13stl_allocatorIS7_L18MemLabelIdentifier6ELi16EEE7destroyEPNS_11__tree_nodeIS7_PvEE
$ok:_SliderHandler_ThumbSize_m3714327193_AdjustorThunk
Xoh:_X509Chain_WrapUp_m1072032285
Bzk:_X509CertificateEnumerator_System_Collections_IEnumerator_MoveNext_m1448966539
Vwe:_get_sfnt_table
I3e:_Object_FindObjectOfType_TisIl2CppObject_m2967490724_gshared
I4f:_Collection_1_IsSynchronized_m3261594010_gshared
pUa:_unity_z_tr_stored_block
yXi:__Z46RuntimeInvoker_Single_t2076509932_Il2CppObjectPK10MethodInfoPvPS2_
Hdf:_SecuritySafeCriticalAttribute__ctor_m2508714287
SZk:__ZN13dynamic_arrayIPK10Il2CppTypeLj4EE10reallocateEPS2_j
TTe:_Array_compare_TisIl2CppObject_m1481822507_gshared
Ume:__ZN5physx2Gu20registerHeightFieldsEv
pfa:__ZN15dense_hashtableINSt3__24pairIKNS0_12basic_stringIcNS0_11char_traitsIcEE13stl_allocatorIcL18MemLabelIdentifier54ELi16EEEEP11AssetBundleEES8_11djb2_hash_tIS8_EN14dense_hash_mapIS8_SB_SE_NS0_8equal_toIS8_EENS0_9allocatorISC_EEE9SelectKeyESH_SJ_E13set_empty_keyERKSC_
HRh:_DES_get_Key_m2584608215
VWa:__ZL22ScheduleSceneNodesJobsP25ScheduleSceneNodesJobDataj
fkl:__ZN15dense_hashtableI10KeyWrapperIP18Il2CppGenericClassES3_N6il2cpp8metadata22Il2CppGenericClassHashEN14dense_hash_setIS3_S6_NS5_25Il2CppGenericClassCompareENSt3__29allocatorIS3_EEE8IdentityES8_SB_ED2Ev
ZXd:__ZN5physx22concludeContactCoulombERKNS_23PxcSolverConstraintDescERNS_16PxcSolverContextE
rl:_emscripten_set_canvas_size
loi:__ZL65Il2CppArray_CustomAttributesCacheGenerator_Array_Sort_m3645766612P21CustomAttributesCache
rzd:__ZNK5physx15NpParticleFluid12getStiffnessEv
WDh:_Dictionary_2_System_Collections_Generic_ICollectionU3CSystem_Collections_Generic_KeyValuePairU3CTKeyU2CTValueU3EU3E_Remove_m761601731_gshared
awf:_Hashtable__ctor_m741952536
L_b:__ZNSt3__26vectorIN9ShaderLab20SerializedSubProgramENS_9allocatorIS2_EEE8__appendEj
N$:__ZN20DynamicHeapAllocatorI17LowLevelAllocatorE8AllocateEji
v$a:__ZN20DynamicPropertySheet15SetVectorQueuedERKN9ShaderLab16FastPropertyNameERK8Vector4fN19ShaderPropertySheet8SetFlagsE
vgf:_String_Format_m1263743648
gsj:_AudioListener_set_pause_m4072603757
Srj:_DefaultExecutionOrder_get_order_m1561221759
nfg:_ReadOnlyCollection_1_System_Collections_IEnumerable_GetEnumerator_m4248982967_gshared
ED:__ZN7mecanim9animation22EvaluateAvatarRetargetEPKNS0_14AvatarConstantEPKNS0_11AvatarInputEPNS0_12AvatarOutputEPNS0_12AvatarMemoryEPNS0_15AvatarWorkspaceEb
BCg:_LayoutRebuilder_GetHashCode_m2745108660
cXk:__ZN15dense_hashtableINSt3__24pairIK10KeyWrapperIPK19Il2CppGenericMethodEPK26Il2CppGenericMethodIndicesEES6_N6il2cpp8metadata23Il2CppGenericMethodHashEN14dense_hash_mapIS6_SA_SE_NSD_26Il2CppGenericMethodCompareENS0_9allocatorISB_EEE9SelectKeyESG_SI_E14squash_deletedEv
KEk:_TrailRendererSortingLayer_Update_m2452615204
JDc:__ZL26Transfer_SimpleNativeClassI9JSONWrite10RectOffsetLb0EEvRK29SerializationCommandArgumentsR31RuntimeSerializationCommandInfo
Ttl:_GC_push_conditional
aFa:__ZN17GenericDynamicVBO10AllocateVBEjR21DynamicVBOChunkHandle
VTf:_List_1_get_Item_m1547593893_gshared
clj:__Z70RuntimeInvoker_Void_t1841601450_CustomAttributeNamedArgument_t94157543PK10MethodInfoPvPS2_
uLg:_Path_GetPathRoot_m1269357080
d0d:__ZL27PxcTestFacesSepAxesBackfaceRKN5physx2Gu13PolygonalDataES3_RKNS_2Cm8Matrix34ES7_RKNS4_23FastVertex2ShapeScalingESA_S7_RKNS_6PxVec3ERfRSB_RjPjSG_fSD_
jkg:_EventSystem_SetSelectedGameObject_m2211816110
Ixh:_Transform_1__ctor_m4161450529_gshared
Ql:_glMapBufferRange
gsb:__ZN9Texture2D8TransferI18StreamedBinaryReadILb0EEEEvRT_
WBh:_Dictionary_2_Remove_m1947153975_gshared
Vmc:__Z31Input_CUSTOM_GetMouseButtonDowni
qoi:__ZL65Il2CppArray_CustomAttributesCacheGenerator_Array_Sort_m1730553742P21CustomAttributesCache
Eud:__ZNK5physx7NpCloth23getExternalAccelerationEv
vZa:__ZNK9Transform16GetLocalPositionEv
PMb:__Z19scripting_array_newP11Il2CppClassjj
Lwa:__ZN13LoadOperation19IntegrateTimeSlicedEi
Jvb:__ZNK15QualitySettings26GetTypeInfoVirtualInternalEv
Lsh:_InterpreterFactory__ctor_m3331468903
xZd:__ZN5physx16PxsBroadPhaseMBP9updatePPUEPNS_10PxBaseTaskE
t2g:_X501__cctor_m3795360380
aCa:__ZN13GfxDeviceGLES22DispatchComputeProgramE12ObjectHandleI18ComputeProgram_TagPvE15ComputeBufferIDj
qzl:__ZN6il2cpp8metadata25Il2CppGenericClassCompare7CompareERK10KeyWrapperIP18Il2CppGenericClassES7_
qZh:_GUIStyle_set_contentOffset_m2138084868
Cs:__ZNK13AnimationClip15GetAverageSpeedEv
WBf:_Convert_ToInt32_m2297793940
yva:__Z17TransformAABBSlowRK4AABBRK10Matrix4x4fRS_
etb:__ZN15SerializeTraitsI13dynamic_arrayI7Hash128Lj8EEE19ResizeSTLStyleArrayERS2_i18MemLabelIdentifier
xmj:__Z96RuntimeInvoker_Void_t1841601450_Vector2U5BU5DU26_t1595685398_Int32_t2071877448_Int32_t2071877448PK10MethodInfoPvPS2_
Joh:_X509Chain_Build_m1140429528
EZb:__ZN9ShaderLab21SerializedShaderState8TransferI14SafeBinaryReadEEvRT_
lY:__ZTv0_n12_NSt3__219basic_ostringstreamIcNS_11char_traitsIcEENS_9allocatorIcEEED1Ev
_Dl:_ftruncate
Z7e:_RSAPKCS1SignatureFormatter_SetKey_m2365816458
xte:__ZN13RuntimeStaticINSt3__26vectorIPN20TextRenderingPrivate17TextMeshGeneratorENS0_9allocatorIS4_EEEEE13StaticDestroyEPv
lHg:_Int16_GetHashCode_m304503362_AdjustorThunk
QAe:_cf2_stack_pushInt
nG:__ZN7mecanim9animation20DestroyLayerConstantEPNS0_13LayerConstantERNS_6memory9AllocatorE
ABd:__ZN5physx6shdfnd8PoolBaseINS_16NpParticleSystemENS0_19ReflectionAllocatorIS2_EEE12allocateSlabEv
U2d:__ZN5physx9PxTaskMgr12dispatchTaskEjb
iFj:_MaskableGraphic_SetClipRect_m3871029457
Alg:_ExecuteEvents_get_cancelHandler_m1964324668
oXl:b89
kXl:b88
_Li:__ZL70GUISettings_t622856320_CustomAttributesCacheGenerator_m_SelectionColorP21CustomAttributesCache
UVl:b81
TVl:b80
YVl:b83
taa:__ZN18ResourceImageGroup7CleanupEv
hXl:b85
N8c:__ZN5physx2Gu36closestPtPointTetrahedronTesselationEPNS_6shdfnd3aos5Vec3VES4_S4_RjRS3_S6_
jXl:b87
iXl:b86
Xv:__ZN11Quaternionf8TransferI24GenerateTypeTreeTransferEEvRT_
s0d:__ZN5physx25PxcPCMContactSphereConvexERKNS_2Gu13GeometryUnionES3_RKNS_11PxTransformES6_RKfRNS_10PxcNpCacheERNS0_13ContactBufferE
bNj:_ToggleGroup_RegisterToggle_m3118973598
y_e:_Array_InternalArray__set_Item_TisTextEditOp_t3138797698_m97736153_gshared
z8g:_PrivateKeyInfo_Decode_m1053025782
Bqh:_X509ChainElementCollection_System_Collections_ICollection_CopyTo_m1467895312
V9d:__ZN5physx2Cm18DelegateFanoutTaskINS_2Sc5SceneEXadL_ZNS3_20particlePostShapeGenEPNS_10PxBaseTaskEEEED0Ev
u1g:_PKCS12_Decrypt_m2457743414
lqb:__ZN8Playable19SetOutputConnectionEPS_i
Dm:_glDeleteShader
AP:__ZN11SoundHandle8Instance15UpdateLoadStateEv
Qic:__Z54Register_UnityEngine_SystemInfo_get_graphicsDeviceNamev
CLf:_Exception_GetType_m3898489832
uqa:__ZN6prcoreL17RemapGenericFloatI15TexFormatRGHalf16TexFormatRGFloatEEvPKNS_9InnerInfoE
wpd:__ZN5physx6shdfnd8PoolBaseINS_10NpMaterialENS0_19ReflectionAllocatorIS2_EEE15disposeElementsEv
J1f:_Stack_1_Peek_m1548778538_gshared
Nag:_Collection_1_System_Collections_IList_get_Item_m1995028750_gshared
eSa:__ZZ23InitPlayerLoopCallbacksvEN38EarlyUpdateExecuteMainThreadJobsstruct7ForwardEv
uJi:__ZL72WWW_t2919945039_CustomAttributesCacheGenerator_WWW_EscapeURL_m3653156031P21CustomAttributesCache
mwk:_Vector4_Dot_m2285943745
mra:__ZN19RuntimeSceneManager9LoadSceneERK8UnityStrS2_S2_RK9UnityGUIDiNS_11LoadingModeE
ngc:__Z27scripting_add_internal_callPKcPKv
fZe:_Array_InternalArray__Insert_TisUriScheme_t1876590943_m2728325409_gshared
lMi:__ZL72GUISkin_t1436893342_CustomAttributesCacheGenerator_m_verticalSliderThumbP21CustomAttributesCache
bll:__GLOBAL__sub_I_GarbageCollector_cpp
A5:__Z17GetPlayerSettingsv
rUc:__ZL21ContactReductionAllInRN5physx2Gu13ContactBufferEjjRKNS_7PxMat33EPKNS_6PxVec3EPKh
Xhj:__Z65RuntimeInvoker_KeyValuePair_2_t38854645_Il2CppObject_Il2CppObjectPK10MethodInfoPvPS2_
eE:__ZN34BlobWriteTransferSTLStyleArrayImplI22OffsetPtrArrayTransferIiEEclERS1_17TransferMetaFlagsR9BlobWrite
Ozk:_X509Store_CheckStore_m1027496478
Sjj:__Z87RuntimeInvoker_Int32_t2071877448_UIVertex_t1204258818_UIVertex_t1204258818_Il2CppObjectPK10MethodInfoPvPS2_
qti:__ZL82MethodBase_t904190842_CustomAttributesCacheGenerator_MethodBase_Invoke_m1075809207P21CustomAttributesCache
N$j:_InternalEnumerator_1_MoveNext_m1994485778_AdjustorThunk
xcj:__Z133RuntimeInvoker_Boolean_t3825574718_Vector3U26_t425862308_Vector3U26_t425862308_Single_t2076509932_Int32_t2071877448_Int32_t2071877448PK10MethodInfoPvPS2_
wRi:__ZL62DropdownItem_t4139978805_CustomAttributesCacheGenerator_m_TextP21CustomAttributesCache
rAc:__Z33EmitSerializationCommandsForFieldI8JSONReadEvR18TransferField_InfoR32SerializationCommandQueueBuilderRP20AllowNameConversions
cc:invoke_vffff
TPf:_Enumerator_MoveNext_m1706162224_gshared
nNl:__ZNSt3__212basic_stringIcNS_11char_traitsIcEENS_9allocatorIcEEEC2ERKS5_jjRKS4_
_Oa:__ZN15dense_hashtableINSt3__24pairIKNS0_12basic_stringIcNS0_11char_traitsIcEE13stl_allocatorIcL18MemLabelIdentifier54ELi16EEEEP20ArchiveStorageReaderEES8_11djb2_hash_tIS8_EN14dense_hash_mapIS8_SB_SE_NS0_8equal_toIS8_EES5_ISC_LS6_54ELi16EEE9SelectKeyESH_SI_E5clearEv
dgf:_String_Contains_m4017059963
E0e:_Array_swap_TisCustomAttributeNamedArgument_t94157543_TisCustomAttributeNamedArgument_t94157543_m3600072996_gshared
A8j:_DefaultComparer_Compare_m1606207039_gshared
yHe:__ZN2UI14CanvasRenderer12SyncMaterialENS0_8SyncFlagE
jMl:__ZNSt3__26locale5__imp7installINS_7codecvtIDsc11__mbstate_tEEEEvPT_
P9g:_CipherSuite_get_ExchangeAlgorithmType_m3219223789
syl:__ZN6il2cpp2vm9Parameter30GetDefaultParameterValueObjectEPK10MethodInfoPK13ParameterInfoPb
ZZe:_Array_InternalArray__set_Item_TisLabelData_t3712112744_m2253365137_gshared
Nhi:_MonoCMethod_get_Attributes_m3914742834
N8:__Z26scripting_object_get_classP12Il2CppObject
t1h:_MonoBehaviour_Invoke_m666563676
fbi:_ConstructorBuilder_get_DeclaringType_m4264602248
vu:__ZNSt3__26vectorIhNS_9allocatorIhEEE8__appendEj
EHf:_Decimal_decimalDiv_m900036616
PPg:_StringReader__ctor_m643998729
vQa:__ZN14dense_hash_mapINSt3__212basic_stringIcNS0_11char_traitsIcEE13stl_allocatorIcL18MemLabelIdentifier54ELi16EEEEP20ArchiveStorageReader11djb2_hash_tIS7_ENS0_8equal_toIS7_EES4_INS0_4pairIKS7_S9_EELS5_54ELi16EEE13set_empty_keyERSF_
Cjd:__ZN5physx19NpRigidBodyTemplateINS_18PxArticulationLinkEE16setRigidBodyFlagENS_15PxRigidBodyFlag4EnumEb
j6i:__Z75RuntimeInvoker_DateTime_t693205669_DateTime_t693205669_TimeSpan_t3430258949PK10MethodInfoPvPS2_
f$a:__ZN14qsort_internal31_FindAndMovePivotToLastPositionIP17RODataReplacementi19ROSorterReplacementEEvT_S4_T0_T1_
Jw:__ZN14AnimationEvent8TransferI19StreamedBinaryWriteILb0EEEEvRT_
Jv:__ZN7mecanim9animation9DenseClip8TransferI24GenerateTypeTreeTransferEEvRT_
Mwe:_UNITY_tt_face_done_kern
AEl:__ZNSt3__215basic_streambufIcNS_11char_traitsIcEEE4syncEv
bek:_Context_get_DefaultContext_m2211922324
Sbk:_MarshalDirectiveException__ctor_m1606841389
hPi:__ZL88AxisEventData_t1524870173_CustomAttributesCacheGenerator_U3CmoveVectorU3Ek__BackingFieldP21CustomAttributesCache
yyc:__Z59GUIStyle_CUSTOM_Internal_GetNumCharactersThatFitWithinWidth13Il2Cpp_IntPtrP12Il2CppStringf
nLa:__Z4TrimRKNSt3__212basic_stringIcNS_11char_traitsIcEENS_9allocatorIcEEEES7_
Q8g:_RSAManaged_GetPaddedValue_m2972141669
tJj:_ScrollRect_OnDrag_m1424848249
leh:_TlsServerCertificate_ProcessAsSsl3_m277089231
YSe:_Array_InternalArray__IEnumerable_GetEnumerator_TisUInt16_t986882611_m3665860884_gshared
Wfa:__Z19scripting_gc_enablev
Gkk:_AnchorInfo__ctor_m617409099
Mle:__ZN5physx7profile11EventBufferINS_24PxDefaultContextProviderENS_6shdfnd6MutexTINS0_26WrapperReflectionAllocatorIhEEEENS0_14ScopedLockImplIS7_EENS_24PxProfileNullEventFilterEE9stopEventEty
vbb:__Z29StdTemplateConversionFunctionIihEbPvR14SafeBinaryRead
Ldi:_GenericTypeParameterBuilder_GetMethodImpl_m528545634
sJe:__Z55Register_UnityEngine_CanvasRenderer_DisableRectClippingv
nth:_Interval_CompareTo_m2909556284_AdjustorThunk
Pzb:__ZN14SafeBinaryRead21TransferSTLStyleArrayI13dynamic_arrayI11ColorRGBA32Lj4EEEEvRT_17TransferMetaFlags
kJl:__ZNKSt3__210moneypunctIcLb1EE13do_pos_formatEv
pmj:__Z97RuntimeInvoker_Void_t1841601450_PlayableU5BU5DU26_t2309105347_Int32_t2071877448_Int32_t2071877448PK10MethodInfoPvPS2_
UFj:_Navigation_t1571958496_marshal_pinvoke
hsh:_Interpreter_GetLastDefined_m2450713313
mJl:__ZNSt3__210moneypunctIwLb0EED2Ev
Wjk:_Parser_ParseAssertionType_m3316669790
lKj:_Selectable_get_isPointerDown_m774209881
rni:__ZL73Enum_t2459695545_CustomAttributesCacheGenerator_Enum_ToObject_m2460371738P21CustomAttributesCache
WQl:dynCall_viiiifii
x3h:_Plane_get_distance_m1834776091_AdjustorThunk
P7:__Z20GetPersistentManagerv
bEe:_UNITY_TT_Set_Var_Design
aek:_Context_Finalize_m1386439645
zfa:__ZN21SystemInfoStringCache16StaticInitializeEPv
lah:_TlsStream__ctor_m4117943603
oHd:__ZN5physx2Cm20visualizeLinearLimitERNS0_12RenderOutputEfRKNS_11PxTransformES5_fb
s7c:__ZN5physx2Sc7BodySim18internalWakeUpBaseEf
dpl:__ZN6il2cpp2gc16GarbageCollector23MakeDescriptorForObjectEPji
baa:__ZNSt3__212basic_stringIcNS_11char_traitsIcEE13stl_allocatorIcL18MemLabelIdentifier1ELi16EEE21__grow_by_and_replaceEjjjjjjPKc
oki:_ParameterModifier_t1820634920_marshal_pinvoke
yKb:__ZNK13MonoBehaviour7GetNameEv
bkj:__Z104RuntimeInvoker_Int32_t2071877448_Il2CppObject_UICharInfo_t3056636800_Int32_t2071877448_Int32_t2071877448PK10MethodInfoPvPS2_
Dgl:__ZN13dynamic_arrayIP12Il2CppObjectLj4EE9push_backEv
gsa:__ZN19ScriptingInvocation28AdjustArgumentsToMatchMethodEv
Kig:_AbstractEventData_Use_m1797212290
CAi:__ZL56AppDomainSetup_t611332832_CustomAttributesCacheGeneratorP21CustomAttributesCache
mcj:__Z76RuntimeInvoker_Boolean_t3825574718_Ray_t2469606224_RaycastHitU26_t1969197280PK10MethodInfoPvPS2_
ycl:__ZN6il2cpp2vm4Type19GetGenericParameterEPK10Il2CppType
G$j:_InternalEnumerator_1__ctor_m439810834_AdjustorThunk
UIe:__Z51Register_UnityEngine_CanvasGroup_get_blocksRaycastsv
V6j:_InternalEnumerator_1_get_Current_m2826780083_gshared
PFd:__ZN5physx20NpRigidActorTemplateINS_13PxRigidStaticEE15exportExtraDataERNS_22PxSerializationContextE
vZl:b119
qol:__ZNK15dense_hashtableINSt3__24pairIK10KeyWrapperIP14Il2CppIUnknownEjEES5_N6il2cpp5utils11PointerHashIS3_EEN14dense_hash_mapIS5_jSB_NS0_8equal_toIS5_EENS0_9allocatorIS7_EEE9SelectKeyESE_SG_E12test_deletedEj
UCf:_Convert_EndianSwap_m975554045
hfa:__ZN14dense_hash_mapINSt3__212basic_stringIcNS0_11char_traitsIcEE13stl_allocatorIcL18MemLabelIdentifier54ELi16EEEEP11AssetBundle11djb2_hash_tIS7_ENS0_8equal_toIS7_EENS0_9allocatorINS0_4pairIKS7_S9_EEEEE13set_empty_keyERSG_
iWi:__ZL105LayoutUtility_t4076838048_CustomAttributesCacheGenerator_LayoutUtility_U3CGetMinHeightU3Em__4_m1769295917P21CustomAttributesCache
Cbe:__ZN5physx13BigConvexData5VLoadERNS_13PxInputStreamE
z4h:_RaycastHit2D_get_collider_m2568504212
g8j:_InternalEnumerator_1__ctor_m2782443954_AdjustorThunk
de:_glBeginQuery
y8h:_Assembly_GetCustomAttributes_m95309865
_Vh:_GUILayoutUtility_INTERNAL_CALL_Internal_GetWindowRect_m3236664463
xI:__ZN18AnimatorController19TransferRuntimeDataI24GenerateTypeTreeTransferEEvRT_
fsl:__ZN6il2cpp2vmL9ends_withEPKcS2_
ERd:__ZN5physx11NodeManager6resizeEj
ZQc:__ZN10Effector2D25CheckEffectorColliderMaskEP10Collider2DS1_
_6g:_RC4__ctor_m1585026462
C1:__ZN20LocalFileSystemPosix10ToAbsoluteEPKc
rwg:_GridLayoutGroup__ctor_m1099847132
o3j:_InternalEnumerator_1_get_Current_m2286118957_AdjustorThunk
UPd:__ZN5physx2Sc5Scene24setContactModifyCallbackEPNS_23PxContactModifyCallbackE
_yf:_Convert_ToBoolean_m48997236
bLd:__ZNK5physx7NpScene28getSceneQueryStaticTimestampEv
Fq:__ZN6Object17MainThreadCleanupEv
Psf:_ArrayListWrapper_set_Capacity_m2792463350
HCl:_getcwd
$jf:_StringBuilder_Append_m1128243247
RKc:__ZN16b2CapsuleContact6CreateEP9b2FixtureiS1_iP16b2BlockAllocator
Hkk:_AnchorInfo_get_Offset_m142119297
reb:__ZN25ThreadsafeLinearAllocatorD2Ev
oNg:_FileStream_Seek_m950719389
dTd:__ZN5physx2Sq10AABBPruner11preallocateEj
vXh:_GUISkin_get_settings_m626844463
dda:__ZN21BillboardBatchManager16StaticInitializeEPv
zXh:_Object_get_name_m2079638459
tYl:b117
e4:__ZN12_GLOBAL__N_138ArchiveRedirectFileSystemStaticDestroyEPv
lGk:_InvokableCall_1_add_Delegate_m3048312905_gshared
tLf:_EventHandler_Invoke_m1137722757
CZl:_emscripten_glLoadIdentity__wrapper
syj:_Event_set_type_m4059414571
CId:__ZN5physx2Sc19ShapeInstancePairLLC2ERNS0_8ShapeSimES3_RNS0_9ActorPairENS_7PxFlagsINS_10PxPairFlag4EnumEtEE
rTg:_MonoType_IsSubclassOf_m2211166238
Dfl:__ZN6il2cpp6icalls8mscorlib6System5Array9GetLengthEP11Il2CppArrayi
Iki:_TypeFilter_EndInvoke_m997625354
_v:__ZN13AnimationClip15QuaternionCurve8TransferI18StreamedBinaryReadILb0EEEEvRT_
y5f:_Collection_1_System_Collections_ICollection_CopyTo_m2859266050_gshared
O6:__ZN19RuntimeSceneManagerC2Ev
Gy:__ZN7mecanim14ValueArrayCopyEPKNS_10ValueArrayEPS0_PKNS_14ValueArrayMaskE
o9j:_Comparer_1__ctor_m2876014041_gshared
Cul:_GC_continue_reclaim
Nsf:_ArrayListWrapper_get_Count_m2207944952
Cqh:_X509ChainElementCollection_System_Collections_IEnumerable_GetEnumerator_m2559704689
zFi:__ZL86BigInteger_t925946153_CustomAttributesCacheGenerator_BigInteger_op_Implicit_m622924526P21CustomAttributesCache
sRi:__ZL59Dropdown_t1985816271_CustomAttributesCacheGenerator_m_ValueP21CustomAttributesCache
Psh:_InterpreterFactory_set_Gap_m2761943153
Rnh:_PublicKey_get_Key_m126090744
qma:__ZNSt3__26vectorINS_4pairIiiEENS_9allocatorIS2_EEE6insertENS_11__wrap_iterIPKS2_EERS7_
lse:__ZNSt3__23mapIN20TextRenderingPrivate7FontRefEP11FT_FaceRec_NS_4lessIS2_EENS_9allocatorINS_4pairIKS2_S4_EEEEEixERS9_
IOa:__ZN17ArchiveFileSystem10AddStorageEP20ArchiveStorageReader
Ijd:__ZN5physx19NpRigidBodyTemplateINS_18PxArticulationLinkEE27setMaxDepenetrationVelocityEf
nxd:__ZN5physx2Sc9ClothCore16setStretchConfigENS_22PxClothFabricPhaseType4EnumERKNS_20PxClothStretchConfigE
Fvj:_Color_Equals_m661618137
M7f:__ZN21InterfaceFuncInvoker1Ib22UILineInfo_t3621277874E6InvokeEjP11Il2CppClassPvS0_
GLd:__ZN5physx15PxsParticleData13onOriginShiftERKNS_6PxVec3E
SIc:__ZNK12b2MotorJoint16GetReactionForceEf
xJa:__ZN12_GLOBAL__N_112UploadFormatE13TextureFormat
QGh:_EqualityComparer_1_System_Collections_IEqualityComparer_GetHashCode_m1203798961_gshared
vVk:__ZN6il2cpp2vm5Class15GetEnumBaseTypeEP11Il2CppClass
GLg:_DirectoryNotFoundException__ctor_m3713860966
Y9j:_Comparer_1_get_Default_m4282764954_gshared
R2h:_Physics_Raycast_m2009151399
qel:__ZN15dense_hashtableINSt3__24pairIK10KeyWrapperINS1_IP11Il2CppClassjEEES4_EES6_N6il2cpp8metadata14ArrayClassHashEN14dense_hash_mapIS6_S4_SB_NSA_17ArrayClassCompareENS0_9allocatorIS8_EEE9SelectKeyESD_SF_E12resize_deltaEjj
yrb:__ZNK9Texture2D16GetNpotTexelSizeEv
h0j:_InternalEnumerator_1__ctor_m245588437_gshared
gI:__ZN18StreamedBinaryReadILb1EE21TransferSTLStyleArrayI22OffsetPtrArrayTransferI9OffsetPtrIN7mecanim12statemachine21SelectorStateConstantEEEEEvRT_17TransferMetaFlags
srh:_Capture_get_Text_m3472127896
IEj:_Mask_get_rectTransform_m3304369086
ftk:_TooltipAttribute__ctor_m2640804852
aYk:__ZNK10KeyWrapperINSt3__212basic_stringIcNS0_11char_traitsIcEENS0_9allocatorIcEEEEEeqERKS7_
coe:__ZN13dynamic_arrayItLj2EE6insertEPtPKtS3_
q8i:__Z35RuntimeInvoker_Category_t1984577050PK10MethodInfoPvPS2_
KEh:_DefaultComparer_GetHashCode_m4073394827_gshared
fFa:__ZN9GfxDevice22GetDefaultVertexBufferE26GfxDefaultVertexBufferTypej
geg:_ReadOnlyCollection_1_System_Collections_ICollection_CopyTo_m1129689124_gshared
ZCl:___fseeko_unlocked
Ahj:__Z162RuntimeInvoker_Void_t1841601450_Il2CppObject_Int32_t2071877448_SByte_t454417549_SByte_t454417549_SingleU26_t4173844468_SingleU26_t4173844468_SingleU26_t4173844468PK10MethodInfoPvPS2_
okl:__ZN15dense_hashtableI10KeyWrapperIP18Il2CppGenericClassES3_N6il2cpp8metadata22Il2CppGenericClassHashEN14dense_hash_setIS3_S6_NS5_25Il2CppGenericClassCompareENSt3__29allocatorIS3_EEE8IdentityES8_SB_E5clearEv
dGb:__ZN18StreamedBinaryReadILb1EE21TransferSTLStyleArrayI13dynamic_arrayI16SplashScreenLogoLj4EEEEvRT_17TransferMetaFlags
v9f:_Collection_1_Contains_m1999290510_gshared
N3c:__ZN5physx3Cct17CapsuleControllerC2ERKNS_16PxControllerDescERNS_9PxPhysicsEPNS_7PxSceneE
qAb:__ZN14SafeBinaryRead21TransferSTLStyleArrayINSt3__26vectorI17BlendShapeChannelNS1_9allocatorIS3_EEEEEEvRT_17TransferMetaFlags
Aga:__Z17BeginSplashScreenv
Owj:_ControllerColliderHit_get_moveDirection_m3053186297
XJl:__ZNSt3__212basic_stringIwNS_11char_traitsIwEENS_9allocatorIwEEE6appendIPwEENS_9enable_ifIXaasr21__is_forward_iteratorIT_EE5valuesr38__libcpp_string_gets_noexcept_iteratorIS9_EE5valueERS5_E4typeES9_S9_
O0b:__ZN9ShaderLab16SerializedShader8TransferI19StreamedBinaryWriteILb0EEEEvRT_
Rmj:__Z55RuntimeInvoker_LabelFixup_t4090909514_Int32_t2071877448PK10MethodInfoPvPS2_
CF:__ZN7mecanim9animation18CreateAvatarMemoryEPKNS0_14AvatarConstantERNS_6memory9AllocatorE
wyf:_Stack_Pop_m3788808882
wuh:_Enumerator_VerifyCurrent_m4246196125_AdjustorThunk
CCh:_Dictionary_2_pick_value_m3484897877_gshared
FFf:_DateTime_op_Equality_m1867073872
wE:__ZN7mecanim8skeleton16SkeletonPoseCopyIN4math4trsXENS2_7affineXEEEvPKNS0_13SkeletonPoseTIT_EEPNS5_IT0_EE
CSb:__Z18Transfer_BlittableI19StreamedBinaryWriteILb0EELb0EaEvRK29SerializationCommandArgumentsR31RuntimeSerializationCommandInfo
OEa:__ZN18GfxFramebufferGLES18GetFramebufferNameERK20GfxRenderTargetSetup
lul:_GC_print_block_list
Tbl:__ZN6il2cpp2vm14TypeNameParser12ParseVersionERKNSt3__212basic_stringIcNS2_11char_traitsIcEENS2_9allocatorIcEEEERtSB_SB_SB_
bBj:_CustomAnimationPlayable_OnSetPlayState_m1903832042
llg:__ZN23InterfaceActionInvoker1IP25AxisEventData_t1524870173E6InvokeEjP11Il2CppClassPvS1_
ohl:__ZN6il2cpp6icalls8mscorlib6System2IO6MonoIO11GetFileTypeE12Il2CppIntPtrPi
twc:__Z30Event_Get_Custom_PropCharacterP12Il2CppObject
RSk:__ZL25UnresolvedVirtualCall_145P12Il2CppObject22ColorBlock_t2652774230S1_PK10MethodInfo
Y$c:__ZN5physx6shdfnd5ArrayINS_12PxDebugPointENS0_19ReflectionAllocatorIS2_EEE15growAndPushBackERKS2_
MUl:_glGetFramebufferAttachmentParameteriv__wrapper
$af:_SecurityElement_GetAttribute_m4288291176
m7j:_InternalEnumerator_1_System_Collections_IEnumerator_get_Current_m2389982234_gshared
cie:__ZN8Collider13AwakeFromLoadE17AwakeFromLoadMode
Xjc:__Z56Register_UnityEngine_Camera_INTERNAL_set_backgroundColorv
fva:__ZN14SafeBinaryRead20TransferTypelessDataEjPvi
Zti:__ZL66StringFreezingAttribute_t2691375565_CustomAttributesCacheGeneratorP21CustomAttributesCache
iGc:__ZN9rapidjson13GenericReaderINS_4UTF8IcEES2_13JSONAllocatorE10ParseFalseILj1ENS_25GenericInsituStringStreamIS2_EENS_15GenericDocumentIS2_S3_S3_EEEEvRT0_RT1_
aZf:_List_1_AddCollection_m3284813601_gshared
igb:__ZN33AssetBundleLoadFromAsyncOperation7PerformEv
RUi:__ZL102ToggleGroup_t1030026315_CustomAttributesCacheGenerator_ToggleGroup_U3CActiveTogglesU3Em__1_m4052653494P21CustomAttributesCache
Caj:__Z69RuntimeInvoker_Single_t2076509932_Int32_t2071877448_Int32_t2071877448PK10MethodInfoPvPS2_
y5:__Z19GetActiveColorSpacev
cHh:_EqualityComparer_1__cctor_m1672307556_gshared
XJh:_SoapTypeAttribute_get_IsInteropXmlElement_m2941294827
dwe:_UNITY_tt_face_load_kern
FQf:_Enumerator_System_Collections_IEnumerator_get_Current_m3542273247_gshared
Yqf:_Char_System_IConvertible_ToUInt32_m1557991717_AdjustorThunk
Ogf:_Encoding_get_UTF8Unmarked_m628720656
LDg:_NumberFormatter_RoundBits_m1545255255
i6:__Z6StrCmpPKcS0_
I5j:_InternalEnumerator_1_MoveNext_m2906956792_gshared
hlb:__ZN18StreamedBinaryReadILb1EE21TransferSTLStyleArrayINSt3__26vectorI17SortingLayerEntryNS2_9allocatorIS4_EEEEEEvRT_17TransferMetaFlags
h2b:__Z21CheckGpuProgramUsable20ShaderGpuProgramType
kVk:__ZNK15dense_hashtableINSt3__24pairIK10KeyWrapperIPK22Il2CppGenericParameterEP11Il2CppClassEES6_N6il2cpp5utils11PointerHashIS4_EEN14dense_hash_mapIS6_S9_SE_NS0_8equal_toIS6_EENS0_9allocatorISA_EEE9SelectKeyESH_SJ_E13find_positionERS7_
Ejj:__Z55RuntimeInvoker_Boolean_t3825574718_Keyframe_t1449471340PK10MethodInfoPvPS2_
w9h:_Binder__cctor_m3736115807
p$a:__ZN13BatchRenderer5FlushEv
OOl:__ZNKSt8bad_cast4whatEv
Wld:__ZN5physx6shdfnd5ArrayIPvNS0_19ReflectionAllocatorINS_2Cm5BlockIhLj128EEEEEE4copyINS0_15InlineAllocatorILj256ES7_EEEEvRKNS1_IS2_T_EE
lnf:_Attribute_GetHashCode_m2653962112
ire:__ZN20TextRenderingPrivate19NativeTextGenerator5SetupEv
Rfk:_AsyncResult_GetReplyMessage_m262842621
y2a:__ZNK15SharedLightData24GetFinalShadowResolutionEv
VOf:_Enumerator__ctor_m3021143890_AdjustorThunk
Cpd:__ZN5physx6shdfnd8PoolBaseINS_16NpConnectorArrayENS0_19ReflectionAllocatorIS2_EEE15disposeElementsEv
mGb:__ZN12AspectRatios8TransferI18StreamedBinaryReadILb0EEEEvRT_
woe:__ZN14PhysicsManager19CreatePvdConnectionEv
Upi:__ZL66X509ExtensionCollection_t1640144839_CustomAttributesCacheGeneratorP21CustomAttributesCache
aac:__ZN10GameObject14CopyPropertiesERS_
czc:__Z44Register_UnityEngine_GUIStyle_get_fixedWidthv
o7e:_RSACryptoServiceProvider_Common_m2581564813
Anl:__ZNSt3__214__split_bufferIN6il2cpp2os10ThreadImpl10APCRequestERNS_9allocatorIS4_EEEC2EjjS7_
x8:__ZN14SafeBinaryRead4InitERK16TypeTreeIteratorii24TransferInstructionFlags18MemLabelIdentifier
ZYj:_ArrayReadOnlyList_1_GetEnumerator_m634288642_gshared
kab:__ZNK13ScreenManager12IsFullScreenEv
xDl:_rand
J6k:__ZN15dense_hashtableINSt3__24pairIK10KeyWrapperINS1_IPK10MethodInfoP11Il2CppClassEEEjEES9_17ReflectionMapHashIS8_EN14dense_hash_mapIS9_jSD_19ReflectionMapEqualsIS8_ENS0_9allocatorISB_EEE9SelectKeyESG_SI_E12maybe_shrinkEv
nhe:__ZNK8Collider16SupportsMaterialEv
u$j:_InternalEnumerator_1_get_Current_m2345377791_AdjustorThunk
Lod:__ZNK5physx12NpConstraint9getActorsERPNS_12PxRigidActorES3_
pD:__ZN11UnityEngine9Animation33SetGenericTransformPropertyValuesERKNS0_30AnimatorGenericBindingConstantERKN7mecanim10ValueArrayEP9Transform
ELl:__ZNKSt3__28numpunctIwE16do_decimal_pointEv
Phg:_ReadOnlyCollection_1_GetEnumerator_m2481390116_gshared
bOb:__ZN14SafeBinaryRead21TransferSTLStyleArrayINSt3__26vectorI17AnimationCurveTplIfE13stl_allocatorIS4_L18MemLabelIdentifier1ELi16EEEEEEvRT_17TransferMetaFlags
Bic:__Z60Register_UnityEngine_AsyncOperation_set_allowSceneActivationv
fee:__ZN5physx6shdfnd8PoolBaseIN17PxcPoolMallocData10PoolData16ENS0_19ReflectionAllocatorIS3_EEE15disposeElementsEv
$Ej:_CullStateChangedEvent__ctor_m4025397477
Nhe:__ZN9Rigidbody23UpdateInterpolationNodeEv
JCk:_LobsterProjectile_FixedUpdate_m2772701150
lNh:_ObjectManager_RegisterObject_m872610295
AWa:__Z22PrepareOptimizedPlanesPK5PlaneiPKN4math7_float4E
bpj:__Z47RuntimeInvoker_Vector3_t2243707580_Il2CppObjectPK10MethodInfoPvPS2_
B5h:_RectOffset_t3387826427_marshal_pinvoke
mMe:__ZN11UnityEngine7Connect13ConfigHandler13ConfigChangedERK8UnityStr
_ug:_Graphic_SetVerticesDirty_m1607014370
bda:__ZN17UniqueIDGenerator15CreatePureIndexEv
YLl:__ZNSt3__27codecvtIDsc11__mbstate_tED0Ev
x7g:_MD2__ctor_m3133818738
jK:__ZN11UnityEngine9Animation28GenericAnimationBindingCache15DidReloadDomainEv
r4g:_AppDomain_InternalGetProcessGuid_m1278588156
rAg:_InputField_MoveRight_m386206014
DUb:__ZN6HelperI18StreamedBinaryReadILb0EE23TransferArrayField_InfoE24SerializationFunctionForERKS2_R23StaticTransferFieldInfoPb
EJd:__ZN5physx7NpScene8addActorERNS_7PxActorE
YQe:_Array_InternalArray__ICollection_Remove_TisIl2CppObject_m2425110446_gshared
PJ:__ZN19StreamedBinaryWriteILb0EE8TransferIN7mecanim9animation23BlendDirectDataConstantEEEvRT_PKc17TransferMetaFlags
xIj:_ScrollRect_set_inertia_m2575649134
MKg:_BinaryReader_ReadBoolean_m2892291883
aJc:__ZNK12b2MouseJoint17GetReactionTorqueEf
Bxi:__ZL66DSASignatureDeformatter_t2187578719_CustomAttributesCacheGeneratorP21CustomAttributesCache
Wcc:__ZN4Mesh24UpdateSubMeshVertexRangeEi
o7i:__Z91RuntimeInvoker_Boolean_t3825574718_Il2CppObject_Il2CppObject_Il2CppObject_Int32_t2071877448PK10MethodInfoPvPS2_
ruc:__Z14GUIClipTextureP9Texture2DPhiiii
Iu:__ZN14SafeBinaryRead21TransferSTLStyleArrayI13dynamic_arrayI11KeyframeTplI11QuaternionfELj4EEEEvRT_17TransferMetaFlags
F_j:_InternalEnumerator_1_Dispose_m1064404287_AdjustorThunk
vHa:__ZNSt3__26vectorI27ComputeShaderBuiltinSamplerNS_9allocatorIS1_EEE21__push_back_slow_pathIKS1_EEvRT_
Uhj:__Z95RuntimeInvoker_Void_t1841601450_ObjectU5BU5DU26_t3223402458_Int32_t2071877448_Int32_t2071877448PK10MethodInfoPvPS2_
oeh:_TlsServerCertificate_validateCertificates_m1988583701
S4i:__Z52RuntimeInvoker_DateTime_t693205669_Int16_t4041245914PK10MethodInfoPvPS2_
ymk:_Uri__ctor_m3927533881
kpi:__ZL61DllImportAttribute_t3000813225_CustomAttributesCacheGeneratorP21CustomAttributesCache
O5:__ZNK9Transform18TransformDirectionERK8Vector3f
_9d:__ZN5physx21PxsBodyTransformVault6updateEv
fRa:__ZNK17ArchiveFileSystem12GetAssetGUIDERK13FileEntryData
$1b:__ZNSt3__26vectorIN9ShaderLab20SerializedSubProgram15MatrixParameterENS_9allocatorIS3_EEE21__push_back_slow_pathIKS3_EEvRT_
XUh:_GUILayoutEntry_SetHorizontal_m1828181654
wca:__ZN13RuntimeStaticINSt3__23setIPFvP11Il2CppClassR23CachedSerializationDataRbENS0_4lessIS8_EENS0_9allocatorIS8_EEEEE16StaticInitializeEPv
STc:__ZL29GeomMTDCallback_CapsuleConvexRN5physx6PxVec3ERfRKNS_10PxGeometryERKNS_11PxTransformES5_S8_
QIl:__ZNKSt3__210__time_put8__do_putEPwRS1_PK2tmcc
EHh:_EqualityComparer_1_get_Default_m1852501307_gshared
sEk:_SliderController__ctor_m3702861044
NY:__ZNKSt3__23mapINS_12basic_stringIcNS_11char_traitsIcEENS_9allocatorIcEEEES6_NS_4lessIS6_EENS4_INS_4pairIKS6_S6_EEEEE16__find_equal_keyERPNS_16__tree_node_baseIPvEERSA_
V8i:__Z94RuntimeInvoker_Void_t1841601450_Il2CppObject_ByteU5BU5DU26_t790777611_ByteU5BU5DU26_t790777611PK10MethodInfoPvPS2_
QJb:__ZN10MonoScript23VirtualRedirectTransferER17RemapPPtrTransfer
sOl:__ZNK10__cxxabiv120__si_class_type_info27has_unambiguous_public_baseEPNS_19__dynamic_cast_infoEPvi
vFg:_NumberFormatInfo_get_PercentNegativePattern_m1162448153
Cqi:__ZL56SyncHashtable_t1343674558_CustomAttributesCacheGeneratorP21CustomAttributesCache
BJb:__ZN24RingBufferMemoryFileData9SetLengthEy
VSl:_glTexSubImage3D__wrapper
Erh:_FactoryCache_Add_m2602974721
DTa:__Z21WriteImageAsyncThreadPv
uca:__ZL16GetInterfaceImpl18UnityInterfaceGUID
OVk:__ZN6il2cpp2vmL17SetupFieldOffsetsENS0_15FieldLayoutKindEP11Il2CppClassjRKNSt3__26vectorIjNS4_9allocatorIjEEEE
sSf:_List_1_System_Collections_IList_get_Item_m936612973_gshared
jL:__ZNSt3__26vectorI8UnityStrNS_9allocatorIS1_EEE26__swap_out_circular_bufferERNS_14__split_bufferIS1_RS3_EE
Z_:__ZN13EmscriptenWWW7GetSizeEv
yrl:__ZN6il2cpp6icalls8mscorlib6System15MonoCustomAttrs27GetCustomAttributesInternalEP12Il2CppObjectP20Il2CppReflectionTypeb
Zu:__ZN7mecanim9animation18ClipMuscleConstant8TransferI18StreamedBinaryReadILb1EEEEvRT_
hDc:__ZN8JSONRead21TransferSTLStyleArrayI13dynamic_arrayI8Vector3fLj4EEEEvRT_18MemLabelIdentifier17TransferMetaFlags
vNh:_ObjectReader_ReadAssembly_m869834280
gSc:__ZNK5physx3Cct13BoxController11getPositionEv
ora:__ZN14PreloadManager35WaitForAllAsyncOperationsToCompleteEv
WCd:__ZN5physx14NpRigidDynamicC2ERKNS_11PxTransformE
hhg:_ReadOnlyCollection_1_System_Collections_IList_get_Item_m1831743662_gshared
yag:_Collection_1_IsSynchronized_m971497175_gshared
FXc:__Z27sweepCCTBox_HeightFieldGeomRKN5physx10PxGeometryERKNS_11PxTransformERKNS_2Gu3BoxERKNS_6PxVec3EfRNS_10PxSweepHitENS_7PxFlagsINS_9PxHitFlag4EnumEtEEf
KRe:_ExecuteEvents_Execute_TisIl2CppObject_m4168308247_gshared
$Lj:_Text_get_cachedTextGeneratorForLayout_m1357670532
_O:__ZL31InitializeAudioScriptingClassesv
qZa:__Z14SortGUIByDepthP10GUIElementS0_
KHg:_NumberFormatter_NumberToString_m126384393
SWl:_emscripten_glVertexAttrib4fv__wrapper
Di:_glBindSampler
Igk:_LogicalCallContext__ctor_m3173272863
ATc:__ZN5physx3Cct9SweepTest18updateTouchedGeomsEPKNS0_30InternalCBData_FindTouchedGeomERKNS0_13UserObstaclesERKNS_17PxExtendedBounds3ERKNS_19PxControllerFiltersERKNS_6PxVec3E
_Rg:_MonoCustomAttrs__cctor_m2608447972
xHg:_Int32_FindSign_m3803672540
Guh:_Enumerator_System_Collections_IEnumerator_Reset_m70453843_AdjustorThunk
rXh:_GUISkin_get_scrollView_m2941173958
Tle:_PxCloseExtensions
k2:__ZNK20LocalFileSystemPosix21GetAvailableDiskSpaceEPKcRy
Qr:__ZNSt3__26__treeIiNS_4lessIiEENS_9allocatorIiEEE7destroyEPNS_11__tree_nodeIiPvEE
RFk:_Predicate_1__ctor_m2995226103_gshared
bah:_CipherSuite_InitializeCipher_m229247572
Yya:__ZNK9GfxDevice14GetWorldMatrixEv
Fji:_MonoProperty_GetGetMethod_m1100580870
dCh:_Dictionary_2__ctor_m1950568359_gshared
Luh:_Enumerator_System_Collections_IDictionaryEnumerator_get_Key_m1214978221_AdjustorThunk
fT:__ZN11SoundHandle13CreateChannelEb
Tsb:__ZN14SafeBinaryRead21TransferSTLStyleArrayI13dynamic_arrayI12LightmapDataLj4EEEEvRT_17TransferMetaFlags
L4g:_ArgumentException__ctor_m3312963299
nib:__ZN21AssetBundleFileSystem11CreateAsDirER13FileEntryData
R_b:__ZNSt3__26vectorIN9ShaderLab20SerializedSubProgram16TextureParameterENS_9allocatorIS3_EEE6assignIPS3_EENS_9enable_ifIXaasr21__is_forward_iteratorIT_EE5valuesr16is_constructibleIS3_NS_15iterator_traitsISA_E9referenceEEE5valueEvE4typeESA_SA_
Wac:__Z16CreateGameObjectRKNSt3__212basic_stringIcNS_11char_traitsIcEENS_9allocatorIcEEEEPKcz
Bnl:__ZNSt3__26vectorIN6il2cpp2os10ThreadImpl10APCRequestENS_9allocatorIS4_EEE26__swap_out_circular_bufferERNS_14__split_bufferIS4_RS6_EE
IOk:_U3CCreateWhereIteratorU3Ec__Iterator1D_1_MoveNext_m3533253043_gshared
X0j:_InternalEnumerator_1_System_Collections_IEnumerator_Reset_m2726857860_AdjustorThunk
ROb:__ZN9Scripting36IsSystemCollectionsGenericDictionaryEP11Il2CppClass
hrh:_X509SubjectKeyIdentifierExtension__ctor_m3887138480
NOf:_Enumerator_System_Collections_IEnumerator_get_Current_m2853089017_AdjustorThunk
lKc:__ZN12b2WheelJoint24SolvePositionConstraintsERK12b2SolverData
$wd:__ZNK5physx2Sc9ClothCore20getNbCollisionPlanesEv
th:_emscripten_exit_fullscreen
vQd:__ZN5physx6shdfnd5ArrayINS_9PxBounds3ENS0_15InlineAllocatorILj192ENS0_19ReflectionAllocatorIS2_EEEEE8recreateEj
QYd:__ZNK5physx23PxsBroadPhaseContextSap7getTypeEv
ece:__ZNK5physx13GuMeshFactory17getNbHeightFieldsEv
syg:_InputField_get_mesh_m3276583786
Dbk:_GCHandle_Free_m1639542352_AdjustorThunk
$tb:__ZNK29LineParametersPropertyBinding38SerializedPropertyPathToCurveAttributeER6ObjectPKc
Xch:_Context_set_ClientRandom_m631392719
wpl:__ZN6il2cpp6icalls8mscorlib6System6String19InternalAllocateStrEi
_Cc:__Z29Transfer_Blittable_ArrayFieldI8JSONRead11QuaternionfEvRT_R9ArrayInfoRK23StaticTransferFieldInfo
$vi:__ZL65SoapParameterAttribute_t2780084514_CustomAttributesCacheGeneratorP21CustomAttributesCache
rTd:__ZNK5physx2Gu12OBBAABBTestsILb1EEclENS_6shdfnd3aos5Vec3VES5_
Saj:__Z47RuntimeInvoker_Vector4_t2243707581_Il2CppObjectPK10MethodInfoPvPS2_
VSc:__ZN5physx3Cct9SweepTestD2Ev
rmb:__ZN9Behaviour8TransferI18StreamedBinaryReadILb0EEEEvRT_
$hk:_Enumerator_System_Collections_IEnumerator_get_Current_m1429268283
Lwj:_ControllerColliderHit_get_transform_m3183428555
h0c:__ZN26IntersectAnyVsMeshCallbackILi0ELb0EED2Ev
h7j:_InternalEnumerator_1_MoveNext_m2708162461_AdjustorThunk
d_:__ZN19CloudServiceHandler10QueueEventEPN11UnityEngine15CloudWebService14CloudEventInfoE
bPl:___cxa_is_pointer_type
vyg:_InputField_get_shouldHideMobileInput_m3694613599
xIa:__ZN4gles20DestroyRenderSurfaceEP7ApiGLESP17RenderSurfaceGLES
MOf:_Enumerator_System_Collections_IEnumerator_get_Current_m2853089017_gshared
Iil:__ZN15dense_hashtableINSt3__24pairIK10KeyWrapperINS1_IPKcS4_EEEiEES6_24NamespaceAndNamePairHashN14dense_hash_mapIS6_iS9_26NamespaceAndNamePairEqualsNS0_9allocatorIS8_EEE9SelectKeyESB_SD_E8min_sizeEjj
Fea:__ZN17MessageIdentifier13StaticDestroyEPv
rMl:__ZNSt3__26locale5__imp7installINS_7num_putIcNS_19ostreambuf_iteratorIcNS_11char_traitsIcEEEEEEEEvPT_
ysc:__Z34Transform_CUSTOM_SetAsFirstSiblingP12Il2CppObject
NWc:__ZN12_GLOBAL__N_141SphereMeshContactGenerationCallback_ScaleD0Ev
M1c:__ZN5physx3Cct17CapsuleController16setContactOffsetEf
WQf:_Enumerator_get_Current_m827571811_AdjustorThunk
Vna:__ZN17PersistentManager40GlobalToLocalSerializedFileIndexInternalERK26SerializedObjectIdentifier
Uig:_BaseEventData_get_selectedObject_m3551206992
FWg:_SimpleCollator_CompareOrdinal_m2176988387
BNi:__ZL47Rect_t3681755626_CustomAttributesCacheGeneratorP21CustomAttributesCache
jMf:_CCGregorianCalendar_GetYear_m1289900195
lod:__ZN12GeomQueryAnyIN5physx10PxSweepHitEE7geomHitERKNS0_2Sq17SceneQueryManagerERKNS0_15MultiQueryInputERKNS3_9ShapeDataERKNS0_10PxGeometryERKNS0_11PxTransformENS0_7PxFlagsINS0_9PxHitFlag4EnumEtEEjPS1_fbPNS0_9PxBounds3E
IHg:_Int16_ToString_m2592645088
ADa:__ZN13TranslateGLES4InitERK12GraphicsCaps16GfxDeviceLevelGL
DVb:__Z29Transfer_Blittable_ArrayFieldI18StreamedBinaryReadILb0EE10ColorRGBAfEvRT_R9ArrayInfoRK23StaticTransferFieldInfo
XVc:__ZN43CapsuleHeightfieldContactGenerationCallback7onEventEjPj
Nje:__ZThn4_N12MemoryStream4readEPvj
jPh:_SerializationInfoEnumerator_Reset_m2206466680
alj:__Z48RuntimeInvoker_Void_t1841601450_Slot_t2267560602PK10MethodInfoPvPS2_
h1b:__ZNSt3__26__treeINS_12__value_typeI8UnityStriEENS_19__map_value_compareIS2_S3_NS_4lessIS2_EELb1EEENS_9allocatorIS3_EEE4findIS2_EENS_15__tree_iteratorIS3_PNS_11__tree_nodeIS3_PvEEiEERKT_
xel:__ZNK15dense_hashtableINSt3__24pairIK10KeyWrapperIP11Il2CppClassES4_EES5_N6il2cpp8metadata16SZArrayClassHashEN14dense_hash_mapIS5_S4_SA_NS9_19SZArrayClassCompareENS0_9allocatorIS7_EEE9SelectKeyESC_SE_E10test_emptyERK24dense_hashtable_iteratorIS7_S5_SA_SG_SC_SE_E
GSa:__ZZ23InitPlayerLoopCallbacksvEN33PostLateUpdateInputEndFramestruct7ForwardEv
bqj:_AnimationEvent_get_objectReferenceParameter_m3565420672
JMk:_GenericEqualityComparer_1_Equals_m1934771410_gshared
Nqi:__ZL57DebuggingModes_t2073970606_CustomAttributesCacheGeneratorP21CustomAttributesCache
jSg:__ZN16VirtFuncInvoker0IP12MethodInfo_tE6InvokeEjPv
wJb:__ZN24RingBufferMemoryFileDataD0Ev
e7f:_Collection_1_System_Collections_IList_get_IsFixedSize_m993584401_gshared
IHb:__ZNSt3__26vectorIN30RuntimeInitializeOnLoadManager15ClassMethodInfoE13stl_allocatorIS2_L18MemLabelIdentifier12ELi16EEE8__appendEj
DGd:__ZN5physx6shdfnd8internal8HashBaseIPNS_13NpVolumeCacheES4_NS0_4HashIS4_EENS1_11HashSetBaseIS4_S6_NS0_9AllocatorELb0EE6GetKeyES8_Lb0EE15reserveInternalEj
X8i:__Z84RuntimeInvoker_Il2CppObject_Il2CppObject_Il2CppObject_Il2CppObject_Int32_t2071877448PK10MethodInfoPvPS2_
hzl:__ZN6il2cpp2os6Memory12AlignedAllocEjj
nrd:__ZN5physx6shdfnd8internal8HashBaseIPKNS_6PxBaseES5_NS0_4HashIS5_EENS1_11HashSetBaseIS5_S7_NS0_9AllocatorELb0EE6GetKeyES9_Lb0EE6createERKS5_Rb
vXd:__ZN5physx28solveFrictionCoulombPreBlockEPKNS_23PxcSolverConstraintDescEjRNS_16PxcSolverContextE
N0e:_Array_swap_TisPlayable_t3667545548_m817366036_gshared
Zai:_TypeBuilder_get_is_created_m736553860
QCj:_GameObject_set_layer_m2712461877
I8g:_RSAManaged__ctor_m1370411656
QUb:__Z18Transfer_BlittableI18StreamedBinaryReadILb0EELb1E10ColorRGBAfEvRK29SerializationCommandArgumentsR31RuntimeSerializationCommandInfo
vee:__ZN5physx7Cooking19computeHullPolygonsERKNS_20PxSimpleTriangleMeshERNS_19PxAllocatorCallbackERjRPNS_6PxVec3ES6_RPjS6_RPNS_13PxHullPolygonE
Hgc:__ZL27GetComponentsImplementationILb0ELi0EEbR10GameObjectbRK17CompareParametersRK39GetComponentsImplementation_ReturnValue
f5j:_InternalEnumerator_1_MoveNext_m3103009949_AdjustorThunk
qqc:__Z26Material_CUSTOM_SetTextureP12Il2CppObjectiS0_
TGj:_Raycast3DCallback_EndInvoke_m3234280377
r9:__Z18BuildScriptClassIdP11Il2CppClass
blk:_BalancingGroup__ctor_m2474435406
Wmd:__ZN5physx12NpConstraint12actorDeletedEPNS_12PxRigidActorE
Krg:_ColorTweenCallback__ctor_m3619686788
Qaa:__ZL16ReadTypeTreeImplILb0EEbR8TypeTreeRK16TypeTreeIteratorRPKhS6_i
kLj:__ZN18VirtActionInvoker1IfE6InvokeEjPvf
XJ:__ZN25RuntimeAnimatorControllerD2Ev
Epf:_Byte_System_IConvertible_ToInt32_m1032609763_AdjustorThunk
k2b:__ZN9ShaderLab7ProgramD0Ev
G5c:__ZN5physx2Sc8ShapeSim18reinsertBroadPhaseEv
Wxk:_PKCS12_GetSymmetricAlgorithm_m3196291685
plc:__Z42Register_UnityEngine_RectOffset_set_bottomv
Zsf:_ArrayListWrapper_IndexOf_m3574835167
lld:__ZN5physx2Sc5Scene11removeShapeERNS0_8ShapeSimEb
P4a:__ZN28LightProbeProxyVolumeContext8CopyFromERKS_
Gsk:_Texture_Internal_GetHeight_m2775530157
Fpg:_U3COnFinishSubmitU3Ec__Iterator0_System_Collections_Generic_IEnumeratorU3CobjectU3E_get_Current_m1823105495
Pba:__ZN23TransformChangeDispatch32QueueTransformChangeIfHasChangedER18TransformHierarchy
r9e:_SymmetricAlgorithm_get_FeedbackSize_m544664262
e8k:__ZNK15dense_hashtableINSt3__24pairIK10KeyWrapperINS1_IPK12PropertyInfoP11Il2CppClassEEEjEES9_17ReflectionMapHashIS8_EN14dense_hash_mapIS9_jSD_19ReflectionMapEqualsIS8_ENS0_9allocatorISB_EEE9SelectKeyESG_SI_E5beginEv
u3a:__ZN18DeferredRenderLoop15RenderFinalPassEP13RenderTextureS1_
iFl:__ZNSt3__213basic_ostreamIcNS_11char_traitsIcEEE6sentryD2Ev
yIa:__ZN7ApiGLES18DeleteRenderbufferERj
q9c:__ZN5physx6shdfnd5ArrayIPvNS0_15InlineAllocatorILj256ENS0_19ReflectionAllocatorINS_16NpConnectorArrayEEEEEE15growAndPushBackERKS2_
qHa:__ZL23ProgramUniformMatrix4fvPK7ApiGLESjiihPKv
lAi:__ZL67ThreadInterruptedException_t63303933_CustomAttributesCacheGeneratorP21CustomAttributesCache
c$d:__ZN5physx14SingleAABBTaskC2Ev
W4j:_InternalEnumerator_1_MoveNext_m3629145604_gshared
y_b:__ZN9ShaderLab20SerializedSubProgram15MatrixParameter8TransferI14SafeBinaryReadEEvRT_
Anf:_BitConverter_AmILittleEndian_m2716658112
Jgc:__ZL27GetComponentsImplementationILb0ELi1EEbR10GameObjectbRK17CompareParametersRK39GetComponentsImplementation_ReturnValue
lDe:_Round_Down_To_Grid
IOj:_UTF8Decoder__ctor_m1460357288
Wja:__ZN13RenderTexture7ReleaseEv
jCb:__ZN10MeshFilter23VirtualRedirectTransferER14SafeBinaryRead
Uik:_PatternCompiler_EmitBranchEnd_m3390109636
pzf:_Convert_ToByte_m1201588964
tCb:__ZN12MeshRenderer17MainThreadCleanupEv
pic:__Z36AsyncOperation_Get_Custom_PropIsDoneP12Il2CppObject
kLa:__ZN22CreateGpuProgramOutput12CreateParamsEv
MPh:_RuntimeMethodHandle_GetHashCode_m2682236001_AdjustorThunk
qkl:__ZN15dense_hashtableI10KeyWrapperIP18Il2CppGenericClassES3_N6il2cpp8metadata22Il2CppGenericClassHashEN14dense_hash_setIS3_S6_NS5_25Il2CppGenericClassCompareENSt3__29allocatorIS3_EEE8IdentityES8_SB_E12expand_arrayEjN21dense_hash_map_traits17integral_constantIbLb0EEE
Njd:__ZNK5physx18NpArticulationLink11getChildrenEPPNS_18PxArticulationLinkEj
zck:_ActivationServices_AllocateUninitializedClassInstance_m3410698501
Ubl:__ZNSt3__26vectorIiNS_9allocatorIiEEE21__push_back_slow_pathIiEEvOT_
pDa:__ZNK14GfxContextGLES13GetDefaultFBOEv
Asl:_GC_promote_black_lists
gRe:_Array_InternalArray__ICollection_Remove_TisSByte_t454417549_m2474211570_gshared
Yxg:_Image_AddQuad_m1600600902
x7d:__Z15atomIntegrationfPKPN5physx11PxsBodyCoreEPKPNS_12PxsRigidBodyEjPKNS_2Cm13SpatialVectorEPNS_13PxcSolverBodyEPNS_17PxcSolverBodyDataEPS9_RjSH_
Lok:_SliderHandler_IsEmptySlider_m2679659864_AdjustorThunk
IFd:__ZN5physx13NpRigidStatic11createShapeERKNS_10PxGeometryEPKPNS_10PxMaterialEtNS_7PxFlagsINS_11PxShapeFlag4EnumEhEE
Oxb:__ZN18StreamedBinaryReadILb1EE21TransferSTLStyleArrayI13dynamic_arrayI12SpriteVertexLj4EEEEvRT_17TransferMetaFlags
z3k:_il2cpp_class_is_enum
Eih:_AuthorityKeyIdentifierExtension_get_Identifier_m3535568551
E3e:_GameObject_AddComponent_TisIl2CppObject_m3813873105_gshared
Wla:__ZNSt3__23mapIN9ShaderLab16FastPropertyNameEN18UnityPropertySheet11UnityTexEnvENS_4lessIS2_EENS_9allocatorINS_4pairIKS2_S4_EEEEEixERS9_
fKg:_IntPtr_ToString_m428195821_AdjustorThunk
sdd:__ZN5physx11NpAggregate22removeActorAndReinsertERNS_7PxActorEb
D$j:_InternalEnumerator_1_MoveNext_m2724656708_AdjustorThunk
Zee:__ZZL19ExtractHullPolygonsRjRN5physx2Gu9ContainerERKNS0_17ConvexHullBuilderEPS2_S3_EN5Local9FloodFillES3_PKNS0_11AdjTriangleEjPb
L7f:_Collection_1_System_Collections_IList_Contains_m1897568526_gshared
pdi:_FieldBuilder_get_FieldType_m2267463269
Vmf:_SimpleEnumerator_Clone_m3032847657
Oik:_PatternCompiler_EmitInfo_m597931026
HXh:_GUIStateObjects_GetStateObject_m2567357506
v_k:__ZN6il2cpp2vm13MetadataCache34GetTypeInfoFromTypeDefinitionIndexEi
U5g:_ModulusRing_Multiply_m3113924743
mrc:__Z47Texture2D_CUSTOM_INTERNAL_CALL_GetPixelBilinearP12Il2CppObjectffR10ColorRGBAf
Kch:_Context_get_ServerSettings_m225713600
sj:_emscripten_glVertexAttrib4f
$Pf:_Enumerator_System_Collections_IEnumerator_get_Current_m3461301268_AdjustorThunk
KGk:_InvokableCall_1_remove_Delegate_m3576859071_gshared
Xbg:_ReadOnlyCollection_1_System_Collections_IEnumerable_GetEnumerator_m531171980_gshared
upe:__ZL28RegisterModuleICalls_Physicsv
L1b:__ZNSt3__26vectorIN20GpuProgramParameters14ConstantBufferENS_9allocatorIS2_EEE8__appendEj
n0e:_Array_Sort_TisUILineInfo_t3621277874_m3105833015_gshared
BGb:__ZN15ResourceManager23VirtualRedirectTransferER18StreamedBinaryReadILb1EE
Wo:FUNCTION_TABLE_vf
RTg:_MonoType_GetGenericArguments_m2708198481
y_a:__ZN11HaloManager21ReleaseGeometryJobMemEP25DynamicVBOGeometryJobData
ySf:_List_1_AddEnumerable_m2489692396_gshared
agd:__ZN5physx14NpArticulation26setMaxProjectionIterationsEj
c3c:__ZN5physx3Cct15ObstacleContext14removeObstacleEj
mLi:__ZL93TextGenerator_t647235000_CustomAttributesCacheGenerator_TextGenerator_Dispose_cpp_m1755131202P21CustomAttributesCache
Dwk:_WaitForSecondsRealtime__ctor_m1734539010
QCk:_MyUnitySingleton__cctor_m1524303406
aPj:_WaitHandle__ctor_m1256161634
OA:__ZN7mecanim12statemachine24CreateStateMachineMemoryEPKNS0_20StateMachineConstantERNS_6memory9AllocatorE
pBa:__ZN9GfxDevice18SetGlobalDepthBiasEff
wfk:_Identity_get_ChannelSink_m3989446673
s1k:__ZN6il2cpp6icalls8mscorlib6System8MonoType12get_AssemblyEP20Il2CppReflectionType
dog:__ZN16VirtFuncInvoker3IP25AxisEventData_t1524870173fffE6InvokeEjPvfff
Bug:_FontData_get_richText_m2013560754
Tcf:_SecurityException_get_PermissionType_m3543350822
Fj:_emscripten_glGetPointerv
RBj:_GenericMixerPlayable_Destroy_m3608330239_AdjustorThunk
hDd:__ZNK5physx15NpActorTemplateINS_14PxRigidDynamicEE13getActorFlagsEv
ZE:__ZN8Animator22ApplyBuiltinRootMotionEv
yke:__ZN5physx7profile8ZoneImplINS_28PxProfileNameProviderForwardEE17handleBufferFlushEPKhj
DHl:__ZNKSt3__28time_getIcNS_19istreambuf_iteratorIcNS_11char_traitsIcEEEEE11do_get_yearES4_S4_RNS_8ios_baseERjP2tm
pdd:__ZN5physx2Sc5ActorC2ERNS0_16InteractionSceneEhNS0_14IslandNodeInfo4TypeE
t5e:_RandomNumberGenerator_Create_m2275686895
rTh:_GUIContent__ctor_m3634307516
_xd:__ZN5physx15NpActorTemplateINS_7PxClothEED2Ev
Pri:__ZL55StreamReader_t2360341767_CustomAttributesCacheGeneratorP21CustomAttributesCache
cci:_DerivedType_get_UnderlyingSystemType_m3904230233
cmg:_PointerEventData_get_rawPointerPress_m448871540
J1i:__Z135RuntimeInvoker_IntPtr_t_Il2CppObject_Int32_t2071877448_Int32_t2071877448_Int32_t2071877448_Int32_t2071877448_MonoIOErrorU26_t1029615899PK10MethodInfoPvPS2_
Dwd:__ZN5physx2Sc9ClothCore16setRestPositionsEPKNS_6PxVec4E
uvc:__ZN5IMGUI14GUIWindowStateD2Ev
Web:__ZL13MotionHandleriPK27EmscriptenDeviceMotionEventPv
Lph:_X509Certificate2Collection__ctor_m819526826
dvb:__ZN8Renderer10SetVisibleEb
zO:__ZN12AudioManager5ResetEv
lVk:__ZNK15dense_hashtableINSt3__24pairIK10KeyWrapperIPK22Il2CppGenericParameterEP11Il2CppClassEES6_N6il2cpp5utils11PointerHashIS4_EEN14dense_hash_mapIS6_S9_SE_NS0_8equal_toIS6_EENS0_9allocatorISA_EEE9SelectKeyESH_SJ_E12test_deletedEj
j7g:_KeyBuilder_Key_m3814433741
M4g:_ArgumentException__ctor_m158205422
mUe:_Array_compare_TisVector3_t2243707580_m3709184876_gshared
Xwg:_HorizontalLayoutGroup_SetLayoutHorizontal_m3237355818
Gqa:__ZN6prcoreL17RemapGenericFloatI17TexFormatRGBAHalf15TexFormatRGHalfEEvPKNS_9InnerInfoE
Bpl:__ZN6il2cpp6icalls8mscorlib6System11Environment20GetWindowsFolderPathEi
SUi:__ZL60AspectRatioFitter_t3114550109_CustomAttributesCacheGeneratorP21CustomAttributesCache
gA:__ZN7mecanim5human18HumanPoseBlendNodeERNS0_9HumanPoseEPS1_f
bze:_UNITY_FT_RoundFix
U1b:__ZN9ShaderLab20SerializedSubProgram15AddTextureParamEPKcii16TextureDimension
ux:__ZNK8Animator26GetTypeInfoVirtualInternalEv
dX:__ZN23CloudWebServicesManager23VirtualRedirectTransferER17RemapPPtrTransfer
lTi:__ZL78MaskableGraphic_t540192618_CustomAttributesCacheGenerator_m_OnCullStateChangedP21CustomAttributesCache
Swk:_WWW_get_isDone_m3240254121
OXc:__ZNK5physx2Gu15HeightFieldUtil12traceSegmentI24ConvexVsHeightfieldSweepLb0ELb0ELb1EEEvRKNS_6PxVec3ES6_PT_PS5_
_Ib:__Z23AppendPathNameExtensionRKNSt3__212basic_stringIcNS_11char_traitsIcEENS_9allocatorIcEEEES7_
Ibe:__ZNK5physx12PxConvexMesh19getConcreteTypeNameEv
nYc:__ZN5physx2Gu19gjkLocalPenetrationINS0_9TriangleVENS0_17ShrunkConvexHullVEEEjRKT_RKT0_RKNS_6shdfnd3aos6FloatVERNSB_5Vec3VESG_SG_RSC_PhSI_Rhb
pRk:__ZL24UnresolvedVirtualCall_63P12Il2CppObjectS0_S0_S0_PK10MethodInfo
kR:__ZN4FMOD6System17setSoftwareFormatEi17FMOD_SOUND_FORMATii18FMOD_DSP_RESAMPLER
VZc:__ZN5physx2Gu15GJKLocalRayCastERNS0_9TriangleVERNS0_4BoxVERKNS_6shdfnd3aos6FloatVERKNS6_5Vec3VESC_RS7_RSA_SE_fb
kfe:__ZN5physx18AdjacenciesBuilderC2Ev
$Ch:_Dictionary_2_System_Collections_ICollection_get_IsSynchronized_m960517203_gshared
E5c:__ZN5physx2Sc13ShapeIterator4initERKNS0_8ActorSimE
DCl:_write
vtl:_GC_set_mark_bit
LTj:_Type_MakeByRefType_m1323101575
fHe:__ZN2UI6Canvas27UpdateEventIndexesRecursiveERi
Ly:__ZN7mecanim9animation18EvaluateRootMotionERKNS0_18ClipMuscleConstantERKNS0_15ClipMuscleInputEPKfS8_RNS0_12MotionOutputEb
izg:_InputField_set_characterLimit_m4114734597
cve:_UNITY_FT_Outline_New
Iql:__ZNSt3__218uninitialized_copyIPNS_4pairIK10KeyWrapperIPK19Il2CppGenericMethodEP10MethodInfoEESB_EET0_T_SD_SC_
UHh:_EqualityComparer_1_System_Collections_IEqualityComparer_Equals_m1738053269_gshared
f6f:_Collection_1__ctor_m1566657168_gshared
QTb:__Z19TransferField_ArrayI19StreamedBinaryWriteILb0EE27Converter_SimpleNativeClassI8GUIStyleEEvRK23StaticTransferFieldInfoR31RuntimeSerializationCommandInfoRT0_
Xej:__Z105RuntimeInvoker_Void_t1841601450_Rect_t3681755626_Vector2_t2243707579_Vector2_t2243707579_SByte_t454417549PK10MethodInfoPvPS2_
r4e:__ZN18VirtActionInvoker1IP22ByteU5BU5D_t3397334013E6InvokeEjPvS1_
dIj:_Scrollbar_SetDirection_m3264558284
Drd:__ZN5physx14NpArticulationC2Ev
FXl:_emscripten_glCopyTexSubImage2D__wrapper
Z0:__ZNK13ScreenManager12GetIsFocusedEv
DUi:__ZL70SpriteState_t1353336012_CustomAttributesCacheGenerator_m_PressedSpriteP21CustomAttributesCache
GLh:_RemotingServices_RegisterInternalChannels_m1827304423
YXh:_GUIStyle_get_onNormal_m1675201777
ms:__ZL32CleanupAnimationScriptingClassesv
e8f:__ZN23InterfaceActionInvoker2Ii22UILineInfo_t3621277874E6InvokeEjP11Il2CppClassPviS0_
b0k:__ZNSt3__213__vector_baseIN6il2cpp2os19SocketHandleWrapperENS_9allocatorIS3_EEED2Ev
nZg:_ASN1_get_Length_m3359111015
lXh:_GUISkin_get_verticalScrollbarThumb_m649633186
MZh:_GUIStyleState_Cleanup_m705006206
Jc:invoke_viiffi
TPj:_Thread_GetCachedCurrentUICulture_m5590127
Kqb:__ZNK12CubemapArray20GetRuntimeMemorySizeEv
Nvk:_Vector3_Dot_m3161182818
HMa:__ZN9GfxDevice5FlushEv
q$b:__Z14resize_trimmedINSt3__26vectorIN9ShaderLab18SerializedPropertyENS0_9allocatorIS3_EEEEEvRT_j
b0f:_List_1_CheckMatch_m4018158235_gshared
Qjj:__Z91RuntimeInvoker_Int32_t2071877448_UICharInfo_t3056636800_UICharInfo_t3056636800_Il2CppObjectPK10MethodInfoPvPS2_
RId:__ZN5physx6shdfnd8PoolBaseINS_2Sc9ActorPairENS0_19ReflectionAllocatorIS3_EEE12allocateSlabEv
z3i:__Z89RuntimeInvoker_Boolean_t3825574718_Il2CppObject_Il2CppObject_StreamingContext_t1417235061PK10MethodInfoPvPS2_
rpf:_Byte_System_IConvertible_ToDateTime_m1583041031
zga:__ZNSt3__26__treeINS_12__value_typeINS_12basic_stringIcNS_11char_traitsIcEENS_9allocatorIcEEEEiEENS_19__map_value_compareIS7_S8_NS_4lessIS7_EELb1EEENS5_IS8_EEE4findIS7_EENS_15__tree_iteratorIS8_PNS_11__tree_nodeIS8_PvEEiEERKT_
uRk:__ZL24UnresolvedVirtualCall_68P12Il2CppObjectS0_iS0_S0_S0_S0_S0_S0_PK10MethodInfo
cBb:__ZN10VertexData8TransferI24GenerateTypeTreeTransferEEvRT_
nql:__ZN13Il2CppHashMapIPK19Il2CppGenericMethodP10MethodInfoN6il2cpp8metadata23Il2CppGenericMethodHashENS6_26Il2CppGenericMethodCompareENSt3__29allocatorINS9_4pairIK10KeyWrapperIS2_ES4_EEEEEC2EjRKS7_RKS8_
g1g:_EncryptedData_get_EncryptionAlgorithm_m1301274243
AIi:__ZL68DrivenTransformProperties_t2488747555_CustomAttributesCacheGeneratorP21CustomAttributesCache
VVa:__ZL10CullLightsRK22SceneCullingParametersR11CullResults
Ytg:_Dropdown__cctor_m264401557
n0h:_Mathf_Clamp_m3542052159
mmf:_Array_IndexOf_m2819632474
hak:_Comparer_1__cctor_m3996541505_gshared
JA:__ZN7mecanim12statemachine20GetBlendTreeConstantERKNS0_13StateConstantEi
UJd:__ZN5physx7NpScene21setDominanceGroupPairEhhRKNS_20PxDominanceGroupPairE
Hrc:__Z40Register_UnityEngine_Texture2D_SetPixelsv
cbc:__Z40GetTemporaryCachePathApplicationSpecificv
Eza:__ZN9GfxDevice16EndAsyncJobFrameEv
dyg:_Image_get_minWidth_m1809071077
KKl:__ZNKSt3__27codecvtIcc11__mbstate_tE11do_encodingEv
Yve:_UNITY_tt_face_load_hhea
sJb:__ZN24RingBufferMemoryFileData11SetGrowableEb
NZh:_GUIStyleState_set_background_m3931679679
Pyf:_Convert_ToBase64String_m1936815455
Al:___syscall3
KBd:__ZNK5physx15NpActorTemplateINS_16PxParticleSystemEE7getNameEv
Dl:___syscall6
RAa:__ZN9GfxDevice15GetNextCPUFenceEv
Fl:___syscall4
QHf:_Decimal_ToString_m759431975
C8f:_Collection_1_System_Collections_IList_get_IsFixedSize_m2204750039_gshared
Yne:__ZN8Collider7PRODUCEE18MemLabelIdentifier18ObjectCreationMode
rSk:__ZL25UnresolvedVirtualCall_119P12Il2CppObjectiaPK10MethodInfo
Epg:_ColorBlock_get_fadeDuration_m987725262
dTi:__ZL195U3CMouseDragOutsideRectU3Ec__Iterator1_t2599668326_CustomAttributesCacheGenerator_U3CMouseDragOutsideRectU3Ec__Iterator1_System_Collections_Generic_IEnumeratorU3CobjectU3E_get_Current_m2602955272P21CustomAttributesCache
Oll:__ZN6il2cpp2vm3RCW14QueryInterfaceILb1EEEP14Il2CppIUnknownP15Il2CppComObjectRK10Il2CppGuid
gOc:__ZNSt3__26__sortIR24RayHitsByDepthComparitorP12RaycastHit2DEEvT0_S5_T_
IYi:__Z59RuntimeInvoker_UnicodeCategory_t682236799_Int16_t4041245914PK10MethodInfoPvPS2_
mVf:_List_1_AddCollection_m3266731889_gshared
fwi:__ZL59ITrackingHandler_t2759960940_CustomAttributesCacheGeneratorP21CustomAttributesCache
Vl:_emscripten_glShaderBinary
qQj:_DelegatePInvokeWrapper_ThreadStart_t3437517264
$_e:_Array_qsort_TisVector2_t2243707579_TisVector2_t2243707579_m3308480721_gshared
plf:_Array_InternalArray__RemoveAt_m1126483634
a2:__ZNK20LocalFileSystemPosix6ExistsERK13FileEntryData
X1j:_InternalEnumerator_1_Dispose_m4038440306_AdjustorThunk
bjj:__Z50RuntimeInvoker_Void_t1841601450_Color32_t874517518PK10MethodInfoPvPS2_
vbd:__ZN5physx35NpArticulationJointGetBodiesFromScbERNS_3Scb17ArticulationJointERPNS0_4BodyES5_
lfk:_SynchronizationAttribute_ReleaseLock_m2873780842
DHf:_DivideByZeroException__ctor_m280382972
bbe:__ZNK5physx2Sc15ClothFabricCore16getTetherLengthsEPfj
OPi:__ZL114PointerEventData_t1599784723_CustomAttributesCacheGenerator_PointerEventData_get_pointerCurrentRaycast_m1374279130P21CustomAttributesCache
i1h:_Mesh_get_colors32_m4153271224
KPc:__ZNK17Physics2DSettings26GetTypeInfoVirtualInternalEv
zKe:__Z58Register_UnityEngine_Canvas_GetETC1SupportedCanvasMaterialv
q3h:_Physics2D_INTERNAL_CALL_GetRayIntersectionAll_m161475998
mv:__ZN17AnimationCurveTplIfE8TransferI18StreamedBinaryReadILb1EEEEvRT_
_Ff:_DateTimeOffset_GetHashCode_m3312197462_AdjustorThunk
sMe:__ZN18UnityConnectClientD2Ev
bmh:_ServicePoint_set_UseNagleAlgorithm_m2618011464
Vyg:_InputField_get_textComponent_m2074509413
Ktc:__Z40WWW_Get_Custom_PropResponseHeadersStringP12Il2CppObject
S2k:_il2cpp_set_data_dir
KOd:__ZN5physx2Sc13ConstraintSim8getForceERNS_6PxVec3ES3_
Omk:_Uri_get_IsUnc_m2111738174
Ijb:__ZN16LevelGameManager23VirtualRedirectTransferER19StreamedBinaryWriteILb0EE
CAb:__Z32TransferEnumWithNameForceIntSizeI14SafeBinaryRead16GfxPrimitiveTypeEvRT_RT0_PKc17TransferMetaFlags
L8j:_DefaultComparer__ctor_m1961329658_gshared
Pfi:_ParameterBuilder_get_Attributes_m2421099277
wtk:_TouchScreenKeyboard_get_done_m406461410
ypk:_DataUtility_INTERNAL_CALL_GetPadding_m1621366113
bsb:__ZN18StreamedBinaryReadILb1EE21TransferResourceImageE19ActiveResourceImagePKcR13StreamingInfoPvj
TWh:_GUISkin_get_toggle_m4153935270
CTc:__ZN5physx15PxGeometryQuery18computePenetrationERNS_6PxVec3ERfRKNS_10PxGeometryERKNS_11PxTransformES6_S9_
Vqk:_TextEditor_SelectToEndOfPreviousWord_m3931162275
FLe:__ZN11UnityEngine15PlatformWrapper30GetGraphicsDriverLibraryStringEv
Rvh:_Enumerator_VerifyState_m262343092_AdjustorThunk
Ooe:__ZN5Unity12PhysicsQueryC2Ev
OVf:_List_1_get_Count_m1752597149_gshared
s8g:_EncryptedPrivateKeyInfo_Decode_m1706190306
gAh:_ValueCollection_GetEnumerator_m401908452_gshared
dUb:__Z18Transfer_BlittableI18StreamedBinaryReadILb0EELb0E4AABBEvRK29SerializationCommandArgumentsR31RuntimeSerializationCommandInfo
nLc:__ZNSt3__227__insertion_sort_incompleteIR26ColliderIdentityComparitorPP10Collider2DEEbT0_S6_T_
f5d:__ZN5physx10PxsContext13updateIslandsEfPNS_10PxBaseTaskE
Swj:_ControllerColliderHit_t4070855101_marshal_pinvoke
$Cf:_Convert_ToUInt16_m1665900934
pOk:_Converter_2_BeginInvoke_m898151494_gshared
G5i:__Z52RuntimeInvoker_UInt32_t2149682021_Double_t4078015681PK10MethodInfoPvPS2_
r5a:__Z14DrawGUITextureRK5RectTIfEP7Texture11ColorRGBA32P8Materiali
gMj:_Text_get_supportRichText_m3291105891
i6h:_RectTransform_GetParentSize_m1571597933
aE:__ZN9BlobWrite8TransferI22OffsetPtrArrayTransferIKN4math7_float4EEEEvRT_PKc17TransferMetaFlags
nhg:_ReadOnlyCollection_1_get_Count_m336636247_gshared
YGc:__ZNK11b2EdgeShape7RayCastEP15b2RayCastOutputRK14b2RayCastInputRK11b2Transformi
oBj:_Playables_GetInputWeightValidated_m2453142047
l_i:__Z52RuntimeInvoker_Decimal_t724701077_Double_t4078015681PK10MethodInfoPvPS2_
Yhk:_MatchCollection_GetEnumerator_m3516985966
pEc:__ZN9JSONWrite8TransferI4AABBEEvRT_PKc17TransferMetaFlags
RNj:_UTF7Encoding__ctor_m2365939916
TPa:__ZN25MultiBlocksMemoryFileData9SetLengthEy
WT:__Z30GetAudioSpatializerDefinitionsR13dynamic_arrayIP29AudioEffectInternalDefinitionLj4EE
Urk:_TextGenerationSettings_Equals_m3944651893_AdjustorThunk
ZEj:_MatEntry__ctor_m3650167335
ugj:__Z143RuntimeInvoker_Void_t1841601450_Il2CppObject_Vector2_t2243707579_Vector2_t2243707579_Color32_t874517518_Vector2_t2243707579_Vector2_t2243707579PK10MethodInfoPvPS2_
i8d:__ZNK18ScBeforeSolverTask7getNameEv
rLc:__ZN10Collider2D13AwakeFromLoadE17AwakeFromLoadMode
nrb:__ZNK9Texture2D20GetRuntimeMemorySizeEv
RTj:_TypeInitializationException__ctor_m2993591639
sXd:__ZN5physx14solve1D4_BlockEPKNS_23PxcSolverConstraintDescEjRNS_16PxcSolverContextE
sHh:_EqualityComparer_1__ctor_m3788663378_gshared
bn:_emscripten_glUniform2iv
vxi:__ZL46DES_t1353513560_CustomAttributesCacheGeneratorP21CustomAttributesCache
$Tc:__ZL33GeomMTDCallback_ConvexHeightFieldRN5physx6PxVec3ERfRKNS_10PxGeometryERKNS_11PxTransformES5_S8_
G0h:_Matrix4x4_ToString_m1982554457_AdjustorThunk
Yre:_UNITY_FT_Outline_Transform
FXh:_SkinChangedDelegate_BeginInvoke_m4259161711
erc:__Z60Register_UnityEngine_Sprites_DataUtility_Internal_GetMinSizev
cWk:__ZN6il2cpp2vm5Class10GetMethodsEP11Il2CppClassPPv
G4h:_Rect_get_x_m1393582490_AdjustorThunk
noi:__ZL65Il2CppArray_CustomAttributesCacheGenerator_Array_Sort_m3500510484P21CustomAttributesCache
Wbf:_Hash_GetObjectData_m315532943
NDa:__ZN7ApiGLES17DeleteFramebufferERN2gl6HandleILNS0_10ObjectTypeE9EEES3_
RVk:__ZN13dynamic_arrayIP11Il2CppClassLj4EE7reserveEj
kKa:__ZN15UniformTFMethod13MapBoneBufferEj
Gbh:_RecordProtocol_SendAlert_m2816808523
fGe:__ZN2UI14CanvasRendererD2Ev
uqj:_Animator_SetFloat_m956158019
x2j:_InternalEnumerator_1_get_Current_m3296972783_gshared
z0d:__ZN5physx26PxcPCMContactCapsuleConvexERKNS_2Gu13GeometryUnionES3_RKNS_11PxTransformES6_RKfRNS_10PxcNpCacheERNS0_13ContactBufferE
GHf:_Decimal_CompareTo_m2454501434
aQg:_SynchronizedReader_Read_m1399666181
fii:_MonoEvent_get_Name_m2796714646
Hfa:__Z9SetupArgviPPKc
kTe:_Array_InternalArray__IEnumerable_GetEnumerator_TisHitInfo_t1761367055_m2486283755_gshared
i7j:_InternalEnumerator_1_get_Current_m3180886734_AdjustorThunk
ZFc:__ZN9rapidjson13GenericReaderINS_4UTF8IcEES2_13JSONAllocatorE11ParseObjectILj0ENS_19GenericStringStreamIS2_EENS_15GenericDocumentIS2_S3_S3_EEEEvRT0_RT1_
lpf:_Convert_ToBoolean_m2032547942
$Dh:_Dictionary_2_get_Count_m1064551047_gshared
otg:_OptionData__ctor_m743450704
Och:_Context_get_SentConnectionEnd_m3114190867
ted:__ZN5physx10PxsContext17addParticleSystemEPNS_15PxsParticleDataERKNS_26PxvParticleSystemParameterEb
pcd:__ZN5physx3Scb5Scene13addRigidNoSimINS0_4BodyELb1ELb1EEEvRT_RNS0_13ObjectTrackerE
ukb:__ZN12ImmediatePtrI10GameObjectE8TransferI19StreamedBinaryWriteILb0EEEEvRT_
Oqb:__ZN12CubemapArray23VirtualRedirectTransferER24GenerateTypeTreeTransfer
CQk:__ZL24UnresolvedVirtualCall_22P12Il2CppObjectS0_iS0_S0_S0_PK10MethodInfo
sba:__ZN12FileAccessor4OpenER15FileSystemEntry14FilePermission16FileAutoBehavior
Drl:__ZN6il2cpp2os9Directory6CreateERKNSt3__212basic_stringIcNS2_11char_traitsIcEENS2_9allocatorIcEEEEPi
hna:__ZN4PPtrI6ShaderE8TransferI18StreamedBinaryReadILb0EEEEvRT_
lZc:__ZL19sweepBoxVsTrianglesjPKN5physx10PxTriangleERKNS_2Gu3BoxERKNS_6PxVec3EfRNS_10PxSweepHitENS_7PxFlagsINS_9PxHitFlag4EnumEtEEbPKj
QTk:__ZL25UnresolvedVirtualCall_198P12Il2CppObject23SpriteState_t1353336012PK10MethodInfo
Wlg:_PointerEventData_set_clickTime_m3931922487
cTh:_WindowFunction__ctor_m977095815
DDg:_NumberFormatter_AppendNonNegativeNumber_m629862866
Zna:__ZNSt3__26vectorINS_4pairIN9ShaderLab16FastPropertyNameEN18UnityPropertySheet11UnityTexEnvEEENS_9allocatorIS6_EEE21__push_back_slow_pathIKS6_EEvRT_
uRa:__ZN15ArchiveReadFile5WriteEyPKvPy
xak:_ResourceInfo__ctor_m2401359321_AdjustorThunk
Vvf:_Hashtable__ctor_m392789568
CPj:_Mutex_CreateMutex_internal_m2352956576
SNj:_UTF7Encoding__cctor_m4192443836
Lbj:__Z73RuntimeInvoker_Boolean_t3825574718_Playable_t3667545548_Int32_t2071877448PK10MethodInfoPvPS2_
ufa:__ZN13RuntimeStaticI15ApplicationInfoE13StaticDestroyEPv
fyc:__Z31GUIStyle_CUSTOM_SetFontInternalP12Il2CppObjectS0_
A:tempValue
icb:__Z29StdTemplateConversionFunctionIaiEbPvR14SafeBinaryRead
ioe:__ZZN12MeshCollider15InitializeClassEvEN29FunctorImpl_400kDidModifyMesh4CallEPviR11MessageData
Azl:__ZN6il2cpp8metadata24Il2CppGenericContextHash4HashEPK20Il2CppGenericContext
$vb:__ZN15QualitySettings8TransferI18StreamedBinaryReadILb1EEEEvRT_
ZGg:_Int16_System_IConvertible_ToSingle_m3277935657
t7:__Z29scripting_class_from_fullnamePKcS0_S0_
wng:_StandaloneInputModule_get_inputMode_m1415645893
JMc:__ZN10Collider2D23VirtualRedirectTransferER18StreamedBinaryReadILb1EE
RK:__ZZN8Animator15InitializeClassEvEN32FunctorImpl_386kTransformChanged4CallEPviR11MessageData
BHi:__ZL97GameObject_t1756533147_CustomAttributesCacheGenerator_GameObject_GetComponentInParent_m1235194528P21CustomAttributesCache
RGj:_Raycast3DCallback_Invoke_m2271859924
cSi:__ZL98Graphic_t2426225576_CustomAttributesCacheGenerator_Graphic_set_useLegacyMeshGeneration_m3023904722P21CustomAttributesCache
iUc:__ZN5physx2Gu29ConvexVsMeshContactGeneration20generateLastContactsEv
b9c:__ZNK5physx2Gu22SupportMapRelativeImplINS0_4BoxVEE14doSupportSweepERKNS_6shdfnd3aos5Vec3VE
aIl:__ZNSt3__220__get_up_to_n_digitsIcNS_19istreambuf_iteratorIcNS_11char_traitsIcEEEEEEiRT0_S5_RjRKNS_5ctypeIT_EEi
_T:__ZN11AudioSource19CreateOpenALRolloffEfff
Lwe:_UNITY_FT_Stream_ReadAt
dJi:__ZL111Object_t1021602117_CustomAttributesCacheGenerator_Object_DestroyImmediate_m3563317232____allowDestroyingAssets1P21CustomAttributesCache
pej:__Z132RuntimeInvoker_Void_t1841601450_Rect_t3681755626_Il2CppObject_Int32_t2071877448_Int32_t2071877448_Int32_t2071877448_SByte_t454417549PK10MethodInfoPvPS2_
Ezd:__ZN5physx2Sc17ParticleSystemSim16getParticleStateEv
o7d:__ZN5physx6shdfnd5ArrayINS_25PxsCompoundContactManagerENS0_19ReflectionAllocatorIS2_EEE8recreateEj
yYh:_GUIStyle_get_lineHeight_m2132859383
VTb:__Z46EmitSerializationCommandsForManagedObjectFieldI18StreamedBinaryReadILb0EEEvRK18TransferField_InfoR32SerializationCommandQueueBuilderRP20AllowNameConversions
dkj:__Z102RuntimeInvoker_Int32_t2071877448_Il2CppObject_UIVertex_t1204258818_Int32_t2071877448_Int32_t2071877448PK10MethodInfoPvPS2_
EKi:__ZL82Physics2D_t2540166467_CustomAttributesCacheGenerator_Physics2D_Raycast_m1220041042P21CustomAttributesCache
Adg:_ReadOnlyCollection_1_System_Collections_Generic_IListU3CTU3E_RemoveAt_m2137782652_gshared
Jzj:_UnityEvent_FindMethod_Impl_m3303953986
zj:_glReadBuffer
WTj:_UInt16_System_IConvertible_ToBoolean_m887616848
DKa:__Z26TransformVerticesInnerLoopILb1ELb1ELb1EEvPhRK10Matrix4x4fRK10Matrix3x3fjPKhiiiS8_ii25GfxTransformVerticesFlags
k_d:__ZN5physx14PxsAABBManagerC2ERNS_2Cm13EventProfilerERNS_19PxcScratchAllocatorE
HGi:__ZL120ScriptableObject_t1975622470_CustomAttributesCacheGenerator_ScriptableObject_Internal_CreateScriptableObject_m1778903390P21CustomAttributesCache
zV:__ZN11AudioModule22CreateAudioClipFromWWWEP10IWWWStreamPKcbbi
eYi:__Z142RuntimeInvoker_Boolean_t3825574718_Il2CppObject_Int32_t2071877448_Il2CppObject_SByte_t454417549_UInt32U26_t2197289955_ExceptionU26_t1467204777PK10MethodInfoPvPS2_
Vjf:_StringBuilder_set_Length_m3039225444
w8f:_Collection_1_System_Collections_IList_Contains_m3870109702_gshared
nQe:_Array_InternalArray__ICollection_Contains_TisRaycastResult_t21186376_m3188614988_gshared
MDf:_CultureAwareComparer_GetHashCode_m3681260951
eIe:__Z13RegisterClassIN2UI11CanvasGroupEEvv
tJk:_U3CStartU3Ec__Iterator0__ctor_m951808111_gshared
$f:_emscripten_glClear
_Gj:_Selectable__ctor_m1440593935
s1a:__ZN15SHConstantCacheC2ER13BatchRendererR15RenderLoopStats
wQa:__ZN14dense_hash_mapINSt3__212basic_stringIcNS0_11char_traitsIcEE13stl_allocatorIcL18MemLabelIdentifier54ELi16EEEEP20ArchiveStorageReader11djb2_hash_tIS7_ENS0_8equal_toIS7_EES4_INS0_4pairIKS7_S9_EELS5_54ELi16EEE15set_deleted_keyERSF_
Ntf:_SynchronizedArrayListWrapper_get_Count_m4104930530
Xni:__ZL65Il2CppArray_CustomAttributesCacheGenerator_Array_Clear_m782967417P21CustomAttributesCache
ZOl:___cxa_guard_abort
wai:_CustomAttributeTypedArgument_t1498197914_marshal_pinvoke_back
H9:__ZN14MessageHandler28MessageIDToMessageIdentifierEi
Skh:_HttpRequestCreator_Create_m3607509610
$Li:__ZL50GUISkin_t1436893342_CustomAttributesCacheGeneratorP21CustomAttributesCache
YRk:__ZL24UnresolvedVirtualCall_98P12Il2CppObject8IntPtr_tPK10MethodInfo
c1f:_List_1_Shift_m3824049528_gshared
tMh:_ArrayFixupRecord__ctor_m3659990982
_ch:_Context_get_RandomCS_m3946020109
Tmi:__ZL72IntPtr_t_CustomAttributesCacheGenerator_IntPtr_op_Inequality_m3044532593P21CustomAttributesCache
etg:_Dropdown_get_onValueChanged_m3334401942
uwl:__ZN6il2cpp2vm10WaitHandle19NewManualResetEventEb
keg:_ReadOnlyCollection_1_System_Collections_IList_Contains_m3707723158_gshared
o6k:__ZNK15dense_hashtableINSt3__24pairIK10KeyWrapperIPK10Il2CppTypeEjEES6_N6il2cpp8metadata14Il2CppTypeHashEN14dense_hash_mapIS6_jSB_NSA_17Il2CppTypeCompareENS0_9allocatorIS8_EEE9SelectKeyESD_SF_E10test_emptyERK30dense_hashtable_const_iteratorIS8_S6_SB_SH_SD_SF_E
TXj:_Version_GetHashCode_m880841176
YOk:_Nullable_1_ToString_m1238126148_AdjustorThunk
qe:emscriptenWebGLGetUniform
Hp:FUNCTION_TABLE_iiiiiiiiiii
p$c:__ZN5physx2Gu19sweepCapsuleCapsuleERKNS0_7CapsuleES3_RKNS_6PxVec3EfRfRS4_S8_jRt
MVd:__ZN5physx2Gu29EPASupportMapPairRelativeImplINS0_9TriangleVENS0_11ConvexHullVEED0Ev
cva:__Z32TransferEnumWithNameForceIntSizeI14SafeBinaryRead13TextureFormatEvRT_RT0_PKc17TransferMetaFlags
FTi:__ZL86Scrollbar_t3248359358_CustomAttributesCacheGenerator_Scrollbar_ClickRepeat_m3403943364P21CustomAttributesCache
qAj:_Playables_CheckInputBounds_m2953342617
UXa:__ZL10CleanUpJobP20CullingGroupsJobData
brf:_Char_CompareTo_m3044885427_AdjustorThunk
LTh:_GUILayoutGroup_Add_m211909690
Cgf:_String_Join_m1966872927
e0a:__Z20IsRunningNativeTestsv
Y3j:_InternalEnumerator_1_System_Collections_IEnumerator_get_Current_m2035754659_AdjustorThunk
hCb:__ZN10MeshFilter23VirtualRedirectTransferER24GenerateTypeTreeTransfer
Bbe:__ZN5physx13BigConvexData4LoadERNS_13PxInputStreamE
k5a:__ZN13RenderManager15BatchModeUpdateEv
w7k:__ZN15dense_hashtableINSt3__24pairIK10KeyWrapperINS1_IPK11Il2CppImageP11Il2CppClassEEEjEES9_17ReflectionMapHashIS8_EN14dense_hash_mapIS9_jSD_19ReflectionMapEqualsIS8_ENS0_9allocatorISB_EEE9SelectKeyESG_SI_E5clearEv
uPk:_Predicate_1_EndInvoke_m973058386_gshared
dIi:__ZL52LayerMask_t3188175821_CustomAttributesCacheGeneratorP21CustomAttributesCache
Yjg:_RaycasterManager_RemoveRaycasters_m3465850111
fzb:__ZN14SafeBinaryRead21TransferSTLStyleArrayI13dynamic_arrayI8Vector2fLj4EEEEvRT_17TransferMetaFlags
Una:__ZN17PersistentManager51InstanceIDToLocalSerializedObjectIdentifierInternalEiR31LocalSerializedObjectIdentifier
Bki:_StrongNameKeyPair_System_Runtime_Serialization_IDeserializationCallback_OnDeserialization_m2330221363
yld:__ZN5physx2Sc8ActorSim24postDominanceGroupChangeEv
Avc:__ZN8GUIState12GetControlIDEi9FocusType
d6i:__Z116RuntimeInvoker_Boolean_t3825574718_Il2CppObject_Int32_t2071877448_Int32_t2071877448_Il2CppObject_Int32U26_t455636984PK10MethodInfoPvPS2_
Ud:_glVertexAttribIPointer
lXj:_UnhandledExceptionEventHandler_EndInvoke_m2207457167
z5k:__ZN15dense_hashtableINSt3__24pairIK10KeyWrapperINS1_IPK9FieldInfoP11Il2CppClassEEEjEES9_17ReflectionMapHashIS8_EN14dense_hash_mapIS9_jSD_19ReflectionMapEqualsIS8_ENS0_9allocatorISB_EEE9SelectKeyESG_SI_EC2ERKSL_j
EAh:_Dictionary_2_System_Collections_ICollection_get_IsSynchronized_m304009368_gshared
PSh:_HMAC_set_HashName_m457235014
qmd:__ZN5physx2Cm8PtrTable5clearERNS0_22PtrTableStorageManagerE
eY:__ZNSt3__215basic_stringbufIcNS_11char_traitsIcEENS_9allocatorIcEEE7seekoffExNS_8ios_base7seekdirEj
uPe:_Array_InternalArray__ICollection_Contains_TisTableRange_t2011406615_m605506746_gshared
SSf:_List_1_Sort_m785723827_gshared
ECf:_Decimal_op_Explicit_m729046406
$2c:__ZN5physx3Cct15ObstacleContext7releaseEv
svg:_Graphic_OnEnable_m2900261811
YWd:__ZN5physx27solveFrictionBlockWriteBackEPKNS_23PxcSolverConstraintDescEjRNS_16PxcSolverContextEPNS_25PxcThresholdStreamElementEjPi
nRh:_CryptographicUnexpectedOperationException__ctor_m3552441227
Vsf:_ArrayListWrapper_Clear_m321161741
wAg:_InputField_LineDownCharacterPosition_m2690468785
NDh:_Dictionary_2_System_Collections_IDictionary_set_Item_m2114893570_gshared
Kwe:_UNITY_ft_glyphslot_alloc_bitmap
hnj:__Z56RuntimeInvoker_ContentType_t1028629049_Int32_t2071877448PK10MethodInfoPvPS2_
r0e:_Array_Sort_TisVector2_t2243707579_TisVector2_t2243707579_m2582252549_gshared
kok:_SliderHandler_OnRepaint_m4171175698
O5i:__Z56RuntimeInvoker_Void_t1841601450_ByteU5BU5DU26_t790777611PK10MethodInfoPvPS2_
k1i:__Z45RuntimeInvoker_Il2CppObject_Int16_t4041245914PK10MethodInfoPvPS2_
FDj:_GUI_CalculateScaledTextureRects_m3962984624
NIj:_ScrollRect_set_verticalScrollbarVisibility_m2424788384
aYf:_List_1_System_Collections_IList_set_Item_m1129584681_gshared
eye:_ft_raster1_render
Zpc:__Z57Register_UnityEngine_RectTransform_INTERNAL_set_anchorMaxv
WSf:_List_1_set_Capacity_m491101164_gshared
iNl:__ZNKSt3__221__basic_string_commonILb1EE20__throw_length_errorEv
hkf:_StringBuilder_Insert_m1733097906
Z8i:__Z88RuntimeInvoker_Void_t1841601450_Il2CppObject_Int32_t2071877448_Il2CppObject_Il2CppObjectPK10MethodInfoPvPS2_
Qj:_JS_SystemInfo_GetMemory
Vcl:__ZN14dense_hash_mapI10KeyWrapperINSt3__24pairIP11Il2CppClassjEEES4_N6il2cpp8metadata14ArrayClassHashENS8_17ArrayClassCompareENS1_9allocatorINS2_IKS6_S4_EEEEEC2EjRKS9_RKSA_
kak:_Comparer_1__ctor_m1157133632_gshared
Ehh:_SslStreamBase_get_HashStrength_m480059173
XIa:__ZN18GfxFramebufferGLES13ReadbackImageER14ImageReferenceiiiiii
m6k:__ZN30dense_hashtable_const_iteratorINSt3__24pairIK10KeyWrapperIPK10Il2CppTypeEjEES6_N6il2cpp8metadata14Il2CppTypeHashEN14dense_hash_mapIS6_jSB_NSA_17Il2CppTypeCompareENS0_9allocatorIS8_EEE9SelectKeyESD_SF_EppEv
izh:_ValueCollection_System_Collections_Generic_ICollectionU3CTValueU3E_Clear_m3271993638_gshared
o5:__ZN13RuntimeStaticI11WindManagerE13StaticDestroyEPv
lpa:__ZN6prcoreL12RemapGenericI17TexFormatARGB888815TexFormatRGB565EEvPKNS_9InnerInfoE
QP:__ZN4FMOD7Channel19setReverbPropertiesEPK29FMOD_REVERB_CHANNELPROPERTIES
g9:__ZN13MonoBehaviour22GetScriptFullClassNameEv
e4k:_il2cpp_object_get_class
v7d:__ZN5physx6shdfnd4sortIPNS_15PxsContactPatchENS_27SortBoundsPredicateManifoldENS0_19ReflectionAllocatorIS3_EEEEvPT_jRKT0_RKT1_j
Yri:__ZL111DerivedType_t1016359113_CustomAttributesCacheGenerator_DerivedType_MakeGenericType_m742223168____typeArguments0P21CustomAttributesCache
d$a:__ZN13BatchRendererC2ER15RenderLoopStatsRK15RenderNodeQueuebb
alh:_ServicePointManager_FindServicePoint_m3137356168
Ftj:_Camera_set_useOcclusionCulling_m1109242406
Vj:_emscripten_glGetVertexAttribfv
Yta:__ZN20SphericalHarmonicsL211AddWeightedERKS_f
a6j:_InternalEnumerator_1_MoveNext_m725174512_gshared
WId:__ZN5physx2Sc24ElementInteractionMarker12onDeactivateEj
Jmg:_PointerInputModule_GetPointerData_m1695674453
HVh:__Z14bankers_roundff
sQb:__Z19TransferField_ArrayI17RemapPPtrTransfer27Converter_SimpleNativeClassI8GUIStyleEEvRK23StaticTransferFieldInfoR31RuntimeSerializationCommandInfoRT0_
y6:__ZL22StaticInitializeShaderPv
FDf:_Convert_ToUInt64_m345450801
$Ok:_Predicate_1_BeginInvoke_m2559992383_gshared
Dol:__ZN6il2cpp2vm3RCW7CleanupEP15Il2CppComObject
oEc:__ZN9JSONWrite8TransferI10ColorRGBAfEEvRT_PKc17TransferMetaFlags
plj:__Z52RuntimeInvoker_Void_t1841601450_Keyframe_t1449471340PK10MethodInfoPvPS2_
$ie:__ZN14PhysicsManager23VirtualRedirectTransferER19StreamedBinaryWriteILb0EE
hNl:__ZNSt13runtime_errorC2EPKc
gqc:__Z35Register_UnityEngine_Resources_Loadv
HNb:__Z19TransferField_ArrayI14SafeBinaryRead16Converter_StringEvRK23StaticTransferFieldInfoR31RuntimeSerializationCommandInfoRT0_
aVe:_Array_InternalArray__IndexOf_TisKeyValuePair_2_t488203048_m2147702260_gshared
NDl:_rename
Oul:_GC_exit_check
juk:_Transform_INTERNAL_CALL_TransformDirection_m2899991790
iUg:_NotSupportedException__ctor_m3232764727
pt:__ZN7mecanim9animation9DenseClip8TransferI14SafeBinaryReadEEvRT_
pkh:_TypeConverterAttribute_Equals_m2330345916
bVc:__ZNK5physx2Gu15OBBTriangleTest10obbTriTestERKNS_6PxVec3ES4_S4_
Y7:__Z20UnlockObjectCreationv
njc:__Z27Camera_Set_Custom_PropDepthP12Il2CppObjectf
zFf:_DateTime_ToString_m1117481977
n8i:__Z55RuntimeInvoker_Il2CppObject_RegexOptionsU26_t3063574985PK10MethodInfoPvPS2_
zLg:_MonoIO_CreateDirectory_m379525469
OMb:__Z34scripting_class_array_element_sizeP11Il2CppClass
TD:__ZN9BlobWrite8TransferI22OffsetPtrArrayTransferI9OffsetPtrIN7mecanim12statemachine18StateMachineMemoryEEEEEvRT_PKc17TransferMetaFlags
fue:_UNITY_ft_smooth_renderer_class_pic_free
M_f:_List_1_System_Collections_IList_Remove_m3763718607_gshared
wsj:_Bounds_get_center_m129401026
Sf:_emscripten_glStencilOpSeparate
nff:_String_Concat_m2000667605
_$k:__ZN6il2cpp2os19SocketHandleWrapperC2ERKS1_
prl:__ZN6il2cpp2vm6String8NewUtf16EPKDsi
ynl:__ZN6il2cpp2os10ThreadImpl12QueueUserAPCEPFvPvES2_
ZMl:__ZNSt3__211__call_onceERVmPvPFvS2_E
QM:__Z32TransferEnumWithNameForceIntSizeI14SafeBinaryReadN10SampleClip17CompressionFormatEEvRT_RT0_PKc17TransferMetaFlags
ese:__ZN20TextRenderingPrivate15DynamicFontData36GetFaceForCharacterIfAvailableInFontERKNS_7FontRefERKNSt3__26vectorI4PPtrIN13TextRendering4FontEE13stl_allocatorIS9_L18MemLabelIdentifier34ELi16EEEEj
a4c:__ZN5physx12PxControllerD2Ev
wDj:_GUI_INTERNAL_CALL_DoLabel_m2786347772
W_c:__ZNK5physx2Gu15HeightFieldUtil12traceSegmentI25CapsuleTraceSegmentReportLb0ELb0ELb1EEEvRKNS_6PxVec3ES6_PT_PS5_
H1c:__ZN5physx3Cct17CapsuleController13setStepOffsetEf
FDe:_UNITY_FT_Hypot
y$d:__ZN5physx10PxsContext23prepareCMDiscreteUpdateEPNS_10PxBaseTaskE
Dnf:_BitConverter_ToInt64_m1329623425
V5b:__ZN8RendererC2E12RendererType18MemLabelIdentifier18ObjectCreationMode
Cxl:__ZN6il2cpp2vm13ComObjectBaseINS0_13ManagedObjectE18Il2CppIInspectableNS0_7details6ComNilES5_S5_S5_S5_S5_S5_E6AddRefEv
$yi:__ZL95ASCIIEncoding_t3022927988_CustomAttributesCacheGenerator_ASCIIEncoding_GetByteCount_m1396020051P21CustomAttributesCache
Tld:__ZN5physx6shdfnd5ArrayIPvNS0_19ReflectionAllocatorINS_2Cm5BlockIhLj256EEEEEE4copyINS0_15InlineAllocatorILj256ES7_EEEEvRKNS1_IS2_T_EE
wHl:__ZNSt3__28time_getIcNS_19istreambuf_iteratorIcNS_11char_traitsIcEEEEED2Ev
kg:_emscripten_glGetError
DQ:__Z14FMOD_FILE_SeekPvjS_
qgk:_MethodCall_get_Properties_m1893707917
oni:__ZL72Enum_t2459695545_CustomAttributesCacheGenerator_Enum_ToObject_m604645223P21CustomAttributesCache
ypd:__ZN5physx6shdfnd8PoolBaseINS_11NpAggregateENS0_19ReflectionAllocatorIS2_EEE15disposeElementsEv
twh:_ShimEnumerator_get_Entry_m2387156530_gshared
i_c:__ZThn4_N16RayRTreeCallbackILi1ELb1EE14processResultsEjPj
mTk:__ZL25UnresolvedVirtualCall_168P12Il2CppObject19Vector3_t2243707580PK10MethodInfo
$5a:__ZNK13RenderTexture32CalculateNeedsInvertedProjectionEv
P2c:__ZN5physx2Gu17RadixSortBuffered4SortEPKfj
sg:emscriptenWebGLGet
p5h:_Rect_GetHashCode_m559954498_AdjustorThunk
s7b:__ZN12CubemapArray11InitTextureEiii13TextureFormatb
Bpa:__ZN6prcoreL18BlitIntegerToFloatERK14ImageReferenceRS0_
nKi:__ZL93Physics_t634932869_CustomAttributesCacheGenerator_Physics_RaycastAll_m410413656____layerMask2P21CustomAttributesCache
wmh:__ZN16VirtFuncInvoker1IP8String_tiE6InvokeEjPvi
POa:__ZNK15Lz4Decompressor20DecompressStreamInitEPPv
D4f:_Collection_1_set_Item_m3803272710_gshared
n1h:_Mesh_SetUVs_m841280343
sji:_MonoMethodInfo_t3646562144_marshal_pinvoke_cleanup
uoh:_X509Certificate2_get_SignatureAlgorithm_m3069898012
Rkh:_HttpRequestCreator__ctor_m2513916021
C8c:__ZN27ConvexVsMeshOverlapCallbackC2ERKN5physx2Gu10ConvexMeshERKNS0_11PxMeshScaleERKNS0_2Cm23FastVertex2ShapeScalingERKNS0_11PxTransformESE_bRKNS1_3BoxE
Y3i:__Z54RuntimeInvoker_Il2CppObject_IntPtr_t_Int32_t2071877448PK10MethodInfoPvPS2_
VTh:_GUIStyle_INTERNAL_CALL_Internal_CalcSizeWithConstraints_m1203344891
DE:__ZN7mecanim5human13HumanFixTwistEPKNS0_5HumanEPNS_8skeleton13SkeletonPoseTIN4math4trsXEEES9_iiRKf
L0a:__ZL24AssignProjectorQueuesJobP30AssignProjectorQueuesJobHeader
jRj:_TimeSpan_get_Hours_m3804628138
wSk:__ZL25UnresolvedVirtualCall_124P12Il2CppObjectPK10MethodInfo
Aug:_FontData_set_alignByGeometry_m2819509290
fjk:_Regex__ctor_m3250610064
R1b:__ZN9ShaderLab20SerializedSubProgram14SetConstBufferEPKci
Q4g:_ArgumentNullException__ctor_m911049464
Jhi:_TargetParameterCountException__ctor_m2760108938
qOf:_KeyValuePair_2_set_Key_m2339804284_AdjustorThunk
ape:__ZN13PhysicsModule17SetRigidBodyStateER9RigidbodyRKN8IPhysics14RigidBodyStateE
$Gk:_InvokableCall_4_Find_m1467690987_gshared
J6i:__Z66RuntimeInvoker_Void_t1841601450_Int32_t2071877448_Int64_t909078037PK10MethodInfoPvPS2_
eAe:_cf2_getStdVW
Wfg:_ReadOnlyCollection_1_System_Collections_IList_Insert_m3936197025_gshared
uLf:_EventHandler_BeginInvoke_m3027583606
x0:__Z40DebugStringToFilePostprocessedStacktraceRK21DebugStringToFileData
tTh:_GUIContent_get_tooltip_m4191548850
ASd:__ZN5physx2Sq12BucketPruner11shiftOriginERKNS_6PxVec3E
wCc:__Z29Transfer_Blittable_ArrayFieldI8JSONReadjEvRT_R9ArrayInfoRK23StaticTransferFieldInfo
S6j:_InternalEnumerator_1__ctor_m3220229132_AdjustorThunk
Sbd:__ZN5physx6shdfnd5ArrayIPNS_2Sc16ArticulationCoreENS0_19ReflectionAllocatorIS4_EEE15growAndPushBackERKS4_
Jpk:_StateMachineBehaviour_OnStateEnter_m1095276890
i2h:_Object_GetInstanceID_m1920497914
Vek:_ContextAttribute__ctor_m4006843177
TH:__ZN18StreamedBinaryReadILb1EE21TransferSTLStyleArrayI13dynamic_arrayI4PPtrI13AnimationClipELj4EEEEvRT_17TransferMetaFlags
y3j:_InternalEnumerator_1_get_Current_m314017974_AdjustorThunk
_g:__setLetterbox
joa:__ZNSt3__26__treeINS_12__value_typeIN9ShaderLab16FastPropertyNameEfEENS_19__map_value_compareIS3_S4_NS_4lessIS3_EELb1EEENS_9allocatorIS4_EEE12__find_equalIS3_EERPNS_16__tree_node_baseIPvEENS_21__tree_const_iteratorIS4_PNS_11__tree_nodeIS4_SE_EEiEESH_RKT_
W5d:__ZN5physx19normalizePartitionsERNS_6shdfnd5ArrayIjNS0_19ReflectionAllocatorIjEEEEPNS_23PxcSolverConstraintDescEPKNS_13PxcSolverBodyEjjS5_
tsk:_TextGenerator_Populate_Internal_m1817393161
mqi:__ZL57CollectionBase_t1101587467_CustomAttributesCacheGeneratorP21CustomAttributesCache
YVc:__ZN18ContactCapsuleMesh20processTriangleCacheILj16EEEbRN5physx2Gu13TriangleCacheIXT_EEE
uAb:__ZNSt3__26vectorI17BlendShapeChannelNS_9allocatorIS1_EEE6assignINS_11__wrap_iterIPS1_EEEENS_9enable_ifIXaasr21__is_forward_iteratorIT_EE5valuesr16is_constructibleIS1_NS_15iterator_traitsISA_E9referenceEEE5valueEvE4typeESA_SA_
FBg:_LayoutElement_set_preferredWidth_m3072758716
XHk:_UnityEvent_1_AddListener_m1708363187_gshared
dnh:_AsnEncodedData_ToString_m724151831
B5a:__ZN11TimeManager11GetRealtimeEv
x3f:_Collection_1_System_Collections_IList_get_IsFixedSize_m2408637569_gshared
Znf:__ZN21InterfaceFuncInvoker1IdP12Il2CppObjectE6InvokeEjP11Il2CppClassPvS1_
z7c:__ZN5physx2Sc16InteractionScene25removeFromActiveActorListERNS0_5ActorE
yfc:__Z15WeldVertexArrayR13dynamic_arrayI8Vector3fLj4EERS_I13BoneInfluenceLj16EERS_ItLj2EES7_
Thi:_MonoMethodInfo_GetDeclaringType_m4186531677
ZJh:_SoapTypeAttribute_SetReflectionObject_m1566293812
oFh:_DefaultComparer__ctor_m418731767_gshared
aG:__ZN4PPtrI6AvatarE8TransferI18StreamedBinaryReadILb0EEEEvRT_
Y3c:__ZN5physx3Ext21InertiaTensorComputer6rotateERKNS_7PxMat33E
PMk:_Enumerator_System_Collections_IEnumerator_Reset_m2573763156_AdjustorThunk
PLh:_RemotingServices_CreateClientProxy_m1631035355
AWj:_UInt64_ToString_m2892887310
HTk:__ZL25UnresolvedVirtualCall_189P12Il2CppObjectaPK10MethodInfo
$4d:__ZN5physx22PxcDiscreteNarrowPhaseERNS_18PxcNpThreadContextERNS_13PxcNpWorkUnitE
Iua:_stbir_resize
zrk:_TextEditor_get_hasSelection_m3407150912
nCb:__ZN4PPtrI4MeshE8TransferI14SafeBinaryReadEEvRT_
ZKc:__ZN24b2ChainAndCapsuleContact6CreateEP9b2FixtureiS1_iP16b2BlockAllocator
qPa:__Z37ReadDirectoryInfo_UnityWebAndUnityRawR12FileAccessorRKN20ArchiveStorageHeader6HeaderERNS1_13DirectoryInfoE
HSe:_Array_InternalArray__IEnumerable_GetEnumerator_TisInt64_t909078037_m1219751804_gshared
d6:__ZNSt3__26__treeINS_12__value_typeIPKciEENS_19__map_value_compareIS3_S4_15compare_tstringIS3_ELb1EEENS_9allocatorIS4_EEE7destroyEPNS_11__tree_nodeIS4_PvEE
gpi:__ZL96RuntimeTypeHandle_t2330101084_CustomAttributesCacheGenerator_RuntimeTypeHandle_Equals_m452760426P21CustomAttributesCache
aLk:_EqualityComparer_1_System_Collections_IEqualityComparer_Equals_m1960102236_gshared
EDh:_Dictionary_2_ToTValue_m1381983709_gshared
$Tg:_MulticastDelegate_KPM_m1592985119
eMl:__ZNSt3__26locale5__imp7installINS_5ctypeIcEEEEvPT_
A4h:_RaycastHit2D_get_collider_m2568504212_AdjustorThunk
fbg:_Collection_1_ConvertItem_m3941916604_gshared
SGe:__ZN2UI6Canvas26MarkAllNestedCanvasesDirtyEv
NKa:__ZN16GeometryJobTasks20ScheduleGeometryJobsER9GfxDevicePFvP15GeometryJobDataEPK22GeometryJobInstructionjb
Lab:__ZN25PathNamePersistentManagerD2Ev
R7:__ZN17PersistentManager48IntegrateObjectAndUnlockIntegrationMutexInternalEi
qI:__ZN15SerializeTraitsI9OffsetPtrIN7mecanim9animation19Blend2dDataConstantEEE8TransferI18StreamedBinaryReadILb1EEEEvRS4_RT_
Egg:_ReadOnlyCollection_1_System_Collections_IList_get_IsReadOnly_m3872065502_gshared
Asi:__ZL112TypeBuilder_t3308873219_CustomAttributesCacheGenerator_TypeBuilder_MakeGenericType_m4282022646____typeArguments0P21CustomAttributesCache
Gpj:__Z89RuntimeInvoker_Il2CppObject_Scene_t1684909666_Scene_t1684909666_Il2CppObject_Il2CppObjectPK10MethodInfoPvPS2_
_Oc:__ZN9b2Fixture11SynchronizeEP12b2BroadPhaseRK11b2TransformS4_
pVl:_emscripten_glGetFramebufferAttachmentParameteriv__wrapper
BVa:__ZN13RendererScene15InitializeUmbraEv
Wqj:_AnimatorTransitionInfo_IsName_m2561957738_AdjustorThunk
Jta:__Z28CalculateGlobalMatrixInverse23TransformAccessReadOnly
yEc:__ZN4PPtrI6ObjectE8TransferI9JSONWriteEEvRT_
fKl:__ZNSt3__29money_putIwNS_19ostreambuf_iteratorIwNS_11char_traitsIwEEEEED0Ev
Emg:_PointerEventData_ToString_m1218584363
LBl:___ctype_toupper_loc
yqf:_Char_System_IConvertible_ToChar_m1489061093_AdjustorThunk
_Nj:_UTF7Encoding_GetCharCount_m2589913583
Szd:__ZNK5physx15PxsParticleData15getWorldBoundsVEv
_Ua:_UNITY_png_write_sCAL_s
$Ih:__ZN21InterfaceFuncInvoker0IP8String_tE6InvokeEjP11Il2CppClassPv
bOg:_MemoryStream_CalculateNewCapacity_m3533542025
kOi:__ZL66ExcludeFromDocsAttribute_t665825653_CustomAttributesCacheGeneratorP21CustomAttributesCache
U$c:__ZN12_GLOBAL__N_124HfTrianglesEntityReport27onEventEjPj
qhd:__ZNK5physx2Sc15ArticulationSim16createDriveCacheEfj
qCd:__ZN5physx22NpParticleBaseTemplateINS_16PxParticleSystemENS_16NpParticleSystemEE17setStaticFrictionEf
Z_j:_InternalEnumerator_1_Dispose_m318835130_AdjustorThunk
Rmk:_Uri_Reduce_m2577728307
KRj:_TimeSpan_Equals_m4102942751_AdjustorThunk
jXd:__ZN5physx27solveContactCoulomb_BStaticERKNS_23PxcSolverConstraintDescERNS_16PxcSolverContextE
klj:__Z59RuntimeInvoker_Void_t1841601450_X509ChainStatus_t4278378721PK10MethodInfoPvPS2_
hzh:_ValueCollection_System_Collections_Generic_ICollectionU3CTValueU3E_Add_m1903672223_gshared
uLl:__ZNSt3__25ctypeIcE13classic_tableEv
bN:__ZN4FMOD6SoundI7releaseEv
PEd:__ZN5physx20NpRigidActorTemplateINS_14PxRigidDynamicEE15setActorSimFlagEb
UCb:__ZN14SpriteRenderer13AwakeFromLoadE17AwakeFromLoadMode
gng:_MouseButtonEventData__ctor_m618518000
uKk:_EqualityComparer_1_get_Default_m3222318365_gshared
xKl:__ZNKSt3__27codecvtIDic11__mbstate_tE5do_inERS1_PKcS5_RS5_PDiS7_RS7_
fQa:__ZN10MemoryFile9SetLengthEy
EJ:__ZN7mecanim10ValueArray8TransferI19StreamedBinaryWriteILb0EEEEvRT_
DJc:__ZNK15b2RevoluteJoint10GetAnchorBEv
s2c:__ZNK5physx3Cct26CharacterControllerManager16getNbControllersEv
pi:_glTexStorage2D
Erl:__ZN6il2cpp2os9Directory20GetFileSystemEntriesERKNSt3__212basic_stringIcNS2_11char_traitsIcEENS2_9allocatorIcEEEESA_iiPi
E1b:__ZNK9ShaderLab10SubProgram14EnsureCompiledEv
DOh:_ObjectManager_RecordFixup_m3572285566
JRe:_ExecuteEvents_CanHandleEvent_TisIl2CppObject_m1201779629_gshared
dri:__ZL55DaylightTime_t3800227331_CustomAttributesCacheGeneratorP21CustomAttributesCache
Qle:__ZN5physx7profile10DataBufferINS_6shdfnd6MutexTINS0_26WrapperReflectionAllocatorIhEEEENS0_14ScopedLockImplIS6_EEE17handleBufferFlushEPKhj
xxf:_SortedList_InitTable_m460350503
q0j:_InternalEnumerator_1_get_Current_m4279678504_AdjustorThunk
Or:__ZNK16LevelGameManager7GetNameEv
z3f:_Collection_1_System_Collections_IList_get_Item_m2415649949_gshared
Dei:_ILTokenInfo_t149559338_marshal_pinvoke_cleanup
C9f:_Collection_1_Remove_m2358120395_gshared
fh:_JS_SystemInfo_HasWebGL
uMe:__ZN18UnityConnectClient15GetCloudServiceEv
UQb:__Z18Transfer_BlittableI24GenerateTypeTreeTransferLb0EiEvRK29SerializationCommandArgumentsR31RuntimeSerializationCommandInfo
H8d:__ZN5physx20PxsConstraintProjectEPKNS_13PxsConstraintEbf
ysd:__ZN5physx7NpShape7setFlagENS_11PxShapeFlag4EnumEb
X$k:__ZN6il2cpp2os19SocketHandleWrapperD2Ev
DKc:__ZN15b2CircleContact6CreateEP9b2FixtureiS1_iP16b2BlockAllocator
cVl:_emscripten_glBufferData__wrapper
Hkb:__ZN10TagManager32RegisterDefaultTagsAndLayerMasksEv
IJk:_TweenRunner_1_StopTween_m2135918118_gshared
V7f:__ZN21InterfaceFuncInvoker1I22UILineInfo_t3621277874iE6InvokeEjP11Il2CppClassPvi
Vzh:_ValueCollection_get_Count_m4142113966_gshared
TMi:__ZL118AttributeHelperEngine_t958797062_CustomAttributesCacheGenerator_AttributeHelperEngine_GetRequiredComponents_m120894667P21CustomAttributesCache
E4d:__ZN5physx2Sc35ParticleElementRbElementInteraction12onDeactivateEj
bAj:_Playable_CheckInputBounds_m1095657528
GHl:__ZNKSt3__220__time_get_c_storageIcE8__monthsEv
GPj:_SynchronizationLockException__ctor_m549086841
osf:_ArrayList_InsertRange_m1478230997
zDa:__ZN4gles8InitCapsEP7ApiGLESP12GraphicsCapsR16GfxDeviceLevelGL
aof:__ZN21InterfaceFuncInvoker1IP8String_tP12Il2CppObjectE6InvokeEjP11Il2CppClassPvS3_
Goa:__ZN6prcore14BlitImageFloatERK14ImageReferenceRS0_NS0_8BlitModeE
Ymf:_Swapper_EndInvoke_m677693941
Rhb:__ZN21AssetBundleFileSystem4ReadER13FileEntryDatayyPvPy
B0h:_Matrix4x4_Equals_m1321236479_AdjustorThunk
Yi:_glEnable
E$j:_InternalEnumerator_1_get_Current_m966604531_AdjustorThunk
Uib:__ZNK13Lz4Compressor29CalculateCompressedBufferSizeEj
P0k:__ZN6il2cpp2vm19SocketPollingThreadC2Ev
VSd:__ZN5physx2Sq10AABBPrunerC2Eb
GPh:_RuntimeMethodHandle__ctor_m2437574937_AdjustorThunk
kOd:__ZN5physx2Sq8AABBTreeC2Ev
lUj:_UInt16_System_IConvertible_ToInt64_m2835280558_AdjustorThunk
H0g:__ZN18VirtActionInvoker2IP22ByteU5BU5D_t3397334013S1_E6InvokeEjPvS1_S1_
tGi:__ZL53g_UnityEngine_Assembly_CustomAttributesCacheGeneratorP21CustomAttributesCache
HFk:_Predicate_1_BeginInvoke_m3926587117_gshared
toc:__ZN13MonoBehaviour22StartCoroutineManaged2EP12Il2CppObject
e9h:_AssemblyName_get_Name_m1815759940
Bsg:_DefaultControls_CreateToggle_m1568873127
y0f:_List_1__cctor_m1022807427_gshared
aqi:__ZL63KeyNotFoundException_t1722175009_CustomAttributesCacheGeneratorP21CustomAttributesCache
oDh:_Dictionary_2_InitArrays_m2270022740_gshared
azf:_Convert_ToBoolean_m2188088811
hLe:__ZN11UnityEngine7Connect15DeviceInfoEvent16CollectExtraInfoEv
f6i:__Z115RuntimeInvoker_Boolean_t3825574718_Il2CppObject_Int32_t2071877448_Il2CppObject_SByte_t454417549_Int32U26_t455636984PK10MethodInfoPvPS2_
Yrl:__ZN6il2cpp2os11Environment22SetEnvironmentVariableERKNSt3__212basic_stringIcNS2_11char_traitsIcEENS2_9allocatorIcEEEESA_
TAj:_CustomAnimationPlayable__ctor_m2580931540
Jbe:__ZN5physx2Gu10ConvexMeshD2Ev
skf:_UnicodeEncoding_GetChars_m3765282346
TJg:_IntPtr__ctor_m4104029105
Fwi:__ZL114BinaryFormatter_t1866979105_CustomAttributesCacheGenerator_BinaryFormatter_get_DefaultSurrogateSelector_m219714691P21CustomAttributesCache
y6f:_Collection_1_Clear_m4150923953_gshared
RDl:_atol
xwl:__ZN6il2cpp6icalls8mscorlib6System10Reflection9FieldInfo25internal_from_handle_typeE12Il2CppIntPtrS5_
xBf:_Convert_ToDouble_m4236754739
Jgh:_SslClientStream_get_PrivateKeyCertSelectionDelegate_m3715949545
Rtg:_Dropdown_CreateItem_m2702141380
Lga:__ZNK6Sprite24GetRenderDataForPlayModeEv
Jqi:__ZL48Stack_t1043988394_CustomAttributesCacheGeneratorP21CustomAttributesCache
Lp:FUNCTION_TABLE_viifi
Op:FUNCTION_TABLE_viiff
jWh:_GUISettings_get_doubleClickSelectsWord_m106700974
K5c:__ZNK5physx2Sc8ShapeSim10getBodySimEv
cii:_MonoEvent_GetAddMethod_m4289563120
Roi:__ZL37Type_t_CustomAttributesCacheGeneratorP21CustomAttributesCache
UDe:_UNITY_tt_face_free_hdmx
Cbl:__ZN6il2cpp2vm14TypeNameParser5ParseEb
FGj:_ReflectionMethodsCache__ctor_m1835220
Uul:_GC_check_finalizer_nested
Dok:_SliderHandler_ValueForCurrentMousePosition_m1752598323
dAj:_Playable_INTERNAL_CALL_IsValidInternal_m3509544226
e5i:__Z51RuntimeInvoker_Int16_t4041245914_Single_t2076509932PK10MethodInfoPvPS2_
hqi:__ZL71SynchronizedArrayListWrapper_t3317806524_CustomAttributesCacheGeneratorP21CustomAttributesCache
Xld:__ZN5physx6shdfnd5ArrayIPvNS0_19ReflectionAllocatorINS_2Cm5BlockIhLj128EEEEEE15growAndPushBackERKS2_
BOe:__ZN23UnityPurchasingSettingsC2Ev
$Jf:_Double_ToString_m1864290157
z9a:__ZNK9Transform13GetWorldScaleEv
e3j:_InternalEnumerator_1_get_Current_m4154059426_AdjustorThunk
Zad:__ZN5physx2Sc11Interaction10onActivateEj
D_c:__ZNK5physx2Gu29EPASupportMapPairRelativeImplINS0_4BoxVENS0_11ConvexHullVEE6getDirEv
etd:__ZN5physx14NpShapeManager15setupSceneQueryERNS_2Sq17SceneQueryManagerERKNS_12PxRigidActorERKNS_7NpShapeE
Lac:__ZN8Playable22ScheduleForDestructionEv
kda:__ZNSt3__26__treeINS_12__value_typeI18VertexChannelsInfo16MeshVertexFormatEENS_19__map_value_compareIS2_S4_NS_4lessIS2_EELb1EEE13stl_allocatorIS4_L18MemLabelIdentifier16ELi16EEE12__find_equalIS2_EERPNS_16__tree_node_baseIPvEENS_21__tree_const_iteratorIS4_PNS_11__tree_nodeIS4_SF_EEiEESI_RKT_
p9f:_Collection_1_System_Collections_IList_get_Item_m1122792492_gshared
Oua:__ZL37stbir__resample_horizontal_downsampleP11stbir__infoiPf
d2i:__Z78RuntimeInvoker_IntPtr_t_Il2CppObject_Int32U26_t455636984_ModuleU26_t4102634234PK10MethodInfoPvPS2_
lsa:__ZNK5Unity9Component38MarkGameObjectAndComponentDependenciesER27GarbageCollectorThreadState
C8d:__ZN22ScAfterIntegrationTask11runInternalEv
Idd:__ZNK5physx2Sc9ClothCore23getExternalAccelerationEv
iUa:_UNITY_png_write_data
qU:__ZNK7Texture21GetShadowSamplingModeEv
HZc:__ZN5physx2Gu13coarseCullingERKNS_6PxVec3ES3_ffRKNS_10PxTriangleE
m1:__ZN13ScreenManager21OnWindowRegainedFocusEv
eVb:__Z18Transfer_BlittableI18StreamedBinaryReadILb0EELb1EdEvRK29SerializationCommandArgumentsR31RuntimeSerializationCommandInfo
Wjc:__Z56Register_UnityEngine_Camera_INTERNAL_get_backgroundColorv
luj:_WillRenderCanvases_BeginInvoke_m1914028027
zMg:_FileStream_get_CanRead_m4148920720
J7k:__ZN6il2cpp2gc19AppendOnlyGCHashMapINSt3__24pairIPK12PropertyInfoP11Il2CppClassEEP24Il2CppReflectionProperty17ReflectionMapHashIS9_E19ReflectionMapEqualsIS9_EE11TryGetValueERKS9_PSB_
e5d:__ZN5physx2Sc5Scene29processNarrowPhaseTouchEventsEv
RFa:__ZN4crnd12symbol_codec32decode_receive_static_data_modelERNS_25static_huffman_data_modelE
zBj:_Playables_GetTimeValidated_m788360268
rqb:__ZN18ScriptingArguments8AddFloatEf
SEg:_GregorianCalendar_set_CalendarType_m2438362222
Urg:_FloatTween_get_targetValue_m2120061648_AdjustorThunk
NAj:_AnimatorControllerPlayable_get_node_m127621219_AdjustorThunk
Vlj:__Z71RuntimeInvoker_Void_t1841601450_Int32_t2071877448_UriScheme_t1876590943PK10MethodInfoPvPS2_
zQe:_Array_InternalArray__ICollection_Contains_TisVector2_t2243707579_m3625698589_gshared
Lfd:__ZN5physx6shdfnd5ArrayIPvNS0_15InlineAllocatorILj256ENS0_19ReflectionAllocatorINS_18NpArticulationLinkEEEEEE15growAndPushBackERKS2_
LDc:__Z18Transfer_BlittableI9JSONWriteLb0EaEvRK29SerializationCommandArgumentsR31RuntimeSerializationCommandInfo
Bok:_SliderHandler_ThumbSelectionRect_m1949915148
sX:__ZN11UnityEngine15CloudWebService14DataDispatcher34OnSessionContainerArchivedAndReadyERNS0_16SessionContainerE
QLc:__ZN7b2World11CreateJointEPK10b2JointDef
MIb:__ZN13EmscriptenWWW10OnResponseEPviS0_jPc
IOl:__ZNSt13runtime_errorD0Ev
f3c:__ZNK5physx3Cct15ObstacleContext11getObstacleEj
wah:_CipherSuiteCollection__ctor_m2154226461
oSb:__Z18Transfer_BlittableI19StreamedBinaryWriteILb0EELb0E8Vector3fEvRK29SerializationCommandArgumentsR31RuntimeSerializationCommandInfo
mVh:_RectOffset__ctor_m2227510254
Bve:_gray_move_to
B5k:__ZN15dense_hashtableINSt3__24pairIK10KeyWrapperINS1_IPK9FieldInfoP11Il2CppClassEEEjEES9_17ReflectionMapHashIS8_EN14dense_hash_mapIS9_jSD_19ReflectionMapEqualsIS8_ENS0_9allocatorISB_EEE9SelectKeyESG_SI_ED2Ev
o2a:__Z34GetNonInterpolatedLightAttenuationRK17LightProbeContextjPK15SharedLightData
Czj:_UnityAction_BeginInvoke_m407736228
Dag:_Collection_1_System_Collections_IEnumerable_GetEnumerator_m4174600764_gshared
dgk:_ConstructionCall_InitDictionary_m4046452035
o8k:__ZN6il2cpp2vm10Reflection14GetEventObjectEP11Il2CppClassPK9EventInfo
jgj:__Z43RuntimeInvoker_VerticalWrapMode_t3668245347PK10MethodInfoPvPS2_
Qbh:_TlsStream_Write_m2271546135
qrk:_TextEditor_ReplaceSelection_m356220427
j3:__ZN20LocalFileSystemPosixD0Ev
Mhc:__Z23GetGlobalBoolPreferencePKcb
$Mf:_CultureInfo_ConstructInternalLocaleFromCurrentLocale_m1342751405
z5i:__Z50RuntimeInvoker_UInt16_t986882611_Int16_t4041245914PK10MethodInfoPvPS2_
Uhb:__ZN21AssetBundleFileSystem5WriteER13FileEntryDatayPvPy
Njf:_Latin1Encoding_GetString_m3553289597
KRd:__ZN5physx13IslandManager6resizeEj
Zwe:_tt_cmap_init
Cb:invoke_viidi
_Pf:_Enumerator_System_Collections_IEnumerator_get_Current_m3461301268_gshared
Ruh:_Enumerator_get_Current_m1020413567_AdjustorThunk
mTf:_List_1_System_Collections_IList_get_IsFixedSize_m1122077912_gshared
Fmj:__Z48RuntimeInvoker_Link_t865133271_Int32_t2071877448PK10MethodInfoPvPS2_
C4b:__ZN9TextAssetC2E18MemLabelIdentifier18ObjectCreationMode
Dad:__ZN5physx6shdfnd8PoolBaseINS_2Cm5BlockIPvLj16EEENS0_19ReflectionAllocatorIS5_EEE17releaseEmptySlabsEv
gSf:_List_1_System_Collections_ICollection_CopyTo_m2020941110_gshared
Qxj:_Display_RecreateDisplayList_m3412638488
yCi:__ZL79Convert_t2607082565_CustomAttributesCacheGenerator_Convert_ToUInt64_m2215781574P21CustomAttributesCache
koj:__Z52RuntimeInvoker_KeyValuePair_2_t38854645_Il2CppObjectPK10MethodInfoPvPS2_
HTb:__ZN19StreamedBinaryWriteILb0EE21TransferSTLStyleArrayINSt3__26vectorINS2_12basic_stringIcNS2_11char_traitsIcEE13stl_allocatorIcL18MemLabelIdentifier1ELi16EEEES7_ISA_LS8_1ELi16EEEEEEvRT_17TransferMetaFlags
i$l:_emscripten_glCheckFramebufferStatus__wrapper
R3c:__ZL20updateMassAndInertiabRN5physx11PxRigidBodyEPKfjPKNS_6PxVec3Eb
_Ac:__Z18Transfer_BlittableI8JSONReadLb0EdEvRK29SerializationCommandArgumentsR31RuntimeSerializationCommandInfo
_le:__ZN5physx24NpPtrTableStorageManagerC2Ev
GH:__ZN7mecanim9animation21BlendTreeNodeConstant35Transfer_4_0_BackwardsCompatibilityI14SafeBinaryReadEEvRT_
R_l:_glCreateShader__wrapper
tKe:__Z44Register_UnityEngine_Canvas_set_sortingOrderv
_Pj:_Thread_ClrState_m822263449
TWg:_SimpleCollator_LastIndexOfOrdinalIgnoreCase_m550798345
M4k:__ZN15dense_hashtableINSt3__24pairIK10KeyWrapperINS1_IPK14Il2CppAssemblyP11Il2CppClassEEEjEES9_17ReflectionMapHashIS8_EN14dense_hash_mapIS9_jSD_19ReflectionMapEqualsIS8_ENS0_9allocatorISB_EEE9SelectKeyESG_SI_E13clear_deletedER30dense_hashtable_const_iteratorISB_S9_SD_SK_SG_SI_E
m0k:__ZN6il2cpp2vm21ThreadPoolCompartment13QueueWorkItemEP17Il2CppAsyncResult
Kn:FUNCTION_TABLE_viiiiiifiii
Zya:__ZNK9GfxDevice13GetViewMatrixEv
AKd:__ZN5physx7NpScene15flushSimulationEb
srd:__ZN5physx6shdfnd8PoolBaseINS_10NpMaterialENS0_19ReflectionAllocatorIS2_EEE12allocateSlabEv
Oaa:__ZN8TypeTree8BlobReadERPKhS1_ib
oBk:_BoblinController_OnTriggerEnter2D_m3236095443
jic:__Z36CreateScriptingArrayFromUnityObjectsI13dynamic_arrayIP6ObjectLj4EEEP11Il2CppArrayRKT_i
nfe:__ZN5physx18ReducedVertexCloudC2EPKNS_6PxVec3Ej
Isa:__ZN18LoadSceneOperation23GetAllowSceneActivationEv
Sja:__ZN15SerializeTraitsI14ConstantStringE8TransferI19StreamedBinaryWriteILb0EEEEvRS0_RT_
Hqa:__ZN11prophecysdk4half7convertEi
Mlb:__ZN6CameraD0Ev
sYg:_ModulusRing_Multiply_m386339435
Bea:__ZN31CanvasBatchIntermediateRenderer16StaticInitializeEPv
pwg:_GraphicRaycaster_U3CRaycastU3Em__0_m3971200721
Mdg:_ReadOnlyCollection_1_System_Collections_IList_RemoveAt_m3004588099_gshared
dBf:_Decimal_op_Implicit_m4246329390
S4g:_ArgumentNullException__ctor_m2252076819
J7a:__ZN10GameObjectC2E18MemLabelIdentifier18ObjectCreationMode
Eue:_raccess_guess_apple_double
_tk:_Transform_INTERNAL_set_localScale_m3680777866
pjh:_ListDictionary_GetEnumerator_m1511032609
pci:_TypeBuilder_get_FullName_m1626507516
_Nh:_SerializationInfo__ctor_m4016423422
YGa:__ZL18ProgramUniform1uivPK7ApiGLESjiihPKv
D7b:__ZN14Texture2DArray13RebuildMipMapEv
XWk:__ZN13Il2CppHashSetIPK17Il2CppGenericInstN6il2cpp8metadata21Il2CppGenericInstHashENS4_24Il2CppGenericInstCompareENSt3__29allocatorI10KeyWrapperIS2_EEEEC2EjRKS5_RKS6_
iNb:__Z18Transfer_BlittableI14SafeBinaryReadLb1EaEvRK29SerializationCommandArgumentsR31RuntimeSerializationCommandInfo
apl:__ZN6il2cpp2gc16GarbageCollector14RemoveWeakLinkEPPv
S1b:__ZN9ShaderLab20SerializedSubProgram14AddVectorParamEPKcii15ShaderParamTypei
AIe:__ZN2UI14CanvasRenderer12CleanupClassEv
Hjd:__ZNK5physx19NpRigidBodyTemplateINS_18PxArticulationLinkEE27getMinCCDAdvanceCoefficientEv
Xgg:_ReadOnlyCollection_1_System_Collections_IEnumerable_GetEnumerator_m1734360860_gshared
SFh:_DefaultComparer__ctor_m1052417779_gshared
Pcf:_SystemException__ctor_m2688248668
Mak:_ResourceSet_ReadResources_m1669023823
p2g:_PKCS12_RemoveCertificate_m1590055870
zbl:__ZN6il2cpp2vm6Thread7SetNameEP12Il2CppThreadP12Il2CppString
dsi:__ZL117GenericTypeParameterBuilder_t1370236603_CustomAttributesCacheGenerator_GenericTypeParameterBuilder_Equals_m2498927509P21CustomAttributesCache
LJi:__ZL107Collision_t2876846408_CustomAttributesCacheGenerator_Collision_t2876846408____frictionForceSum_PropertyInfoP21CustomAttributesCache
Kq:__ZN6Object23VirtualRedirectTransferER19StreamedBinaryWriteILb1EE
pga:__ZN13ScreenManager18SetAllowCursorLockEb
FHb:__ZN30RuntimeInitializeOnLoadManager15ClassMethodInfo8TransferI14SafeBinaryReadEEvRT_
zil:__ZNK15dense_hashtableINSt3__24pairIK10KeyWrapperINS1_IPKcS4_EEEiEES6_24NamespaceAndNamePairHashN14dense_hash_mapIS6_iS9_26NamespaceAndNamePairEqualsNS0_9allocatorIS8_EEE9SelectKeyESB_SD_E13find_positionERS7_
aed:__ZNK5physx2Sc10ClothShape8isActiveEv
oKb:__ZN9TextAsset8TransferI14SafeBinaryReadEEvRT_
_Ui:__ZL73CanvasScaler_t2574720772_CustomAttributesCacheGenerator_m_ScreenMatchModeP21CustomAttributesCache
YV:__ZL22InitializeModule_Audiov
nSd:__ZN5physx2Sq11PruningPoolD0Ev
rNc:__ZN16Physics2DManager13DynamicUpdateEv
sdb:__ZN16MemoryFileSystem8IsLockedERK13FileEntryData
f_d:__ZN3MBP15removeBoxPrunerEj
Suk:_Vector2_get_Item_m2792130561_AdjustorThunk
Lhi:_MonoCMethod_Invoke_m931478014
Tak:_SatelliteContractVersionAttribute__ctor_m2605651717
Gl:_emscripten_glBindRenderbuffer
Txc:__Z32GUIStyle_Set_Custom_PropClippingP12Il2CppObjecti
hif:_DecoderExceptionFallbackBuffer_GetNextChar_m1727394816
Jul:_GC_dirty_init
imf:_Array_Copy_m1969461849
dNh:_MessageFormatter_ReadMethodResponse_m4134629501
bml:__ZN6il2cpp2vm5Field14GetValueObjectEP9FieldInfoP12Il2CppObject
Aif:_EncoderExceptionFallback_GetHashCode_m2071009120
hLf:_Environment_get_OSVersion_m1247315981
B0a:__ZN23ForwardShaderRenderLoop23RenderForwardShadowMapsEPK11ActiveLightbN6Camera10RenderFlagER17ShaderPassContext
fXc:__ZL15SweepBoxCapsulePKN5physx3Cct9SweepTestEPKNS0_11SweptVolumeEPKNS0_11TouchedGeomERKNS_14PxExtendedVec3ERKNS_6PxVec3ERNS0_12SweptContactE
Dda:__ZN6Object17FindObjectsOfTypeEPKN5Unity4TypeER13dynamic_arrayIPS_Lj4EEb
xbc:__ZNSt3__26vectorINS_4pairIiiEE13stl_allocatorIS2_L18MemLabelIdentifier1ELi16EEE21__push_back_slow_pathIKS2_EEvRT_
prh:_Capture_get_Length_m1952322390
FEc:__ZN9JSONWrite8TransferI4PPtrI9Texture2DEEEvRT_PKc17TransferMetaFlags
kIl:__ZNKSt3__220__time_get_c_storageIwE7__weeksEv
PKb:__ZN13MonoBehaviour17RemoveFromManagerEv
Dga:__ZN14GraphicsHelper5ClearEjRK10ColorRGBAffjR17ShaderPassContext
L9d:__ZN5physx2Sc19ParticlePacketShapeD2Ev
JIe:__ZL23RegisterModuleICalls_UIv
nwb:__ZL11DecodeValuePPKcS0_
Nwh:_ShimEnumerator_MoveNext_m2013866013_gshared
D$:__ZN13MemoryManagerC2Ev
euk:_Transform_SetParent_m1963830867
Rw:__ZN15SerializeTraitsI22OffsetPtrArrayTransferIN7mecanim13ValueConstantEEE8TransferI19StreamedBinaryWriteILb0EEEEvRS3_RT_
HRa:__ZN20ArchiveStorageReader28AcquireAndPrefillUnusedBlockEjPNS_11CacheResultE
m4f:__ZN21InterfaceFuncInvoker1I40CustomAttributeTypedArgument_t1498197914iE6InvokeEjP11Il2CppClassPvi
E6i:__Z78RuntimeInvoker_Il2CppObject_SByte_t454417549_SByte_t454417549_SByte_t454417549PK10MethodInfoPvPS2_
w7b:__Z12NHxRoughnessIA4_tEvP9Texture2DPT_iiii
ltk:_Touch_get_phase_m196706494_AdjustorThunk
nhk:_MethodDictionary_get_SyncRoot_m673971424
M9:__ZN16ScriptingManager27NativeTypeForScriptingClassEP11Il2CppClass
Oyb:__ZN13TrailRenderer19UpdateTransformInfoEv
$da:__ZN18AsyncUploadManagerD2Ev
hxb:__ZN9Transform5ResetEv
_Qb:__Z22TransferField_NonArrayI24GenerateTypeTreeTransfer16Converter_StringEvRK23StaticTransferFieldInfoR31RuntimeSerializationCommandInfoRT0_
VJb:__ZN9TextAsset9SetScriptERK8UnityStr
Ykh:_HttpWebRequest_System_Runtime_Serialization_ISerializable_GetObjectData_m3671622902
hga:__Z17MainLoopKeepalivePv
udd:__ZN5physx7NpScene16addActorInternalERNS_7PxActorE
Qhk:_MatchCollection__ctor_m1944681790
B4e:_HMACSHA512__ctor_m1667460019
LXa:__Z24ScheduleCullingAllGroupsR8JobFenceRK22SceneCullingParameters4PPtrI6CameraERK13CullingOutputRK13dynamic_arrayIP12CullingGroupLj4EERKS_
J9e:_ToBase64Transform_get_OutputBlockSize_m949275583
QTg:_MonoType_ToString_m473949831
RWa:__Z14CalcHullBoundsPK8Vector3fPKhhRK5PlaneRK10Matrix4x4fR10MinMaxAABB
UKh:_RealProxy__ctor_m2147093603
u4h:_RaycastHit2D_get_point_m442317739_AdjustorThunk
YXb:__ZN11PreloadData39ShouldIgnoreInGarbageDependencyTrackingEv
C_f:_List_1__ctor_m3511181530_gshared
s$a:__Z19SetupLODFadeKeywordR17ShaderPassContexti
Cwe:_UNITY_FT_Stream_ReadFields
Xdg:_ReadOnlyCollection_1_get_Count_m2180604490_gshared
HEg:_DateTimeFormatInfo_GetAllDateTimePatternsInternal_m1587126173
ntl:_GC_set_fl_marks
rJa:__ZL25CheckCopyTextureArgumentsRK7ApiGLESP11GLESTextureS3_
Wda:__ZN13dynamic_arrayI26EnlightenSystemInformationLj8EE6insertEPS0_PKS0_S4_
uwe:_tt_name_entry_ascii_from_utf16
bUg:_MulticastNotSupportedException__ctor_m2164514827
jEf:_DateTime_System_IConvertible_ToChar_m2489529194_AdjustorThunk
LRb:__Z29Transfer_Blittable_ArrayFieldI24GenerateTypeTreeTransferyEvRT_R9ArrayInfoRK23StaticTransferFieldInfo
dje:__ZN14PhysicsManager23VirtualRedirectTransferER18StreamedBinaryReadILb1EE
gQ:__ZN4FMOD7SystemI9playSoundE17FMOD_CHANNELINDEXPNS_5SoundEbPPNS_7ChannelE
$oe:__ZN13PhysicsModule31GetColliderComponentsInChildrenERK10GameObjectbbR13dynamic_arrayIPN5Unity9ComponentELj4EE
rZe:_Array_InternalArray__Insert_TisTextEditOp_t3138797698_m1261639558_gshared
fPi:__ZL78ExecuteEvents_t1693084770_CustomAttributesCacheGenerator_U3CU3Ef__mgU24cache10P21CustomAttributesCache
E3:__GLOBAL__sub_I_runtime_graphics_mesh2_lump_cpp
w6h:_RectTransformUtility_PixelAdjustRect_m93024038
Sud:__ZNK5physx7NpCloth16getStretchConfigENS_22PxClothFabricPhaseType4EnumE
wPc:__ZN17PhysicsMaterial2D5ResetEv
JAj:_AnimationPlayableUtilities_SetInputValidated_m2748997465
tw:__ZN18StreamedBinaryReadILb0EE21TransferSTLStyleArrayI13dynamic_arrayI12PPtrKeyframeLj4EEEEvRT_17TransferMetaFlags
RRf:_List_1_Remove_m2616693989_gshared
Tzb:__ZN10VertexData13SwapEndianessEv
fEl:_realloc
Hsc:__Z57Register_UnityEngine_Transform_INTERNAL_get_localRotationv
rHb:__ZN30RuntimeInitializeOnLoadManager23VirtualRedirectTransferER17RemapPPtrTransfer
PRl:dynCall_viif
vii:_MonoField_get_DeclaringType_m1591666235
EZj:_InternalEnumerator_1__ctor_m2111763266_AdjustorThunk
Kth:_Enumerator_MoveNext_m4234629003
L$a:__ZN29MotionVectorRenderLoopScratchD2Ev
upg:_ButtonClickedEvent__ctor_m938038541
E8d:__ZN5physx2Sc24ConstraintProjectionTree11projectPoseERNS0_19ConstraintGroupNodeE
qPb:__ZL26Transfer_SimpleNativeClassI17RemapPPtrTransfer8GradientLb0EEvRK29SerializationCommandArgumentsR31RuntimeSerializationCommandInfo
jC:__ZN17AnimationPlayable26DisconnectNoTopologyChangeEPS_i
t1k:__ZN6il2cpp6icalls8mscorlib6System8MonoType14get_attributesEP20Il2CppReflectionType
Ggb:__Z43DestroyWithoutLoadingButDontDestroyFromFilei
hpe:__ZN13PhysicsModule29GetColliderMaterialInstanceIDER8Collider
TSg:_MonoType_GetDefaultConstructor_m925465120
jjd:__ZNK5physx20NpRigidActorTemplateINS_18PxArticulationLinkEE14getConstraintsEPPNS_12PxConstraintEjj
yIe:__ZZN2UI14CanvasRenderer15InitializeClassEvEN34FunctorImpl_802kCanvasGroupChanged4CallEPviR11MessageData
RPl:dynCall_viiiiiffi
IKi:__ZL95Physics2D_t2540166467_CustomAttributesCacheGenerator_Physics2D_Raycast_m2303387255____distance2P21CustomAttributesCache
jd:_emscripten_glBlendFuncSeparate
Tdi:_GenericTypeParameterBuilder_IsPrimitiveImpl_m1198748291
d7:__Z20scripting_string_newPKc
vqc:__Z43Material_CUSTOM_Internal_CreateWithMaterialP12Il2CppObjectS0_
qpc:__Z86Register_UnityEngine_Experimental_Director_Playable_INTERNAL_CALL_SetPlayStateInternalv
sLg:_Directory_GetCurrentDirectory_m44486537
X1i:__Z45RuntimeInvoker_RuntimeFieldHandle_t2331729674PK10MethodInfoPvPS2_
Ail:__ZNK24NamespaceAndNamePairHashclERKNSt3__24pairIPKcS3_EE
lYk:__ZNK15dense_hashtableINSt3__24pairIK10KeyWrapperINS0_12basic_stringIcNS0_11char_traitsIcEENS0_9allocatorIcEEEEEP11Il2CppClassEES9_N6il2cpp5utils11StringUtils12StringHasherIS8_EEN14dense_hash_mapIS9_SC_SI_NS0_8equal_toIS9_EENS6_ISD_EEE9SelectKeyESL_SM_E5beginEv
dgb:__ZN29AssetBundleLoadAssetOperation34CollectFullPreloadDataDependenciesER13dynamic_arrayIiLj4EE
Q1f:_Collection_1_System_Collections_ICollection_CopyTo_m1047946700_gshared
Noj:__Z36RuntimeInvoker_Enumerator_t975728254PK10MethodInfoPvPS2_
mCf:_Convert_ToInt64_m4057339019
Jjd:__ZNK5physx19NpRigidBodyTemplateINS_18PxArticulationLinkEE27getMaxDepenetrationVelocityEv
knh:_AsnEncodedData_Default_m4197142414
Fce:__ZThn8_N5physx2Gu11HeightFieldD1Ev
Ndl:__ZNSt3__218uninitialized_copyIPNS_4pairIK10KeyWrapperIP11Il2CppClassES4_EES8_EET0_T_SA_S9_
bFd:__ZN5physx19NpRigidBodyTemplateINS_14PxRigidDynamicEED0Ev
zhd:__ZNK5physx19PxArticulationJoint19getConcreteTypeNameEv
SN:__ZN17AudioCustomFilterD2Ev
ewc:__ZN11IMGUIModule26SetDeveloperConsoleVisibleEb
Nvc:__ZNK8GUIStyle13GetLineHeightEv
uIa:__ZN18GfxFramebufferGLES18ReleaseFramebufferEP17RenderSurfaceBaseP14GfxContextGLES
iek:_Context_GetDynamicPropertyCollection_m1987747444
xoh:_X509Certificate2_get_Version_m1927399907
iCc:__Z18Transfer_BlittableI8JSONReadLb1EiEvRK29SerializationCommandArgumentsR31RuntimeSerializationCommandInfo
Xxg:_Image_RadialCut_m3229543088
w_:__ZN19CloudServiceHandler34HandleSaveFileWebRequestPlayerLoopEv
MC:__ZN7mecanim21ValueArrayReverseCopyEPKNS_18ValueArrayConstantEPKNS_10ValueArrayES2_PS3_PKi
IN:__Z31GetParentSampleClipFromInstancePN11SoundHandle8InstanceE
j5b:__ZNK28RectTransformPropertyBinding13GetFloatValueERKN11UnityEngine9Animation10BoundCurveE
G0c:__ZN5physx11PxHitBufferINS_12PxOverlapHitEE14processTouchesEPKS1_j
hGd:__ZL22addOrRemoveRigidObjectILb0ELb0ELb0ELb1EN5physx3Scb11RigidStaticEEvRNS0_2Sc5SceneERT3_b
bAl:__ZN6il2cpp2os16ThreadLocalValue8GetValueEPPv
X5j:_InternalEnumerator_1_System_Collections_IEnumerator_Reset_m196087328_AdjustorThunk
Y6f:__ZN18VirtActionInvoker2Ii22UICharInfo_t3056636800E6InvokeEjPviS0_
zn:FUNCTION_TABLE_iiiiifiif
J8e:_SHA384Managed_Initialize_m712692291
z_j:_InternalEnumerator_1__ctor_m2688327768_gshared
IMf:_CompareInfo_get_LCID_m3346446356
x6f:_Collection_1_Add_m123318341_gshared
Fqk:_TextEditor_MoveWordRight_m2225371862
eui:__ZL60CallingConvention_t3354538265_CustomAttributesCacheGeneratorP21CustomAttributesCache
Gaf:__ZN21InterfaceFuncInvoker2IP8String_tS1_P12Il2CppObjectE6InvokeEjP11Il2CppClassPvS1_S3_
$sc:__Z52Object_CUSTOM_GetOffsetOfInstanceIDInCPlusPlusObjectv
Pad:__ZN5physx6shdfnd4sortIPvNS0_4LessIS2_EENS0_19ReflectionAllocatorINS_2Cm5BlockIS2_Lj8EEEEEEEvPT_jRKT0_RKT1_j
DU:__ZN9AudioClip15InitializeClassEv
$qd:__ZNK5physx9NpPhysics11getNbShapesEv
Cq:setThrew
t_i:__Z36RuntimeInvoker_IntPtr_t_Il2CppObjectPK10MethodInfoPvPS2_
o7b:__ZL21BuildEmptyCubeTexturePKci11ColorRGBA3217TextureColorSpace
FZb:__ZN14SafeBinaryRead21TransferSTLStyleArrayINSt3__26vectorIN9ShaderLab20SerializedSubProgramENS1_9allocatorIS4_EEEEEEvRT_17TransferMetaFlags
cOe:__ZN13RuntimeStaticI20HardwareInfoReporterE10InitializeEv
Mng:_StandaloneInputModule_set_cancelButton_m2642677329
dCc:__Z15Transfer_StringI8JSONReadLb1EEvRK29SerializationCommandArgumentsR31RuntimeSerializationCommandInfo
Ypa:__ZN6prcoreL17RemapGenericFloatI17TexFormatRGBFloat15TexFormatRGHalfEEvPKNS_9InnerInfoE
H_a:__Z25DoForwardShaderRenderLoopR17RenderLoopContextR13dynamic_arrayI16RenderObjectDataLj4EERK11CullResultsbbbN6Camera10RenderFlagE
Uve:_sfnt_load_face
w1g:_PKCS12_GetSymmetricAlgorithm_m1812022677
qOj:_UTF8Encoding_GetByteCount_m2372933408
fek:_Context_get_NeedsContextSink_m1907794755
Lve:_UNITY_ft_service_list_lookup
i7g:_ARC4Managed_GenerateKey_m716135508
ZPb:__Z18Transfer_BlittableI17RemapPPtrTransferLb1E11ColorRGBA32EvRK29SerializationCommandArgumentsR31RuntimeSerializationCommandInfo
J9j:__ZN16VirtFuncInvoker2Ii40CustomAttributeTypedArgument_t1498197914S0_E6InvokeEjPvS0_S0_
ZVc:__ZN5physx2Gu20intersectTriangleBoxERKNS_6PxVec3ES3_S3_S3_S3_
Wpd:__ZN5physx10NpMaterial8setFlagsENS_7PxFlagsINS_14PxMaterialFlag4EnumEtEE
peb:__ZN13BaseAllocator13TryDeallocateEPv
xTb:__Z29Transfer_Blittable_ArrayFieldI19StreamedBinaryWriteILb0EEfEvRT_R9ArrayInfoRK23StaticTransferFieldInfo
Vlf:_Array_CreateInstance_m1054139389
BWh:_GUIStyleState_GetGUIStyleState_m2816150617
U_j:_InternalEnumerator_1__ctor_m967618647_AdjustorThunk
adb:__ZN16MemoryFileSystem5WriteER13FileEntryDatayPvPy
jxg:_LayoutGroup_GetAlignmentOnAxis_m1783063916
_mb:__ZNSt3__26vectorIN12FlareManager10FlareEntryENS_9allocatorIS2_EEE21__push_back_slow_pathIKS2_EEvRT_
Q9h:_Default_check_arguments_with_score_m1714931543
fvj:_Collision_get_impactForceSum_m521972354
a8e:_SHA1_Create_m4086509717
p$i:__Z57RuntimeInvoker_Il2CppObject_RuntimeTypeHandle_t2330101084PK10MethodInfoPvPS2_
nIk:_UnityEvent_1_GetDelegate_m3098147632_gshared
eji:_MonoMethodInfo_GetMethodInfo_m3298558752
nO:__ZN13AudioListener17RemoveFromManagerEv
ee:_glAttachShader
Vtg:_Dropdown_SetAlpha_m2769981009
ske:__ZN5physx6shdfnd8internal8HashBaseINS0_4PairIKtPKcEEtNS0_4HashItEENS1_11HashMapBaseItS6_S9_NS_7profile26WrapperReflectionAllocatorIS6_EEE6GetKeyESD_Lb1EE6createERS4_Rb
wTa:__ZNK6Camera19GetProjectionMatrixEv
lPk:_Predicate_1_BeginInvoke_m1856151290_gshared
aae:__ZNK5physx2Cm12DelegateTaskINS_2Sc5SceneEXadL_ZNS3_18clothPreprocessingEPNS_10PxBaseTaskEEEE7getNameEv
tLd:__ZNK5physx7NpScene24getWakeCounterResetValueEv
sEd:__ZN5physx20NpRigidActorTemplateINS_14PxRigidDynamicEE17resolveReferencesERNS_24PxDeserializationContextE
bEk:_SceneFade_BeginFade_m3185360589
qfg:_ReadOnlyCollection_1_System_Collections_IList_Contains_m673434054_gshared
QUk:__ZN15dense_hashtableINSt3__24pairIK10KeyWrapperIPK22Il2CppGenericParameterEP11Il2CppClassEES6_N6il2cpp5utils11PointerHashIS4_EEN14dense_hash_mapIS6_S9_SE_NS0_8equal_toIS6_EENS0_9allocatorISA_EEE9SelectKeyESH_SJ_E8min_sizeEjj
Y9i:__Z139RuntimeInvoker_Il2CppObject_Il2CppObject_Int32_t2071877448_SByte_t454417549_SByte_t454417549_SByte_t454417549_SByte_t454417549_Il2CppObjectPK10MethodInfoPvPS2_
cxc:__Z33GUI_CUSTOM_INTERNAL_CALL_DoButtonRK5RectTIfEP12Il2CppObject13Il2Cpp_IntPtr
M0d:__ZN5physx2Gu32PCMConvexVsMeshContactGeneration20generateLastContactsEv
_8:__Z38PreallocateObjectFromPersistentManagerib
xEf:_DateTime_System_IConvertible_ToSingle_m3927769066
YJl:__ZNSt3__211__money_getIwE13__gather_infoEbRKNS_6localeERNS_10money_base7patternERwS8_RNS_12basic_stringIcNS_11char_traitsIcEENS_9allocatorIcEEEERNS9_IwNSA_IwEENSC_IwEEEESJ_SJ_Ri
eqd:__ZThn12_N5physx10NpMaterialD0Ev
vrb:__ZNK9Texture2D20GetUnscaledTextureIDEv
MU:__ZN9AudioClip7PRODUCEE18MemLabelIdentifier18ObjectCreationMode
MMl:__ZNSt3__26vectorIPNS_6locale5facetENS_15__sso_allocatorIS3_Lj28EEEE26__swap_out_circular_bufferERNS_14__split_bufferIS3_RS5_EE
xCf:_Convert_ToSByte_m883113940
oge:__ZN5physx6shdfnd4sortIjNS_19SortBoundsPredicateENS0_19ReflectionAllocatorIjEEEEvPT_jRKT0_RKT1_j
dYl:_glFenceSync__wrapper
STg:_MonoType_get_ContainsGenericParameters_m3229732653
Esd:__ZN5physx7NpShape14onRefCountZeroEv
GVe:_Array_InternalArray__IndexOf_TisContactPoint_t1376425630_m3651364246_gshared
xSi:__ZL53InputField_t1631627530_CustomAttributesCacheGeneratorP21CustomAttributesCache
yxl:__ZN6il2cpp2vm13ComObjectBaseINS0_13ManagedObjectE18Il2CppIInspectableNS0_7details6ComNilES5_S5_S5_S5_S5_S5_E16__CreateInstanceEP12Il2CppObject
O3d:__ZN5physx2Cm18DelegateFanoutTaskINS_2Sc5SceneEXadL_ZNS3_14postBroadPhaseEPNS_10PxBaseTaskEEEED0Ev
Nfe:__ZL15TestContainmentRKN5physx6PxVec3EPKfjPKNS_2Gu15HullPolygonDataE
Arb:__ZNK9Texture2D26CanReuploadDataToGfxDeviceEv
FVb:__ZN18StreamedBinaryReadILb0EE21TransferSTLStyleArrayI13dynamic_arrayI4AABBLj4EEEEvRT_17TransferMetaFlags
fUj:_UInt16_System_IConvertible_ToDouble_m4100549304_AdjustorThunk
E1i:__Z116RuntimeInvoker_Il2CppObject_Il2CppObject_Il2CppObject_Int32_t2071877448_Int32_t2071877448_MonoIOErrorU26_t1029615899PK10MethodInfoPvPS2_
hta:__Z29ClearRepeatingLogMessageStatev
tuc:__ZN13TextRendering17TextMeshGenerator13GetTextOffsetERK5RectTIfE
uNk:_HashSet_1_OnDeserialization_m1222146673_gshared
Oce:__ZN5physx2Gu11HeightField12loadFromDescERKNS_17PxHeightFieldDescEb
Xdf:_Single_System_IConvertible_ToInt16_m962677079
rda:__ZN21EnlightenSceneMappingaSERKS_
I9f:_Collection_1_SetItem_m546457615_gshared
uAl:__ZNK6il2cpp8metadata21Il2CppGenericInstHashclEPK17Il2CppGenericInst
jef:_Single_System_IConvertible_ToUInt32_m2447833283
Sfg:_ReadOnlyCollection_1_System_Collections_IList_Add_m3806843030_gshared
sNa:__ZN7ApiGLESD2Ev
b7a:__ZN9Transform47ClearTransformHierarchyAndApplyToSerializedDataEv
M2j:_InternalEnumerator_1_get_Current_m4083613828_AdjustorThunk
zId:__ZN5physx6shdfnd8PoolBaseINS_2Gu30LargePersistentContactManifoldENS0_19ReflectionAllocatorIS3_EEE12allocateSlabEv
Opd:__ZNK5physx10NpMaterial17getReferenceCountEv
U5e:_RijndaelManaged_GenerateKey_m3366247933
_Kg:_BinaryReader_ReadUInt64_m1893783375
Nsj:_Bounds_op_Equality_m2161830280
Sab:__ZN17PersistentManager9AddStreamEv
mSl:dynCall_fidi
Tyc:__Z47Register_UnityEngine_GUIStyle_set_imagePositionv
Q4d:__ZN5physx20getVertexEdgeIndicesERKNS_2Gu11HeightFieldEjjjPNS_8EdgeDataE
tyc:__Z49GUIStyle_CUSTOM_INTERNAL_CALL_Internal_DrawCursor13Il2Cpp_IntPtrRK5RectTIfEP12Il2CppObjectiRK10ColorRGBAf
tIj:_ScrollRect_set_movementType_m3292965850
MAi:__ZL59AttributeTargets_t1984597432_CustomAttributesCacheGeneratorP21CustomAttributesCache
GNd:__ZN5physx6shdfnd5ArrayIPNS_2Sc8BodyCoreENS0_19ReflectionAllocatorIS4_EEE6resizeEjRKS4_
I5h:_RectTransform_set_anchorMin_m4247668187
v2c:__ZN5physx3Cct26CharacterControllerManager16createControllerERNS_9PxPhysicsEPNS_7PxSceneERKNS_16PxControllerDescE
vZ:__ZN11UnityEngine15CloudWebService14RestDownloaderD2Ev
Ebb:__Z29StdTemplateConversionFunctionIjhEbPvR14SafeBinaryRead
Tje:__ZNK12PhysXRaycast12BatchOverlapER13dynamic_arrayI15BatchedOverlapsLj4EEPP8Colliderj
zRf:_List_1_GrowIfNeeded_m2986672263_gshared
aZj:_ArrayReadOnlyList_1_Remove_m2325516426_gshared
gwf:_Hashtable_get_Count_m830088216
jhc:__ZNK13MonoBehaviour13GetScriptTypeEv
Zha:__ZN13RenderTexture12SetDimensionE16TextureDimension
L7h:_ScriptableObject_CreateInstance_m3921674852
We:_SDL_FreeRW
NQd:__ZN5physx6shdfnd8PoolBaseINS_2Cm5BlockIhLj128EEENS0_19ReflectionAllocatorIS4_EEE15disposeElementsEv
j8e:_SHA1Internal_FillBuff_m891541953
cEi:__ZL62ResolveEventHandler_t3842432458_CustomAttributesCacheGeneratorP21CustomAttributesCache
QAd:__ZN5physx3Scb14ParticleSystem14setRestOffsetsEjRKNS_16PxStrideIteratorIKjEERKNS2_IKfEE
Nie:__ZN12MeshCollider11CreateShapeEPvPK9RigidbodyRK8Vector3f
lT:__ZN20SoundChannelInstance8getDelayE14FMOD_DELAYTYPEPjS1_
Fhb:__ZN21AssetBundleFileSystemC2EPKc
PCk:_MyUnitySingleton_Awake_m3343884308
T_i:__Z61RuntimeInvoker_Void_t1841601450_Il2CppObject_Int64_t909078037PK10MethodInfoPvPS2_
_yg:_InputField_set_customCaretColor_m3534590098
DIj:_ScrollRect_set_viewport_m323693490
Pwa:__ZN10UnitySceneD0Ev
ZDg:_NumberFormatter_FormatExponential_m3975285307
yqe:__ZNSt3__26vectorIN20TextRenderingPrivate8FontImpl13CharacterInfoE13stl_allocatorIS3_L18MemLabelIdentifier1ELi16EEE8__appendEj
u:tempBigInt
cf:_emscripten_glVertexAttrib1fv
WZb:__ZNSt3__26vectorIN9ShaderLab20SerializedSubProgram12UAVParameterENS_9allocatorIS3_EEE7reserveEj
W2e:_Array_InternalArray__get_Item_TisTypeTag_t141209596_m1747911007_gshared
Ajh:_NameObjectCollectionBase__ctor_m2433753948
Npj:_AnimationCurve_Init_m1486386337
lwj:_Component_GetComponents_m3712441745
tMd:__ZN5physx13NpVolumeCacheC2EPNS_2Sq17SceneQueryManagerEjj
Lbd:__ZThn24_N5physx2Sc20ArticulationJointSimD1Ev
Kzg:_InputField_get_selectionAnchorPosition_m466595604
jAi:__ZL99Thread_t241561612_CustomAttributesCacheGenerator_Thread_t241561612____ExecutionContext_PropertyInfoP21CustomAttributesCache
mif:_DecoderReplacementFallback_get_DefaultString_m3399348550
THk:_UnityAction_4_Invoke_m3312096275_gshared
jWi:__ZL111LayoutUtility_t4076838048_CustomAttributesCacheGenerator_LayoutUtility_U3CGetPreferredHeightU3Em__5_m1524880643P21CustomAttributesCache
Vmj:__Z57RuntimeInvoker_ResourceInfo_t3933049236_Int32_t2071877448PK10MethodInfoPvPS2_
LUk:__ZN15dense_hashtableINSt3__24pairIK10KeyWrapperIPK22Il2CppGenericParameterEP11Il2CppClassEES6_N6il2cpp5utils11PointerHashIS4_EEN14dense_hash_mapIS6_S9_SE_NS0_8equal_toIS6_EENS0_9allocatorISA_EEE9SelectKeyESH_SJ_EC2ERKSM_j
tXk:__ZN15dense_hashtableINSt3__24pairIK10KeyWrapperIPK19Il2CppGenericMethodEPK26Il2CppGenericMethodIndicesEES6_N6il2cpp8metadata23Il2CppGenericMethodHashEN14dense_hash_mapIS6_SA_SE_NSD_26Il2CppGenericMethodCompareENS0_9allocatorISB_EEE9SelectKeyESG_SI_E13set_empty_keyERKSB_
RAd:__ZN5physx2Sc18ParticleSystemCore14setRestOffsetsEjRKNS_16PxStrideIteratorIKjEERKNS2_IKfEE
oWc:__ZN5physx2Gu16testPolyDataAxisERKNS0_8CapsuleVERKNS0_13PolygonalDataEPNS0_12SupportLocalERKNS_6shdfnd3aos6FloatVERSB_RNSA_5Vec3VE
n6h:_RectTransformUtility_ScreenPointToRay_m1842507230
D5a:__ZN16ReflectionProbes16UpdateSampleDataEv
Y_i:__Z71RuntimeInvoker_Int32_t2071877448_Il2CppObject_Il2CppObject_Il2CppObjectPK10MethodInfoPvPS2_
Ced:__ZN5physx2Sc17ParticleSystemSimD0Ev
wkl:__ZNK15dense_hashtableI10KeyWrapperIP18Il2CppGenericClassES3_N6il2cpp8metadata22Il2CppGenericClassHashEN14dense_hash_setIS3_S6_NS5_25Il2CppGenericClassCompareENSt3__29allocatorIS3_EEE8IdentityES8_SB_E10test_emptyERK30dense_hashtable_const_iteratorIS3_S3_S6_SD_S8_SB_E
buh:_Enumerator_VerifyState_m2118679243_gshared
ZCk:_PauseMenu_OnGUI_m1266844056
sYb:__ZN14SafeBinaryRead21TransferSTLStyleArrayI10vector_setI4PPtrI10MonoScriptENSt3__24lessIS4_EE13stl_allocatorIS4_L18MemLabelIdentifier76ELi16EEEEEvRT_17TransferMetaFlags
W2i:__Z103RuntimeInvoker_Il2CppObject_Il2CppObject_StreamingContext_t1417235061_ISurrogateSelectorU26_t2635255864PK10MethodInfoPvPS2_
cck:_SafeHandle_Finalize_m1839546519
gyb:__ZN14Texture2DArray5ResetEv
LCc:__ZN8JSONRead21TransferSTLStyleArrayINSt3__26vectorI10RectOffset13stl_allocatorIS3_L18MemLabelIdentifier1ELi16EEEEEEvRT_S5_17TransferMetaFlags
r7j:_InternalEnumerator_1_MoveNext_m252820768_AdjustorThunk
Qek:_Context_AllocateNamedDataSlot_m3200404053
l_a:__ZN14BatchAllocator6CommitE18MemLabelIdentifier
vnh:_X509EnhancedKeyUsageExtension_Decode_m3866320499
VDg:_NumberFormatter_AppendIntegerStringWithGroupSeparator_m1401773574
m$f:_List_1_Remove_m1237648310_gshared
L9g:_CipherSuite_get_ServerHMAC_m3566778727
Pqi:__ZL64DebuggerBrowsableState_t944457511_CustomAttributesCacheGeneratorP21CustomAttributesCache
Af:_JS_Sound_Play
sTk:__ZL25UnresolvedVirtualCall_174P12Il2CppObject23RaycastResult_t21186376S1_PK10MethodInfo
kyg:_Image_IsRaycastLocationValid_m864962354
fHl:__ZNSt3__219__libcpp_asprintf_lEPPcP15__locale_structPKcz
hZb:__ZN9ShaderLab16SerializedShader8TransferI14SafeBinaryReadEEvRT_
Pva:__ZN5Mutex7TryLockEv
d_i:__Z51RuntimeInvoker_Int16_t4041245914_Decimal_t724701077PK10MethodInfoPvPS2_
xZj:_InternalEnumerator_1_get_Current_m2151132603_gshared
Zuj:_Collision_get_collider_m3340328360
FE:__ZN7mecanim8skeleton13SkeletonAlignEPKNS0_8SkeletonERKN4math7_float4ES7_i
Lkb:__ZN14SafeBinaryRead21TransferSTLStyleArrayIN4core12basic_stringIcNS1_20StringStorageDefaultIcEEEEEEvRT_17TransferMetaFlags
qLh:_RemotingConfiguration_RegisterWellKnownServiceType_m2491506630
THi:__ZL89Screen_t786852042_CustomAttributesCacheGenerator_Screen_t786852042____height_PropertyInfoP21CustomAttributesCache
aF:__ZNK26AnimatorControllerPlayable34GetAnimatorStateInfoFromStateIndexEiiR17AnimatorStateInfo
_ui:__ZL55_TypeBuilder_t2783404358_CustomAttributesCacheGeneratorP21CustomAttributesCache
WTk:__ZL25UnresolvedVirtualCall_204P12Il2CppObjectPK10MethodInfo
gcb:__Z29StdTemplateConversionFunctionIayEbPvR14SafeBinaryRead
OFd:__ZNK5physx20NpRigidActorTemplateINS_13PxRigidStaticEE14getConstraintsEPPNS_12PxConstraintEjj
MYc:__ZN25MeshMTDGenerationCallbackD0Ev
qCg:_LayoutRebuilder_Initialize_m2671585490
ZVf:_List_1_System_Collections_IList_IndexOf_m4061554721_gshared
a_:__ZN11UnityEngine15CloudWebService14DataDispatcher4StopEv
pAh:_ValueCollection_System_Collections_IEnumerable_GetEnumerator_m499957484_gshared
YZb:__ZNSt3__26vectorIN9ShaderLab20SerializedSubProgram12UAVParameterENS_9allocatorIS3_EEE8__appendEj
OPf:_Enumerator_System_Collections_IEnumerator_Reset_m4029239424_AdjustorThunk
t4f:_Collection_1_GetEnumerator_m434271983_gshared
sCk:_IntroMenu_ShowBackButton_m3460826588
dvc:__ZN5IMGUI9GUIWindow5OnGUIER8GUIState
BKe:__ZN22BaseUnityConnectClient24OnSaveFileFromServerDoneERK8UnityStrS2_bi
UI:__ZN18StreamedBinaryReadILb0EE19TransferSTLStyleMapINSt3__23mapIj8UnityStrNS2_4lessIjEENS2_9allocatorINS2_4pairIKjS4_EEEEEEEEvRT_17TransferMetaFlags
Sec:__ZNK17AnimationCurveTplI11QuaternionfE8GetRangeEv
Rdk:_LifetimeServices_set_LeaseTime_m1487876644
abi:_ConstructorBuilder_not_supported_m3687319507
Ooi:__ZL48IList_t3321498491_CustomAttributesCacheGeneratorP21CustomAttributesCache
oDc:__Z33EmitSerializationCommandsForFieldI9JSONWriteEvR18TransferField_InfoR32SerializationCommandQueueBuilderRP20AllowNameConversions
Kkd:__ZN5physx12NpConstraint8comShiftEPNS_12PxRigidActorE
aef:_Single_System_IConvertible_ToInt64_m3555853323_AdjustorThunk
SXb:__Z23TransferScriptingObjectI19StreamedBinaryWriteILb0EEEvRT_P12Il2CppObjectP11Il2CppClassPK15MonoScriptCache
OQl:dynCall_iifiii
ufj:__Z48RuntimeInvoker_PersistentListenerMode_t857969000PK10MethodInfoPvPS2_
tij:__Z77RuntimeInvoker_Boolean_t3825574718_AspectModeU26_t218518220_Int32_t2071877448PK10MethodInfoPvPS2_
sll:__ZNK15dense_hashtableINSt3__24pairIK10KeyWrapperIP12Il2CppObjectEN6il2cpp2gc9CachedCCWEEES5_NS7_5utils11PointerHashIS3_EEN14dense_hash_mapIS5_S9_SD_NS0_8equal_toIS5_EENS0_9allocatorISA_EEE9SelectKeyESG_SI_E3endEv
P2i:__Z87RuntimeInvoker_Il2CppObject_Il2CppObject_Il2CppObject_Il2CppObject_StringU26_t638738783PK10MethodInfoPvPS2_
Dua:__Z21HasAlphaTextureFormat13TextureFormat
iV:__ZN12AudioManager6UpdateEv
Bua:__ZN14ImageReference9BlitImageERKS_NS_8BlitModeE
Vii:_MonoMethod_get_MethodHandle_m1882915015
Dx:__ZN8Animator12AddToManagerEv
bti:__ZL93ConstructorInfo_t2851816542_CustomAttributesCacheGenerator_ConstructorInfo_Invoke_m2144827141P21CustomAttributesCache
x4a:__ZNK9ShaderLab9IntShader6GetTagEib
oVc:__ZNK5physx2Gu16SupportLocalImplINS0_11ConvexHullVEE9doSupportERKNS_6shdfnd3aos5Vec3VERNS5_6FloatVESA_
dLb:__ZN23CachedSerializationDataD2Ev
jSc:__ZNK5physx3Cct13BoxController8getActorEv
Zob:__ZN14RenderSettings23VirtualRedirectTransferER14SafeBinaryRead
zHc:__ZNK13b2CircleShape5CloneEP16b2BlockAllocator
Gnl:__ZN6il2cpp2os10ThreadImpl15CurrentThreadIdEv
o9f:_Collection_1_System_Collections_IList_get_IsReadOnly_m4005091053_gshared
lD:__ZN30dense_hashtable_const_iteratorINSt3__24pairIKN11UnityEngine9Animation14GenericBindingENS3_10BoundIndexEEES4_NS3_25GenericBindingHashFunctorEN14dense_hash_mapIS4_S6_S8_NS3_30GenericBindingValueArrayUniqueE13stl_allocatorIS7_L18MemLabelIdentifier1ELi16EEE9SelectKeyESA_SD_E30advance_past_empty_and_deletedEv
rmc:__Z36Renderer_Set_Custom_PropSortingOrderP12Il2CppObjecti
kQe:_Array_InternalArray__ICollection_Contains_TisColor32_t874517518_m2818328910_gshared
Snb:__ZN17GlobalGameManager8TransferI17RemapPPtrTransferEEvRT_
Fde:__ZN5physx6shdfnd8internal8HashBaseIPNS_2Gu12TriangleMeshES5_NS0_4HashIS5_EENS1_11HashSetBaseIS5_S7_NS0_9AllocatorELb1EE6GetKeyES9_Lb1EE5eraseERKS5_
z4g:_AppDomainInitializer_EndInvoke_m4003801172
t4h:_RaycastHit2D_get_point_m442317739
S6i:__Z72RuntimeInvoker_Il2CppObject_Il2CppObject_Decimal_t724701077_Il2CppObjectPK10MethodInfoPvPS2_
Kob:__ZN16LevelGameManager8TransferI18StreamedBinaryReadILb0EEEEvRT_
ZDe:_UNITY_tt_face_load_fpgm
dEb:__ZN12InputManagerD0Ev
pyl:__ZN6il2cpp6icalls8mscorlib6System11Diagnostics10StackTrace9get_traceEP15Il2CppExceptionib
nsg:_DefaultControls_CreateUIObject_m2810394112
rgj:__Z37RuntimeInvoker_FillMethod_t1640962579PK10MethodInfoPvPS2_
mYh:_GUIStyle_get_overflow_m1125058093
AIj:_ScrollRect_get_scrollSensitivity_m1160815603
mkf:_UnicodeEncoding_GetBytes_m1337660232
ANc:__ZN16Physics2DManager10CircleCastERK8Vector2ffS2_fiffPK10Collider2DbP12RaycastHit2Di
Unk:_SerializePrivateVariables__ctor_m806793207
gld:__ZN5physx2Sc9RigidCore20removeShapeFromSceneERNS0_9ShapeCoreEb
oke:__ZN5physx6shdfnd8internal8HashBaseINS0_4PairIKPKcjEES5_NS0_4HashIS5_EENS1_11HashMapBaseIS5_jS9_NS_7profile26WrapperReflectionAllocatorIjEEE6GetKeyESD_Lb1EE15reserveInternalEj
JBl:___ctype_b_loc
n5:__ZN13RuntimeStaticI11WindManagerE16StaticInitializeEPv
_Fj:_VertexHelper_GetUIVertexStream_m3849188814
mYa:__ZNK19RenderEventsContext21ExecuteCommandBuffersEiR17ShaderPassContextRK15RenderNodeQueueP19ProfilerInformationi
jge:__ZN5physx11RTreeCooker18buildFromTrianglesERNS_2Gu5RTreeEPKNS_6PxVec3EjPKtPKjjRNS_6shdfnd5ArrayIjNSB_19ReflectionAllocatorIjEEEEPNS0_13RemapCallbackEfNS_17PxMeshCookingHint4EnumE
rfd:__ZN5physx6shdfnd5ArrayIPvNS0_15InlineAllocatorILj256ENS0_19ReflectionAllocatorINS_14NpArticulationEEEEEE15growAndPushBackERKS2_
q1f:_List_1_get_Count_m1249351212_gshared
o8j:_InternalEnumerator_1_get_Current_m747506907_AdjustorThunk
ftj:_Camera_get_eventMask_m4241372419
ZAf:_Decimal_op_Implicit_m623319612
bWh:_GUILayoutUtility_LayoutFromEditorWindow_m1847418289
D9g:_CertificateValidationCallback2_BeginInvoke_m3996282202
Hgh:_SslClientStream_get_ClientCertSelectionDelegate_m2316959461
Ttf:_SynchronizedArrayListWrapper_get_SyncRoot_m1466044127
b9:__ZNK15MonoScriptCache7ReleaseEv
Ekg:_EventTrigger_OnPointerExit_m2119176877
q2d:__ZN5physx9PxTaskMgrC2EPNS_15PxCpuDispatcherEPNS_15PxGpuDispatcherEPNS_15PxSpuDispatcherE
Pg:_glBindTexture
q4f:_Collection_1_ClearItems_m3585785594_gshared
nCl:_snprintf
Weg:_ReadOnlyCollection_1_System_Collections_IList_get_IsReadOnly_m2918085566_gshared
pVi:__ZL84HorizontalOrVerticalLayoutGroup_t1968298610_CustomAttributesCacheGenerator_m_SpacingP21CustomAttributesCache
v9h:_Binder__ctor_m1361613966
Hzg:_InputField_set_caretPosition_m888572237
uei:_ILGenerator__cctor_m3943061018
htf:_ArrayListWrapper_Clone_m1506311066
_9g:_CipherSuite_set_Context_m4127897124
lLa:__ZN16UniformCacheGLES6CreateERK20GpuProgramParameters
zOj:_UTF8Encoding_Fallback_m811555654
FI:__ZN7mecanim12statemachine13StateConstant8TransferI24GenerateTypeTreeTransferEEvRT_
Q7h:_ScriptableObject_t1975622470_marshal_pinvoke_cleanup
pjf:_Encoding_GetString_m1894033578
jeg:_ReadOnlyCollection_1_System_Collections_IList_Clear_m1918003010_gshared
Dsk:_TextGenerator_t647235000_marshal_pinvoke_cleanup
nVl:_emscripten_glGetProgramInfoLog__wrapper
nLi:__ZL94Font_t4239498691_CustomAttributesCacheGenerator_Font_InvokeTextureRebuilt_Internal_m2007522718P21CustomAttributesCache
Nba:__ZN17PersistentManager23DestroyFromFileInternalEi
kJi:__ZL98Object_t1021602117_CustomAttributesCacheGenerator_Object_DoesObjectWithInstanceIDExist_m2570795274P21CustomAttributesCache
YKf:_Enum_ToString_m2112979707
csk:_TextGenerator_ValidatedSettings_m1640214759
ywi:__ZL55SoapServices_t3397513225_CustomAttributesCacheGeneratorP21CustomAttributesCache
JIh:_MonoMethodMessage_get_MethodName_m3580519713
vF:__ZN26AnimatorControllerPlayable18PrepareForPlaybackERN7mecanim6memory9AllocatorE
yUd:__ZN5physx19PxsMaterialCombiner24combineIsotropicFrictionERKNS_15PxsMaterialDataES3_
dLf:_Enum_t2459695545_marshal_pinvoke_cleanup
uOj:_UTF8Encoding_GetBytes_m4170182058
d4e:_Mesh_GetAllocArrayFromChannel_TisColor32_t874517518_m2030100417_gshared
XBd:__ZN5physx22NpParticleBaseTemplateINS_16PxParticleSystemENS_16NpParticleSystemEE20lockParticleReadDataEv
Dla:__ZN22CreateGpuProgramOutputC2Ev
K$h:_Object__ctor_m197157284
uOh:_ObjectManager_GetObject_m2241027343
PNg:_MemoryStream_InternalConstructor_m2423667240
plk:_CapturingGroup_set_Index_m2175936006
gNl:__ZNSt13runtime_errorC2ERKNSt3__212basic_stringIcNS0_11char_traitsIcEENS0_9allocatorIcEEEE
oXi:__Z70RuntimeInvoker_Il2CppObject_Il2CppObject_Il2CppObject_SByte_t454417549PK10MethodInfoPvPS2_
HJh:_SoapMethodAttribute_SetReflectionObject_m3431595769
ree:__ZN5physx7Cooking16cookTriangleMeshERKNS_18PxTriangleMeshDescERNS_14PxOutputStreamE
ntj:_Camera_INTERNAL_set_rect_m610424166
eLj:_Slider_set_maxValue_m2951480075
Z8b:__ZN8GUILayer12CleanupClassEv
Dcd:__ZN5physx2Sc7ElementD0Ev
Qge:__ZN5physx6shdfnd10Foundation7releaseEv
LVk:__ZN6il2cpp2vm5Class4InitEP11Il2CppClass
x5:__ZN19ShaderPropertySheet27AddNewPropertyUninitializedERKN9ShaderLab16FastPropertyNameENS_12PropertyTypeEijj
dd:invoke_vidi
kec:__ZNK15GUIEventManager15GetEventAtIndexEi
sHe:__ZN2UI14CanvasRenderer17SyncDirtyElementsER8JobFence
rUb:__Z18Transfer_BlittableI18StreamedBinaryReadILb0EELb0ExEvRK29SerializationCommandArgumentsR31RuntimeSerializationCommandInfo
erg:_ColorBlock_op_Inequality_m1517672458
Gml:__ZN6il2cpp5utils11StringUtils15StringDuplicateEPKc
Lhl:__ZN6il2cpp2vm9Exception32GetPlatformNotSupportedExceptionEPKc
Wka:__ZNK9ShaderLab21ShaderRasterStateDesc16ToGfxRasterStateEPK19ShaderPropertySheetS3_R14GfxRasterState
fzg:_InputField_set_onValueChange_m1749304609
C1a:__Z16RenderShadowMapsPK18ShadowMapJobHeaderR17ShaderPassContext
vRh:_CspParameters__ctor_m2480441577
rAl:__ZN6il2cpp2os9EventImplC2Ebb
rek:_DynamicPropertyCollection_NotifyMessage_m840388347
Amk:_Uri_ParseUri_m5711497
Hwk:_WWW_InitWWW_m1194933100
AJ:__ZN4PPtrI13MonoBehaviourE8TransferI19StreamedBinaryWriteILb0EEEEvRT_
cqe:__ZN14SafeBinaryRead21TransferSTLStyleArrayINSt3__26vectorI8UnityStr13stl_allocatorIS3_L18MemLabelIdentifier34ELi16EEEEEEvRT_17TransferMetaFlags
dkb:__ZNK5Unity9Component26GetTypeInfoVirtualInternalEv
U5:__Z20IsMatrixBuiltinParamPKcPi
L6i:__Z63RuntimeInvoker_Void_t1841601450_Il2CppObject_Decimal_t724701077PK10MethodInfoPvPS2_
nTi:__ZL108MaskableGraphic_t540192618_CustomAttributesCacheGenerator_MaskableGraphic_ParentMaskStateChanged_m3643747340P21CustomAttributesCache
iAj:_Playable_INTERNAL_CALL_GetInputInternal_m1720243548
O7b:__ZN8Renderer19PostInitializeClassEv
Cca:__ZN13RuntimeStaticINSt3__23mapINS0_12basic_stringIcNS0_11char_traitsIcEENS0_9allocatorIcEEEES7_NS0_4lessIS7_EE13stl_allocatorINS0_4pairIKS7_S7_EEL18MemLabelIdentifier12ELi16EEEEE16StaticInitializeEPv
rte:__ZN20TextRenderingPrivate15DynamicFontDataD2Ev
WZj:_InternalEnumerator_1_get_Current_m1943362081_AdjustorThunk
Rvk:_Vector3_get_sqrMagnitude_m1814096310_AdjustorThunk
RGl:__ZNKSt3__27num_getIwNS_19istreambuf_iteratorIwNS_11char_traitsIwEEEEE15__do_get_signedIxEES4_S4_S4_RNS_8ios_baseERjRT_
Uvl:__ZN6il2cpp6icalls8mscorlib6System8Delegate23CreateDelegate_internalEP20Il2CppReflectionTypeP12Il2CppObjectP22Il2CppReflectionMethodb
SEl:__ZNSt3__214basic_iostreamIcNS_11char_traitsIcEEED0Ev
K9h:_Default_check_type_m2363631305
_Kb:__ZN18DelayedCallManager18CancelCallDelayed2E4PPtrI6ObjectEPF15CallObjectStatePS1_PvES7_
TVf:_List_1__cctor_m911493842_gshared
ueb:__ZN25ThreadsafeLinearAllocator10ReallocateEPvji
_Mb:__Z18Transfer_BlittableI14SafeBinaryReadLb1E11QuaternionfEvRK29SerializationCommandArgumentsR31RuntimeSerializationCommandInfo
Nid:__ZNK5physx18PxArticulationLink8isKindOfEPKc
MVe:_Array_InternalArray__IndexOf_TisRaycastHit2D_t4063908774_m3739817942_gshared
Eji:_MonoProperty_GetAccessors_m3704698731
g2i:__Z146RuntimeInvoker_Il2CppObject_Int32_t2071877448_Il2CppObject_ObjectU5BU5DU26_t3223402458_Il2CppObject_Il2CppObject_Il2CppObject_ObjectU26_t597476745PK10MethodInfoPvPS2_
qoe:__Z25CreatePxMeshFromUnityMeshP4MeshbbRK10Matrix4x4f13TransformTypef
uvl:_GC_disable
nAb:__ZN10Matrix4x4f8TransferI14SafeBinaryReadEEvRT_
sn:FUNCTION_TABLE_vifiiiiiiiiiiiiiiiiii
fRg:_UnmanagedMemoryStream_ReadByte_m2501145010
UCh:_Dictionary_2__ctor_m406310120_gshared
ct:__ZN15SerializeTraitsI13dynamic_arrayIN11UnityEngine9Animation14GenericBindingELj4EEE19ResizeSTLStyleArrayERS4_i18MemLabelIdentifier
oNh:_ObjectRecord_UnchainFixup_m3025030310
tF:__ZN14AvatarPlayback8StopTimeEv
lKl:__ZNSt3__28messagesIcED0Ev
cni:__ZL60MulticastDelegate_t3201952435_CustomAttributesCacheGeneratorP21CustomAttributesCache
Yoe:__ZN14PhysicsManager7PRODUCEE18MemLabelIdentifier18ObjectCreationMode
e8b:__ZN19ShaderPropertySheet16SetVectorIndexedERKN9ShaderLab16FastPropertyNameEifRK8Vector4fNS_8SetFlagsE
Zra:__ZL14OnWorldStoppedv
ZVb:__Z18Transfer_BlittableI18StreamedBinaryReadILb1EELb0E8Vector3fEvRK29SerializationCommandArgumentsR31RuntimeSerializationCommandInfo
Ebj:__Z35RuntimeInvoker_Playable_t3667545548PK10MethodInfoPvPS2_
Wgb:__ZN14CachingManager15ClearTempFolderEv
qSi:__ZL61Image_t2042527209_CustomAttributesCacheGenerator_m_FillCenterP21CustomAttributesCache
qEa:__ZN7ApiGLES18ClearBufferSubDataEjN2gl12BufferTargetEll
KL:__ZN8Animator7SetBoolEib
Ejc:__Z37Camera_Get_Custom_PropAllCamerasCountv
Byb:__ZN14Texture2DArray8TransferI18StreamedBinaryReadILb0EEEEvRT_
hmd:__ZN5physx15NpActorTemplateINS_18PxArticulationLinkEED2Ev
Myc:__Z38Register_UnityEngine_GUIStyle_get_namev
gNg:_FileStreamAsyncResult__ctor_m1096228032
Aye:_Split_Cubic
nb:invoke_fiiii
JHb:__ZNSt3__26vectorIN30RuntimeInitializeOnLoadManager15ClassMethodInfoE13stl_allocatorIS2_L18MemLabelIdentifier12ELi16EEE26__swap_out_circular_bufferERNS_14__split_bufferIS2_RS5_EE
eog:_StandaloneInputModule_ProcessMouseEvent_m3840335260
tGf:_DBNull_System_IConvertible_ToSByte_m1228193074
Y3f:_Collection_1__ctor_m2818834331_gshared
r3e:_Array_InternalArray__get_Item_TisUICharInfo_t3056636800_m3872982785_gshared
aoe:__Z19ExtractDataFromMeshR4MeshR13dynamic_arrayI8Vector3fLj4EERS1_ItLj2EES6_
TBj:_Playables_InternalDestroy_m3873600434
Inl:__ZN6il2cpp2os10ThreadImpl22CreateForCurrentThreadEv
q7f:_Collection_1_Insert_m3041550124_gshared
pwf:_Hashtable_PutImpl_m3318435614
rLl:__ZNKSt3__25ctypeIcE9do_narrowEPKcS3_cPc
znd:__ZN5physx2Sc16ArticulationCore26setMaxProjectionIterationsEj
GMg:_FileStream_FlushBuffer_m2594140542
q0c:__ZN26IntersectAnyVsMeshCallbackILi1ELb0EED2Ev
mzc:__Z64Register_UnityEngine_GUIStyle_GetFontInternalDuringLoadingThreadv
emj:__Z76RuntimeInvoker_Void_t1841601450_Int32U5BU5DU26_t1341332175_Int32_t2071877448PK10MethodInfoPvPS2_
dRc:__ZN15ContactFilter2D13ShouldCollideEP9b2FixtureS1_
mye:_ft_black_render
Srl:__ZN6il2cpp2vm8Profiler12GCHeapResizeEx
tSl:dynCall_viiifi
_Ha:__ZN18GfxFramebufferGLES20ActiveContextChangedEPP17RenderSurfaceBaseS2_
JDi:__ZL51TimeSpan_t3430258949_CustomAttributesCacheGeneratorP21CustomAttributesCache
WHa:__Z19PluginsRenderMarkeri
oJi:__ZL80Object_t1021602117_CustomAttributesCacheGenerator_Object_Instantiate_m2439155489P21CustomAttributesCache
dL:__ZN10HumanTrait18InitializeBoneNameEv
yCf:_Convert_ToSByte_m1570938941
C4k:__ZN6il2cpp2gc19AppendOnlyGCHashMapINSt3__24pairIPK14Il2CppAssemblyP11Il2CppClassEEP24Il2CppReflectionAssembly17ReflectionMapHashIS9_E19ReflectionMapEqualsIS9_EE11TryGetValueERKS9_PSB_
iVb:__Z29Transfer_Blittable_ArrayFieldI18StreamedBinaryReadILb0EEyEvRT_R9ArrayInfoRK23StaticTransferFieldInfo
XGh:_EqualityComparer_1_get_Default_m875724809_gshared
x$a:__ZN14qsort_internal6_QSortIP15RODataDepthPassi17ROSorterDepthPassEEvT_S4_T0_T1_
vjl:__ZNSt3__214__split_bufferIN6il2cpp2vm5Image20EmbeddedResourceDataERNS_9allocatorIS4_EEEC2EjjS7_
zVa:__ZN5Image13ReformatImageERK14ImageReferenceii13TextureFormatNS0_8BlitModeE
kui:__ZL57DispIdAttribute_t607560947_CustomAttributesCacheGeneratorP21CustomAttributesCache
_N:__ZN12AudioManager17RemoveAudioSourceEP11AudioSource
$wj:_CullingGroup_Finalize_m3172731580
Rbe:__ZNK5physx2Gu10ConvexMesh17getReferenceCountEv
c3e:_Array_InternalArray__get_Item_TisUInt64_t2909196914_m2580870875_gshared
RLd:__ZN5physx2Sc5Scene22setNbContactDataBlocksEj
Z2g:_SecurityParser_OnEndElement_m2909940377
pW:__ZN5physx14PxLightCpuTask12addReferenceEv
SNc:__Z10b2DistanceP16b2DistanceOutputP14b2SimplexCachePK15b2DistanceInput
Ntb:__ZN21EnlightenSceneMapping8TransferI19StreamedBinaryWriteILb0EEEEvRT_
Cll:__ZN6il2cpp2gc16GarbageCollector19InitializeFinalizerEv
e7j:_InternalEnumerator_1_System_Collections_IEnumerator_get_Current_m3349211177_AdjustorThunk
Uuc:__ZN10GUIManager10DoGUIEventER10InputEventb
qah:_Context_get_ClientWriteKey_m2235605337
wxi:__ZL66DESCryptoServiceProvider_t933603253_CustomAttributesCacheGeneratorP21CustomAttributesCache
wsl:_GC_bl_init_no_interiors
Lyl:__ZN6il2cpp2vm13LibraryLoader21SetFindPluginCallbackEPFPKcS3_E
P5:__Z20CalculateSqrDistanceRK8Vector3fRK4AABB
m1j:_InternalEnumerator_1_get_Current_m2415979394_AdjustorThunk
lgb:__Z20GetAssetBundlePrefixRKNSt3__212basic_stringIcNS_11char_traitsIcEENS_9allocatorIcEEEE
Ioe:__ZN14PhysicsManager15ProcessContactsEv
UZc:__ZN21BoxTraceSegmentReport7onEventEjPj
uid:__ZN5physx2Sc21ArticulationJointCore13setSwingLimitEff
ZR:__Z32AudioMixerDuckingProcessCallbackP21UnityAudioEffectStatePfS1_jii
FVc:__ZL20HullProjectionCB_BoxRKN5physx2Gu13PolygonalDataERKNS_6PxVec3ERKNS_2Cm8Matrix34ERKNS7_23FastVertex2ShapeScalingERfSE_
uai:_CustomAttributeTypedArgument_GetHashCode_m999147081_AdjustorThunk
WXi:__Z48RuntimeInvoker_Void_t1841601450_SByte_t454417549PK10MethodInfoPvPS2_
PNd:__ZN5physx17PxcNpMemBlockPool19releaseUnusedBlocksEv
QMg:_FileStream_Read_m3880951166
q_d:__ZN5physx14PxsAABBManager21selfCollideAggregatesEPKNS_19AggregateSortedDataE
JO:__ZN12AudioManager8TransferI24GenerateTypeTreeTransferEEvRT_
Boa:__Z25GetBytesFromTextureFormat13TextureFormat
yua:__ZN9Texture3D19UnloadFromGfxDeviceEb
y6d:__ZN5physx12_GLOBAL__N_112innerProductERKNS_14Px1DConstraintERS1_RKNS0_9MassPropsE
mKl:__ZNKSt3__28messagesIcE7do_openERKNS_12basic_stringIcNS_11char_traitsIcEENS_9allocatorIcEEEERKNS_6localeE
iOc:__ZNK10Collider2D12OverlapPointERK8Vector2f
rRe:_Array_InternalArray__ICollection_Remove_TisContactPoint_t1376425630_m2242111467_gshared
NQl:dynCall_iifff
v0a:__Z26FindForwardLightsForObjectR13dynamic_arrayIhLj1EEPK11CulledLightjRK12ActiveLightsRK10RenderNodebRK23FindForwardLightsParams
xj:_emscripten_webgl_init_context_attributes
Bt:__Z14resize_trimmedINSt3__26vectorIN13AnimationClip9PPtrCurveE13stl_allocatorIS3_L18MemLabelIdentifier25ELi16EEEEEvRT_j
TNc:__ZN9b2Simplex9ReadCacheEPK14b2SimplexCachePK15b2DistanceProxyRK11b2TransformS5_S8_
ZAh:_Dictionary_2_Resize_m2532139610_gshared
Hpk:_StackTraceUtility__cctor_m1132099289
h$f:_List_1_IndexOf_m2019441835_gshared
EWd:__ZN5physx26PxcFrictionPatchStreamPairC2ERNS_17PxcNpMemBlockPoolE
GRj:_TimeSpan_Equals_m2029123271_AdjustorThunk
c$k:__ZN6il2cpp2vm13MetadataCache23GetInvokerMethodPointerEPK10MethodInfoPK20Il2CppGenericContext
wMa:__ZN9GfxDevice21RegisterNativeTextureE9TextureIDi16TextureDimension
XMf:_CultureInfo__ctor_m456863818
exl:__ZN6il2cpp6icalls8mscorlib6System10Reflection4Emit11TypeBuilder20create_generic_classEP27Il2CppReflectionTypeBuilder
R7k:__ZNK15dense_hashtableINSt3__24pairIK10KeyWrapperINS1_IPK12PropertyInfoP11Il2CppClassEEEjEES9_17ReflectionMapHashIS8_EN14dense_hash_mapIS9_jSD_19ReflectionMapEqualsIS8_ENS0_9allocatorISB_EEE9SelectKeyESG_SI_E13find_positionERSA_
j2k:__ZNSt3__26vectorIPK10MethodInfoNS_9allocatorIS3_EEE26__swap_out_circular_bufferERNS_14__split_bufferIS3_RS5_EE
Vga:__ZN12ScriptMapper10FindShaderERKNSt3__212basic_stringIcNS0_11char_traitsIcEENS0_9allocatorIcEEEE
lXf:_List_1_AsReadOnly_m1925066867_gshared
nQf:_Enumerator_MoveNext_m2504790928_gshared
SWh:_GUISkin_set_button_m412653849
H0:__ZN3WWW20GetCachedErrorStringEv
fpk:_SliderState__ctor_m1096533539
q2b:__ZN12ScriptMapperD2Ev
sma:__ZNSt3__26__treeINS_12__value_typeI8UnityStrS2_EENS_19__map_value_compareIS2_S3_NS_4lessIS2_EELb1EEE13stl_allocatorIS3_L18MemLabelIdentifier1ELi16EEE7destroyEPNS_11__tree_nodeIS3_PvEE
zXl:b100
iPi:__ZL85AxisEventData_t1524870173_CustomAttributesCacheGenerator_U3CmoveDirU3Ek__BackingFieldP21CustomAttributesCache
$nd:__ZNK5physx14NpSceneQueries10multiQueryINS_12PxOverlapHitEEEbRKNS_15MultiQueryInputERNS_13PxHitCallbackIT_EENS_7PxFlagsINS_9PxHitFlag4EnumEtEEPKNS_12PxQueryCacheERKNS_17PxQueryFilterDataEPNS_21PxQueryFilterCallbackEPNS_20BatchQueryFilterDataE
EBg:_LayoutElement_get_preferredWidth_m3246897845
eyk:_X509Certificate_PEM_m49854707
boe:__ZL21GetMeshLocationDetailR4Mesh
ynh:_X509BasicConstraintsExtension__ctor_m3320418592
oxk:_ExtendedKeyUsageExtension_Decode_m901297139
Z_b:__Z32TransferEnumWithNameForceIntSizeI14SafeBinaryRead7FogModeEvRT_RT0_PKc17TransferMetaFlags
Krc:__Z52Register_UnityEngine_RenderTexture_Internal_GetWidthv
Jpi:__ZL89SafeWaitHandle_t481461830_CustomAttributesCacheGenerator_SafeWaitHandle__ctor_m1710231470P21CustomAttributesCache
eul:_GC_check_leaked
$0b:__ZN9ShaderLab20SerializedSubProgram16TextureParameter8TransferI19StreamedBinaryWriteILb0EEEEvRT_
Gb:invoke_fiiiiiiiifiiiif
yZe:_Array_InternalArray__Insert_TisVector4_t2243707581_m1643342708_gshared
wal:__ZN15dense_hashtableINSt3__24pairIK10KeyWrapperINS1_IPK14Il2CppAssemblyP11Il2CppClassEEEjEES9_17ReflectionMapHashIS8_EN14dense_hash_mapIS9_jSD_19ReflectionMapEqualsIS8_ENS0_9allocatorISB_EEE9SelectKeyESG_SI_EC2EjRKSD_RKSG_RKSK_
f9a:__Z18SkinGenericMathLibILi4ELb0ELb0EEvR12SkinMeshInfo
NEj:_Mask_OnSiblingGraphicEnabledDisabled_m865494155
_jh:_KeysCollection_System_Collections_ICollection_get_SyncRoot_m2289369147
j_:__ZN11UnityEngine15CloudWebService16SessionContainer8AddEventEPNS0_14CloudEventInfoE
akc:__Z45Register_UnityEngine_Camera_set_targetTexturev
nMj:_Text_set_resizeTextMaxSize_m4034967714
ppi:__ZL55GuidAttribute_t222072359_CustomAttributesCacheGeneratorP21CustomAttributesCache
IWh:_GUIStyle_SetDefaultFont_m2095841351
iai:_CustomAttributeNamedArgument_Equals_m2691468532
jkl:__ZN15dense_hashtableI10KeyWrapperIP18Il2CppGenericClassES3_N6il2cpp8metadata22Il2CppGenericClassHashEN14dense_hash_setIS3_S6_NS5_25Il2CppGenericClassCompareENSt3__29allocatorIS3_EEE8IdentityES8_SB_E14squash_deletedEv
mmi:__ZL74String_t_CustomAttributesCacheGenerator_String_Concat_m3881798623____args0P21CustomAttributesCache
qxi:__ZL103CryptoConfig_t896479599_CustomAttributesCacheGenerator_CryptoConfig_CreateFromName_m2169102076____args1P21CustomAttributesCache
Szb:__ZN10VertexData8TransferI14SafeBinaryReadEEvRT_
Bhd:__ZN5physx19NpArticulationJointD0Ev
aQ:__ZN4FMOD8ChannelI8setDelayE14FMOD_DELAYTYPEjj
kyf:_Stack__ctor_m2410583781
v6k:__ZN6il2cpp2gc19AppendOnlyGCHashMapINSt3__24pairIPK10MethodInfoP11Il2CppClassEEP22Il2CppReflectionMethod17ReflectionMapHashIS9_E19ReflectionMapEqualsIS9_EE11TryGetValueERKS9_PSB_
agb:__ZN15SerializeTraitsINSt3__24pairI8UnityStrN11AssetBundle9AssetInfoEEEE8TransferI18StreamedBinaryReadILb0EEEEvRS5_RT_
Epe:__Z59Register_UnityEngine_Physics_INTERNAL_CALL_Internal_Raycastv
H6k:__ZNK19ReflectionMapEqualsINSt3__24pairIPK10MethodInfoP11Il2CppClassEEEclERK10KeyWrapperIS7_ESC_
I9h:_Default_GetBetterMethod_m4255740863
lbi:_ConstructorBuilder_GetILGenerator_m1731893569
rKd:__ZNK5physx7NpScene17getFilterCallbackEv
_oj:__Z48RuntimeInvoker_UIVertex_t1204258818_Il2CppObjectPK10MethodInfoPvPS2_
xjl:__ZNSt3__214__split_bufferIN6il2cpp2vm5Image20EmbeddedResourceDataERNS_9allocatorIS4_EEED2Ev
uJl:__ZNKSt3__210moneypunctIwLb0EE14do_frac_digitsEv
Z7:__ZL20SortItemByInstanceIDRKN18AwakeFromLoadQueue4ItemES2_
wme:__ZN5physx6shdfnd5ArrayIPvNS0_15InlineAllocatorILj256ENS0_19ReflectionAllocatorINS_24NpPtrTableStorageManager8PtrBlockILi16EEEEEEEE15growAndPushBackERKS2_
Yfi:_TypeBuilder_create_runtime_class_m2719530260
T6e:_RNGCryptoServiceProvider_RngClose_m2921734810
n9a:__Z26SkinVerticesGenericMathLibILi1ELb1ELb1EEvPKhiiiiPhiPKvS4_
qTe:_Array_InternalArray__IEnumerable_GetEnumerator_TisVector2_t2243707579_m829381124_gshared
vNe:__ZN20UnityConnectSettings8TransferI24GenerateTypeTreeTransferEEvRT_
dE:__ZN34BlobWriteTransferSTLStyleArrayImplI22OffsetPtrArrayTransferIbEEclERS1_17TransferMetaFlagsR9BlobWrite
mGi:__ZL199U3CCreateWhereIteratorU3Ec__Iterator1D_1_t2523986802_CustomAttributesCacheGenerator_U3CCreateWhereIteratorU3Ec__Iterator1D_1_System_Collections_Generic_IEnumeratorU3CTSourceU3E_get_Current_m517722874P21CustomAttributesCache
wnj:__Z37RuntimeInvoker_LabelFixup_t4090909514PK10MethodInfoPvPS2_
jcg:_ReadOnlyCollection_1_Contains_m1227826160_gshared
Gbk:_GCHandle_GetHashCode_m1664905595_AdjustorThunk
fWg:_SimpleCollator_IsHalfKana_m4255579023
Nhh:_InternalAsyncResult_get_Count_m1291942796
U1f:_Collection_1_System_Collections_IList_Contains_m3365884450_gshared
WBk:_HSController__ctor_m3487745240
wsd:__ZN5physx7NpShape13setRestOffsetEf
H9f:_Collection_1_set_Item_m3440986310_gshared
n0g:_KeyGeneratedEventHandler_Invoke_m760006389
lpg:_BaseMeshEffect__ctor_m2843647600
C6g:_ASN1__ctor_m3688855288
Ysd:__ZN5physxL11getTriangleERKNS_2Gu12TriangleMeshEjPNS_6PxVec3EPKS4_PKvRKNS_2Cm8Matrix34Eb
UU:__ZN13AudioListener12CleanupClassEv
nll:__ZN15dense_hashtableINSt3__24pairIK10KeyWrapperIP12Il2CppObjectEN6il2cpp2gc9CachedCCWEEES5_NS7_5utils11PointerHashIS3_EEN14dense_hash_mapIS5_S9_SD_NS0_8equal_toIS5_EENS0_9allocatorISA_EEE9SelectKeyESG_SI_E9copy_fromERKSL_j
xje:__ZN14SafeBinaryRead21TransferSTLStyleArrayINSt3__26vectorIjNS1_9allocatorIjEEEEEEvRT_17TransferMetaFlags
jch:_ClientSessionInfo_Dispose_m2571428025
zda:__Z13GetIEnlightenv
Dfh:_RecordProtocol_decryptRecordFragment_m2510859489
cud:__ZNK5physx7NpCloth16lockParticleDataEv
Rjg:_BaseRaycaster_get_sortOrderPriority_m3340181311
ZEb:__ZN11TimeManager8TransferI19StreamedBinaryWriteILb0EEEEvRT_
zNg:_DelegatePInvokeWrapper_ReadDelegate_t3184826381
hGi:__ZL91HashSet_1_t2624254809_CustomAttributesCacheGenerator_HashSet_1_OnDeserialization_m627602129P21CustomAttributesCache
zze:_compare_uni_maps
uEe:__ZL34RegisterModuleICalls_TextRenderingv
KLe:__ZN11UnityEngine15PlatformWrapper27GetGraphicsCapsSupportFlagsEv
JFe:__ZNSt3__218__insertion_sort_3IRPFbPN2UI6CanvasES3_EPS3_EEvT0_S8_T_
Emi:__ZL80Decimal_t724701077_CustomAttributesCacheGenerator_Decimal_op_Explicit_m714968249P21CustomAttributesCache
KHf:_Decimal_Equals_m1115043331
DPd:__ZN5physx13NpRigidStatic9visualizeERNS_2Cm12RenderOutputEPNS_7NpSceneE
GTb:__ZN12NativeBufferI16Converter_StringE15SetupForWritingER9ArrayInfo
AZl:___cxa_end_catch__wrapper
TIl:__ZNSt3__210moneypunctIcLb0EED0Ev
Xj:_emscripten_glVertexAttrib3fv
zCd:__ZNK5physx22NpParticleBaseTemplateINS_16PxParticleSystemENS_16NpParticleSystemEE13getRestOffsetEv
ZRd:__ZN5physx6shdfnd8PoolBaseINS_2Sc35ParticleElementRbElementInteractionENS0_19ReflectionAllocatorIS3_EEE15disposeElementsEv
Kzh:_ValueCollection_System_Collections_Generic_ICollectionU3CTValueU3E_Clear_m231380274_gshared
Ukg:_Entry__ctor_m1176697586
ZKg:_BinaryReader_ReadUInt32_m1363572147
LTg:_MonoType_get_Module_m3769241394
rCi:__ZL79Convert_t2607082565_CustomAttributesCacheGenerator_Convert_ToUInt32_m3391339025P21CustomAttributesCache
dpj:__Z37RuntimeInvoker_Enumerator_t1147558387PK10MethodInfoPvPS2_
s7a:__ZN13MonoBehaviour22DoScriptRebuildWarningEv
wMj:_Text_get_verticalOverflow_m3134063496
yfl:__ZN6il2cpp6icalls8mscorlib6System5Array13ClearInternalEP11Il2CppArrayii
fcj:__Z155RuntimeInvoker_Boolean_t3825574718_Vector3_t2243707580_Vector3_t2243707580_RaycastHitU26_t1969197280_Single_t2076509932_Int32_t2071877448_Int32_t2071877448PK10MethodInfoPvPS2_
MEe:__Z38TextGenerator_Get_Custom_PropLineCountP12Il2CppObject
ZZc:__ZN5physx2Gu26EPASupportMapPairLocalImplINS0_9TriangleVENS0_4BoxVEED0Ev
oPl:_llvm_cttz_i32
Tnh:_PublicKey_DecodeDSA_m1169363495
tel:__ZNK15dense_hashtableINSt3__24pairIK10KeyWrapperINS1_IP11Il2CppClassjEEES4_EES6_N6il2cpp8metadata14ArrayClassHashEN14dense_hash_mapIS6_S4_SB_NSA_17ArrayClassCompareENS0_9allocatorIS8_EEE9SelectKeyESD_SF_E12test_deletedEj
cwc:__ZN11IMGUIModule25GetGUIStyleScriptingClassEv
xCe:_tt_get_interface
dRh:_AsymmetricKeyExchangeFormatter__ctor_m3362140205
Rjh:_NameObjectCollectionBase_BaseGet_m667273025
xIe:__ZZN2UI14CanvasRenderer15InitializeClassEvEN32FunctorImpl_801kTransformChanged4CallEPviR11MessageData
A_d:__ZN5physx14PxsAABBManager16processBPResultsERKNS_20PxsComputeAABBParamsE
qFc:__ZN9JSONWrite8TransferI13dynamic_arrayIiLj4EEEEvRT_PKc17TransferMetaFlags
HYd:__ZN5physx23PxsBroadPhaseContextSapD2Ev
qge:__ZN5physx12SubSortQuickC2EPjPKNS_10PxBounds3VEjf
dLl:__ZNSt3__2L13utf8_to_utf16EPKhS1_RS1_PtS3_RS3_mNS_12codecvt_modeE
f7:__Z18ConvertUTF16toUTF8PPKtS0_PPhS2_15ConversionFlags
_ql:__ZN6il2cpp2os20PathErrnoToErrorCodeERKNSt3__212basic_stringIcNS1_11char_traitsIcEENS1_9allocatorIcEEEEi
YSj:_TypeLoadException__ctor_m1903359728
KPk:__ZL16my_g_bit_nth_msfj
Kxh:_Transform_1_BeginInvoke_m3014766640_gshared
gll:__ZN14dense_hash_mapI10KeyWrapperIP12Il2CppObjectEN6il2cpp2gc9CachedCCWENS4_5utils11PointerHashIS1_EENSt3__28equal_toIS3_EENSA_9allocatorINSA_4pairIKS3_S6_EEEEE15set_deleted_keyERSF_
O8a:__Z20DeformSkinnedMeshJobP12SkinMeshInfo
L4e:_KeySizes__ctor_m3526899007
UGg:_Int16_System_IConvertible_ToInt32_m191782913_AdjustorThunk
yTk:__ZL25UnresolvedVirtualCall_180P12Il2CppObject19Vector3_t2243707580S1_PK10MethodInfo
Sll:__ZN15dense_hashtableINSt3__24pairIK10KeyWrapperIP12Il2CppObjectEN6il2cpp2gc9CachedCCWEEES5_NS7_5utils11PointerHashIS3_EEN14dense_hash_mapIS5_S9_SD_NS0_8equal_toIS5_EENS0_9allocatorISA_EEE9SelectKeyESG_SI_E15insert_noresizeERKSA_
SNi:__ZL69ArgumentCache_t4810721_CustomAttributesCacheGenerator_m_FloatArgumentP21CustomAttributesCache
U2f:_Collection_1_CopyTo_m1578267616_gshared
Jif:_EncoderReplacementFallback__ctor_m2208438262
s7e:_RSACryptoServiceProvider__ctor_m2716420409
$Vk:__ZN6il2cpp2vm5Class15GetInstanceSizeEPK11Il2CppClass
oBh:_Dictionary_2__ctor_m871840915_gshared
$a:invoke_iiiifiiii
kOj:_UTF7Decoder_GetChars_m2790530452
PGc:__ZN9rapidjson8internal6u64toaEyPc
VIk:_EventFunction_1_BeginInvoke_m3064802067_gshared
$Ci:__ZL67IndexOutOfRangeException_t3527622107_CustomAttributesCacheGeneratorP21CustomAttributesCache
Cwd:__ZNK5physx2Sc9ClothCore16getRestPositionsEPNS_6PxVec4E
oVd:__ZN5physx20PxcSweepConvexConvexERKNS_11PxsCCDShapeES2_PKNS_12PxsRigidBodyES5_RKNS_11PxTransformES8_S8_S8_fRNS_6PxVec3ESA_RNS_10PxcNpCacheERNS_18PxcNpThreadContextEf
DLg:_Directory_GetFiles_m4036267478
uKf:_Enum_System_IConvertible_ToType_m2669300536
Jzd:__ZN5physx15PxsParticleDataD0Ev
CIa:__ZL19BlitFramebufferImplRN4gles23BlitFramebufferDrawQuadER9GfxDevice9TextureIDRK8Vector4f
uPb:__Z18Transfer_BlittableI17RemapPPtrTransferLb0EhEvRK29SerializationCommandArgumentsR31RuntimeSerializationCommandInfo
hee:__ZN5physx6shdfnd5ArrayIPvNS0_19ReflectionAllocatorIN17PxcPoolMallocData9PoolData8EEEE15growAndPushBackERKS2_
qXi:__Z44RuntimeInvoker_Byte_t3683104436_Il2CppObjectPK10MethodInfoPvPS2_
Acg:_ReadOnlyCollection_1_System_Collections_IList_Add_m2333231354_gshared
CBi:__ZL78Convert_t2607082565_CustomAttributesCacheGenerator_Convert_ToSByte_m2470292806P21CustomAttributesCache
yse:_UNITY_FT_List_Add
Ofi:_OpCodes__cctor_m939885911
q7b:__ZN14Texture2DArray11InitTextureEiii13TextureFormatb
k8g:_PKCS1_RSASP1_m1748738009
CNh:_ObjectReader_ReadPrimitiveTypeValue_m3808038676
Rhe:__ZN5physx15PxGeometryQuery14getWorldBoundsERKNS_10PxGeometryERKNS_11PxTransformEf
hgh:_RSASslSignatureDeformatter_SetHashAlgorithm_m4048969080
Rxd:__ZN5physx2Sc9ClothCore18setSolverFrequencyEf
Nnk:_UriParser_InitializeAndValidate_m251943319
A9e:_SymmetricAlgorithm_set_Padding_m3081984460
GEb:__ZN9InputAxis8TransferI18StreamedBinaryReadILb0EEEEvRT_
Dce:__ZN5physx2Gu11HeightField8requiresERNS_23PxProcessPxBaseCallbackE
qPh:_StreamingContext_t1417235061_marshal_pinvoke_back
kVc:__ZN5physx2Gu16buildPartialHullERKNS0_13PolygonalDataEPNS0_12SupportLocalERNS0_14SeparatingAxesERKNS_6shdfnd3aos5Vec3VESC_
rsf:_ArrayList_RemoveAt_m2578928333
rgf:_String_ToString_m3226660001
Gbg:_ReadOnlyCollection_1_System_Collections_IList_set_Item_m1233322304_gshared
vxk:_GeneralNames_get_DNSNames_m2721668874
kKf:_Enum_System_IConvertible_ToByte_m38374586
obg:_ReadOnlyCollection_1_System_Collections_Generic_IListU3CTU3E_RemoveAt_m1592158292_gshared
NTl:_emscripten_glFrustum__wrapper
Pgd:__ZNK5physx2Sc16ArticulationCore17releaseDriveCacheERNS_9PxcFsDataE
Wfh:_ReceiveRecordAsyncResult_get_CompletedWithError_m2670396551
vHf:_Decimal_Equals_m1798565377
Pnb:__ZN17GlobalGameManager8TransferI24GenerateTypeTreeTransferEEvRT_
Rtl:_GC_push_all
$4c:__ZN5physx11NpAggregate7releaseEv
LSi:__ZL66InputField_t1631627530_CustomAttributesCacheGenerator_m_CaretColorP21CustomAttributesCache
yci:_TypeBuilder_check_created_m2929267877
Ww:__ZN19StreamedBinaryWriteILb0EE8TransferIKN4math7_float3EEEvRT_PKc17TransferMetaFlags
$Ja:__ZN15TextureTFMethod20IsBoneCountSupportedEi
eXh:_GUISkin_set_horizontalScrollbarThumb_m2119687595
_Jh:_ObjRef__ctor_m1486312270
FBf:_Convert_ToInt16_m416789348
wEf:_DateTime_System_IConvertible_ToSByte_m2575078084_AdjustorThunk
mAh:_ValueCollection_System_Collections_Generic_ICollectionU3CTValueU3E_Remove_m2910793619_gshared
IPb:__Z22TransferField_NonArrayI17RemapPPtrTransfer27Converter_SimpleNativeClassI8GUIStyleEEvRK23StaticTransferFieldInfoR31RuntimeSerializationCommandInfoRT0_
Tqj:_AnimatorStateInfo_IsTag_m1529621725_AdjustorThunk
qsd:__ZN5physx7NpShape12setMaterialsEPKPNS_10PxMaterialEt
P5b:__ZNK17AnimationCurveTplIfE20EvaluateWithoutCacheEfRf
Zpl:__ZN6il2cpp2os6Thread12QueueUserAPCEPFvPvES2_
Tjd:__ZNK5physx18NpArticulationLink13isSubordinateEv
sSe:_Array_InternalArray__IEnumerable_GetEnumerator_TisDictionaryEntry_t3048875398_m3498834924_gshared
IZh:_GUIStyleState__ctor_m3611888666
F4f:_Collection_1_IsValidItem_m1304951912_gshared
Ecc:__ZN4Mesh10SetNormalsEPK8Vector3fj
uji:_PropertyInfo__ctor_m1808219471
ZRc:__Z66Register_UnityEngine_Physics2D_INTERNAL_CALL_GetRayIntersectionAllv
zAf:_Convert_ToDateTime_m4161927553
o8i:__Z76RuntimeInvoker_Void_t1841601450_RegexOptionsU26_t3063574985_SByte_t454417549PK10MethodInfoPvPS2_
Eci:_TypeBuilder_GetConstructors_m774120094
Pt:__ZN17AnimationCurveTplIfE8TransferI14SafeBinaryReadEEvRT_
yLl:__ZNKSt3__28numpunctIcE16do_thousands_sepEv
bmk:_RegularExpression_set_GroupCount_m2991393456
R2c:__ZN5physx2Gu9RadixSortD2Ev
VLf:_Calendar_get_EraNames_m452820602
Uvb:__ZNSt3__26vectorIN15QualitySettings14QualitySettingENS_9allocatorIS2_EEE6assignIPS2_EENS_9enable_ifIXaasr21__is_forward_iteratorIT_EE5valuesr16is_constructibleIS2_NS_15iterator_traitsIS9_E9referenceEEE5valueEvE4typeES9_S9_
okb:__ZNK5Unity9Component10GetEnabledEv
O0c:__Z15raycast_capsuleRKN5physx10PxGeometryERKNS_11PxTransformERKNS_6PxVec3ES8_fNS_7PxFlagsINS_9PxHitFlag4EnumEtEEjPNS_12PxRaycastHitEbPFbRSD_PvESG_
RYa:__ZNK19ShaderPropertySheet11HasPropertyERKN9ShaderLab16FastPropertyNameE
RKa:__ZN14DrawBufferGLESI12VertexBuffer27VertexBufferUsageMapperGLESE8EndWriteEj
hEf:_DateTime_System_IConvertible_ToByte_m2670443498_AdjustorThunk
Ayd:__ZNK5physx15NpActorTemplateINS_15PxParticleFluidEE14getOwnerClientEv
KRi:__ZL58FontData_t2614388407_CustomAttributesCacheGenerator_m_FontP21CustomAttributesCache
A3k:_il2cpp_class_get_image
eok:_SliderHandler__ctor_m1547880569_AdjustorThunk
hba:__Z16AsyncReadRequestP16AsyncReadCommand
sFi:__ZL81BigInteger_t925946153_CustomAttributesCacheGenerator_BigInteger__ctor_m4013661868P21CustomAttributesCache
r7d:__ZNK5physx34PxsSolverConstraintPostProcessTask7getNameEv
Z5g:_BigInteger_op_Addition_m1734797151
Yfj:__Z110RuntimeInvoker_Boolean_t3825574718_Vector2_t2243707579_Vector2_t2243707579_Single_t2076509932_SByte_t454417549PK10MethodInfoPvPS2_
uWc:__ZN5physx2Gu23distancePointBoxSquaredERKNS_6PxVec3ES3_S3_RKNS_7PxMat33EPS1_
Hme:__ZN5physx9NpPhysics20MeshDeletionListener28onGuMeshFactoryBufferReleaseEPKNS_6PxBaseEtb
B3f:_Collection_1_System_Collections_IList_set_Item_m3488446830_gshared
$ci:_EnumBuilder_CreateNotSupportedException_m62763134
cph:_X509Chain_CheckRevocation_m2480313486
c6e:_RijndaelManagedTransform_TransformBlock_m2558865851
Z3f:_Collection_1_System_Collections_Generic_ICollectionU3CTU3E_get_IsReadOnly_m4096071066_gshared
wEb:__ZN9InputAxis8TransferI14SafeBinaryReadEEvRT_
n8:__ZNK21ExecutionOrderManager30GetCustomAwakeFromLoadQueueForEPKN5Unity4TypeE
MJd:__ZNK5physx7NpScene9getActorsENS_7PxFlagsINS_15PxActorTypeFlag4EnumEtEEPPNS_7PxActorEjj
EOe:__Z27RegisterModule_UnityConnectv
HQf:_Enumerator_Dispose_m3717265706_AdjustorThunk
yBd:__ZN5physx15PxParticleFluidD0Ev
DRd:__ZN5physx11NodeManagerD0Ev
Zzl:__ZN6il2cpp2os20ThreadLocalValueImpl8SetValueEPv
qyh:_Enumerator__ctor_m908409898_gshared
Esj:_Bounds_get_size_m1728027642_AdjustorThunk
PKh:_RealProxy__ctor_m3041043303
nDg:_NumberFormatter_Init_m2654758994
D5c:__ZNK5physx2Sc8BodyCore6getSimEv
LMl:__ZNSt3__214__split_bufferIPNS_6locale5facetERNS_15__sso_allocatorIS3_Lj28EEEEC2EjjS6_
vne:__ZNK5physx2Gu15HeightFieldUtil18getVertexFaceIndexEjjj
ouk:_Transform_Rotate_m2449860094
pll:__ZN15dense_hashtableINSt3__24pairIK10KeyWrapperIP12Il2CppObjectEN6il2cpp2gc9CachedCCWEEES5_NS7_5utils11PointerHashIS3_EEN14dense_hash_mapIS5_S9_SD_NS0_8equal_toIS5_EENS0_9allocatorISA_EEE9SelectKeyESG_SI_E8min_sizeEjj
wR:__ZN10ObjectPoolIN4FMOD12ChannelGroupENS0_13ChannelGroupIEE7SetSizeEi
cZg:_PrimalityTest_BeginInvoke_m966469054
ffg:_ReadOnlyCollection_1_System_Collections_Generic_ICollectionU3CTU3E_Clear_m1785953911_gshared
lLc:__ZNSt3__26__sortIR26ColliderIdentityComparitorPP10Collider2DEEvT0_S6_T_
ZVj:_UInt64_System_IConvertible_ToInt16_m2797150165_AdjustorThunk
xFh:_DefaultComparer__ctor_m2036092614_gshared
Q2e:_Array_InternalArray__get_Item_TisLabelData_t3712112744_m863115768_gshared
yIg:_Int32_Parse_m753946802
lw:__ZN18StreamedBinaryReadILb0EE21TransferSTLStyleArrayI22OffsetPtrArrayTransferIN7mecanim9animation10ValueDeltaEEEEvRT_17TransferMetaFlags
Z$h:_Material_DisableKeyword_m1204728089
f0:__Z22ValidateTlsfAllocationPvjiS_
hja:__ZN18StreamedBinaryReadILb1EE21TransferSTLStyleArrayINSt3__212basic_stringIcNS2_11char_traitsIcEE13stl_allocatorIcL18MemLabelIdentifier1ELi16EEEEEEvRT_17TransferMetaFlags
wrd:__ZN5physx2Cm12RefCountable14onRefCountZeroEv
ZG:__ZN15SerializeTraitsINSt3__24pairI8StateKey10StateRangeEEE8TransferI14SafeBinaryReadEEvRS4_RT_
rgi:_UnmanagedMarshal_ToMarshalAsAttribute_m3695569337
Mud:__ZNK5physx7NpCloth25getMotionConstraintConfigEv
cOb:__Z14resize_trimmedINSt3__26vectorI17AnimationCurveTplIfE13stl_allocatorIS3_L18MemLabelIdentifier1ELi16EEEEEvRT_j
aUk:__ZL25UnresolvedVirtualCall_210P12Il2CppObject38CustomAttributeNamedArgument_t94157543PK10MethodInfo
kjb:__Z12GUIDToStringRK9UnityGUID
CBg:_LayoutElement_get_minHeight_m2070403283
Rml:__ZN6il2cpp6icalls8mscorlib6System4Enum12get_hashcodeEP12Il2CppObject
FN:__ZN11SoundHandleC2ERKS_
OEj:_Mask_OnEnable_m501850981
VCc:__ZN8JSONRead21TransferSTLStyleArrayI13dynamic_arrayI10ColorRGBAfLj4EEEEvRT_18MemLabelIdentifier17TransferMetaFlags
_tj:_Canvas_get_targetDisplay_m316548313
zG:__ZN18AnimatorController23VirtualRedirectTransferER18StreamedBinaryReadILb0EE
YId:__ZThn8_N5physx2Sc24ElementInteractionMarker7destroyEv
x2b:__ZN12ScriptMapper23VirtualRedirectTransferER18StreamedBinaryReadILb1EE
sv:__ZN11Quaternionf8TransferI18StreamedBinaryReadILb1EEEEvRT_
Ibb:__Z29StdTemplateConversionFunctionItxEbPvR14SafeBinaryRead
Xdk:_FormatterData__ctor_m3974986124
Cri:__ZL64FileNotFoundException_t4200667904_CustomAttributesCacheGeneratorP21CustomAttributesCache
LBj:_CustomAnimationPlayable_SetInputs_m1393448423
a6e:_RijndaelManagedTransform_get_CanReuseTransform_m3735256596
E2c:__ZN5physx3Cct26CharacterControllerManager24setOverlapRecoveryModuleEb
wvf:_Comparer__cctor_m1327316974
yLg:_MonoIO_ExistsFile_m1421941572
GFf:_DateTime_op_GreaterThanOrEqual_m3818963848
mya:__ZNSt3__26__treeINS_12__value_typeI18VertexChannelsInfoP17VertexDeclarationEENS_19__map_value_compareIS2_S5_NS_4lessIS2_EELb1EEE13stl_allocatorIS5_L18MemLabelIdentifier14ELi16EEE12__find_equalIS2_EERPNS_16__tree_node_baseIPvEENS_21__tree_const_iteratorIS5_PNS_11__tree_nodeIS5_SG_EEiEESJ_RKT_
QL:__ZNSt3__212basic_stringIcNS_11char_traitsIcEE13stl_allocatorIcL18MemLabelIdentifier66ELi16EEE6resizeEjc
qsg:_DefaultControls_SetDefaultTextValues_m1707718380
oog:_TouchInputModule_UseFakeInput_m2112019004
ikg:_EventSystem_get_baseEventDataCache_m4294741599
YOl:___cxa_guard_release
cpb:__ZN14RenderSettings18TransferDeprecatedI14SafeBinaryReadEEvRT_
iYc:__ZN24ConvexVsHeightfieldSweepD0Ev
Q3g:__ZN6il2cpp2vm13ComObjectBaseI34__Il2CppComDelegate_t3311706788CCW18Il2CppIInspectableNS0_7details6ComNilES5_S5_S5_S5_S5_S5_ED2Ev
L2:__ZN12TLSAllocatorI14StackAllocatorE8AllocateEji
q9:__ZN16ScriptingManager18GetMonoScriptCacheEi
eVh:_GUIStyle_get_stretchHeight_m3396762700
oPa:__ZN20ArchiveStorageHeader13GetDataOffsetERKNS_6HeaderE
eZk:__ZN13dynamic_arrayIPK10Il2CppTypeLj4EEC2ERKS3_
Fwg:_GridLayoutGroup_CalculateLayoutInputHorizontal_m2355123124
eGi:__ZL84Locale_t4255929017_CustomAttributesCacheGenerator_Locale_GetText_m512920887____args1P21CustomAttributesCache
pNb:__Z18Transfer_BlittableI14SafeBinaryReadLb1EyEvRK29SerializationCommandArgumentsR31RuntimeSerializationCommandInfo
aBc:__ZN8JSONRead8TransferIfEEvRT_PKc17TransferMetaFlagsb
SJi:__ZL105Physics_t634932869_CustomAttributesCacheGenerator_Physics_Raycast_m3475924638____queryTriggerInteraction4P21CustomAttributesCache
QI:__ZN25RuntimeAnimatorController8TransferI17RemapPPtrTransferEEvRT_
kt:__ZN14SafeBinaryRead21TransferSTLStyleArrayI19StaticArrayTransferIiLi155EEEEvRT_17TransferMetaFlags
MLd:__ZNK5physx2Sc10NPhaseCore39getDefaultContactReportStreamBufferSizeEv
Zfg:_ReadOnlyCollection_1_System_Collections_ICollection_get_IsSynchronized_m4063596282_gshared
xNl:__ZNSt3__212basic_stringIcNS_11char_traitsIcEENS_9allocatorIcEEE6appendEPKcj
usi:__ZL54TypeBuilder_t3308873219_CustomAttributesCacheGeneratorP21CustomAttributesCache
xvd:__ZN5physx7NpCloth25setSelfCollisionStiffnessEf
WUd:__ZZN5physx28PxcSweepEstimateAnyShapeMeshERKNS_11PxsCCDShapeES2_PKNS_12PxsRigidBodyES5_RKNS_11PxTransformES8_fEN2CBD0Ev
t5f:_Collection_1_CheckWritable_m691269733_gshared
Ddi:_GenericTypeParameterBuilder_GetAttributeFlagsImpl_m3338182267
NW:__ZN13Simd4iFactoryIN6detail9FourTupleEEC2Eiiii
XPg:_SynchronizedReader__ctor_m1408327515
BAk:_X509Store_LoadCrl_m1146720614
f3:__ZL41FileEntryInfoListToFolderContentsAbsoluteRK13dynamic_arrayI13FileEntryInfoLj8EERNSt3__23setINS4_12basic_stringIcNS4_11char_traitsIcEENS4_9allocatorIcEEEENS4_4lessISB_EENS9_ISB_EEEE
joj:__Z54RuntimeInvoker_KeyValuePair_2_t3716250094_Il2CppObjectPK10MethodInfoPvPS2_
Zgg:_ReadOnlyCollection_1_System_Collections_IList_Clear_m1858417639_gshared
cMc:__ZN10Collider2D14FinalizeCreateERK10Matrix4x4fR12b2FixtureDefP6b2BodyPK13dynamic_arrayIP7b2ShapeLj4EE
ISa:__ZZ23InitPlayerLoopCallbacksvEN38PostLateUpdateShaderHandleErrorsstruct7ForwardEv
btb:__ZN15SerializeTraitsI33EnlightenTerrainChunksInformationE8TransferI14SafeBinaryReadEEvRS0_RT_
Mz:__ZN7mecanim9animation16MotionOutputCopyEPNS0_12MotionOutputEPKS1_bbRKNS_6bitsetILj66EEE
mpd:__ZN5physx2Sc14ConstraintCoreD2Ev
ZOc:__ZN6b2Body12SetTransformERK6b2Vec2f
b8b:__ZNK32RendererMaterialAnimationBinding9BindValueER6ObjectRKN11UnityEngine9Animation14GenericBindingERNS3_10BoundCurveE
D0i:__Z112RuntimeInvoker_Int32_t2071877448_Il2CppObject_Int32_t2071877448_Int32_t2071877448_Il2CppObject_Int32_t2071877448PK10MethodInfoPvPS2_
kmd:__ZN5physx15NpActorTemplateINS_18PxArticulationLinkEE13setActorFlagsENS_7PxFlagsINS_11PxActorFlag4EnumEtEE
w9a:__Z13GetIAnimationv
Uua:__ZL18stbir__support_onef
Rde:__ZN5physx6shdfnd8internal8HashBaseIPNS_11PxAggregateES4_NS0_4HashIS4_EENS1_11HashSetBaseIS4_S6_NS0_9AllocatorELb0EE6GetKeyES8_Lb0EE15reserveInternalEj
fUf:_List_1_System_Collections_IList_Remove_m2040310137_gshared
Phk:_Match_get_Regex_m3526002767
Ori:__ZL49Stream_t3255436806_CustomAttributesCacheGeneratorP21CustomAttributesCache
wDc:__Z26Transfer_UnityEngineObjectI9JSONWriteLb0EEvRK29SerializationCommandArgumentsR31RuntimeSerializationCommandInfo
Nif:_EncoderReplacementFallback_CreateFallbackBuffer_m3579126537
eVj:_UInt32_System_IConvertible_ToInt16_m2251335934_AdjustorThunk
GGe:__ZNSt3__27__sort5IRNS_6__lessIN2UI14DepthSortEntryES3_EEPS3_EEjT0_S7_S7_S7_S7_T_
eXi:__Z31RuntimeInvoker_Void_t1841601450PK10MethodInfoPvPS2_
Nnf:_Boolean_System_IConvertible_ToType_m3990189691
Z6k:__ZN24dense_hashtable_iteratorINSt3__24pairIK10KeyWrapperINS1_IPK10MethodInfoP11Il2CppClassEEEjEES9_17ReflectionMapHashIS8_EN14dense_hash_mapIS9_jSD_19ReflectionMapEqualsIS8_ENS0_9allocatorISB_EEE9SelectKeyESG_SI_E30advance_past_empty_and_deletedEv
D7k:__ZNSt3__218uninitialized_copyIPNS_4pairIK10KeyWrapperINS1_IPK11Il2CppImageP11Il2CppClassEEEjEESC_EET0_T_SE_SD_
Ha:invoke_vdd
wo:FUNCTION_TABLE_fiii
h4j:_InternalEnumerator_1_Dispose_m3838127340_AdjustorThunk
Cej:__Z36RuntimeInvoker_FontStyle_t2764949590PK10MethodInfoPvPS2_
NJf:_Double_System_IConvertible_ToUInt32_m624993430
Ao:FUNCTION_TABLE_fiif
EPi:__ZL89PointerEventData_t1599784723_CustomAttributesCacheGenerator_U3CdraggingU3Ek__BackingFieldP21CustomAttributesCache
B6b:__ZNK30SpriteRendererAnimationBinding12GetPPtrValueERKN11UnityEngine9Animation10BoundCurveE
HHl:__ZNKSt3__220__time_get_c_storageIcE7__am_pmEv
BQj:_Scheduler_Add_m376749205
RYi:__Z98RuntimeInvoker_Void_t1841601450_Int32_t2071877448_Il2CppObject_Int32_t2071877448_Int32_t2071877448PK10MethodInfoPvPS2_
Hyl:__ZN6il2cpp6icalls8mscorlib4Mono8Security12Cryptography18KeyPairPersistence19_IsMachineProtectedEP12Il2CppString
_Fl:__ZNSt3__215__num_get_floatIeEET_PKcS3_Rj
Fwj:_ContactPoint2D_t3659330976_marshal_pinvoke_cleanup
e7b:__Z14RandomRotationP9Texture2DPhiiii
lVg:_OutOfMemoryException__ctor_m1932883273
L2j:_InternalEnumerator_1_MoveNext_m1594563423_AdjustorThunk
rle:__ZThn132_N5physx7profile8ZoneImplINS_28PxProfileNameProviderForwardEED1Ev
MPb:__Z65EmitSerializationCommandsForLinearCollectionOfManagedObjectsFieldI17RemapPPtrTransferEvRK23TransferArrayField_InfoR20SerializationCommandR32SerializationCommandQueueBuilderRP20AllowNameConversions
Wij:__Z76RuntimeInvoker_Boolean_t3825574718_DirectionU26_t743901654_Int32_t2071877448PK10MethodInfoPvPS2_
ONh:__ZN16VirtFuncInvoker0ItE6InvokeEjPv
m1i:__Z35RuntimeInvoker_TimeSpan_t3430258949PK10MethodInfoPvPS2_
JYk:__ZN15dense_hashtableI10KeyWrapperIPK19Il2CppGenericMethodES4_N6il2cpp8metadata23Il2CppGenericMethodHashEN14dense_hash_setIS4_S7_NS6_26Il2CppGenericMethodCompareENSt3__29allocatorIS4_EEE8IdentityES9_SC_E8min_sizeEjj
RYf:_List_1_System_Collections_IList_Insert_m2036969360_gshared
cAg:_InputField_GetUnclampedCharacterLineFromPosition_m1912794077
ipk:_SpaceAttribute__ctor_m1444406696
jKd:__ZN5physx7NpScene27setCCDContactModifyCallbackEPNS_26PxCCDContactModifyCallbackE
YMg:_ReadDelegate__ctor_m885671467
Uee:__ZNK5physx17ConvexHullBuilder17ComputeGeomCenterERNS_6PxVec3E
dGf:_DateTimeOffset_ToString_m2121173678_AdjustorThunk
PFi:__ZL50X509Crl_t1699034837_CustomAttributesCacheGeneratorP21CustomAttributesCache
hZd:__ZN3MBPD0Ev
Y_:__ZNK13EmscriptenWWW14GetPartialDataEv
WZl:_glDeleteProgram__wrapper
_jc:__Z50Register_UnityEngine_Camera_INTERNAL_get_pixelRectv
lra:__ZN19RuntimeSceneManager14LoadSceneAsyncERK8UnityStrS2_S2_RK9UnityGUIDiNS_11LoadingModeEbRP10UnityScene
Uij:__Z53RuntimeInvoker_UIVertex_t1204258818_Int32_t2071877448PK10MethodInfoPvPS2_
Cvj:_Color_GetHashCode_m3182525367
Dpa:__ZN6prcoreL18BlitFloatToIntegerERK14ImageReferenceRS0_
Jmj:__Z57RuntimeInvoker_KeyValuePair_2_t38854645_Int32_t2071877448PK10MethodInfoPvPS2_
H2g:_X509CertificateCollection_get_Item_m410866272
NUh:_Rect_get_yMax_m2915146103
gLk:_EqualityComparer_1_System_Collections_IEqualityComparer_Equals_m1705945391_gshared
qNd:__ZNK5physx10PxsContext18getBounceThresholdEv
vKl:__ZNSt3__217__widen_from_utf8ILj32EED0Ev
pPc:__ZN7b2Timer5ResetEv
zZ:__ZN11UnityEngine15CloudWebService14RestDownloader17OnCompleteContentEv
Zwg:_LayoutGroup_SetChildAlongAxis_m1615929339
LCk:_LobsterProjectile_Kill_m710524201
sId:__ZN5physx6shdfnd5ArrayIPvNS0_15InlineAllocatorILj256ENS0_19ReflectionAllocatorINS_2Gu31SpherePersistentContactManifoldEEEEEE15growAndPushBackERKS2_
z9d:__ZN5physx2Cm18DelegateFanoutTaskINS_2Sc5SceneEXadL_ZNS3_17finalizationPhaseEPNS_10PxBaseTaskEEEE11runInternalEv
Sql:__ZNK15dense_hashtableINSt3__24pairIK10KeyWrapperIPK19Il2CppGenericMethodEP10MethodInfoEES6_N6il2cpp8metadata23Il2CppGenericMethodHashEN14dense_hash_mapIS6_S9_SD_NSC_26Il2CppGenericMethodCompareENS0_9allocatorISA_EEE9SelectKeyESF_SH_E13find_positionERS7_
M$f:_List_1_System_Collections_ICollection_get_SyncRoot_m1429670979_gshared
bb:invoke_vifff
DZj:_InternalEnumerator_1__ctor_m2111763266_gshared
Bpf:_Byte_System_IConvertible_ToInt16_m1575115635_AdjustorThunk
xzd:__ZN5physx15NpParticleFluid15exportExtraDataERNS_22PxSerializationContextE
AYl:_glGetVertexAttribiv__wrapper
eld:__ZN5physx6shdfnd15atomicDecrementEPVi
zf:_emscripten_request_fullscreen
t9d:__ZN5physx2Cm12DelegateTaskINS_2Sc5SceneEXadL_ZNS3_11postCCDPassEPNS_10PxBaseTaskEEEED0Ev
KUh:_Rect_get_xMin_m1161102488
S1:__ZN20LocalFileSystemWebGL6DeleteER13FileEntryDatab
hHf:_Decimal_System_IConvertible_ToUInt16_m1621568250
Bf:_emscripten_glDisableVertexAttribArray
mJi:__ZL79Object_t1021602117_CustomAttributesCacheGenerator_Object_Instantiate_m938141395P21CustomAttributesCache
ro:FUNCTION_TABLE_iiiifiiii
wRj:_TimeSpan_get_TotalMinutes_m1645177229_AdjustorThunk
Ac:invoke_fifffi
kQ:__ZN4FMOD5Sound15getNumSubSoundsEPi
HEa:__ZN4gles23ClearCurrentFramebufferEP7ApiGLESbbbRK10ColorRGBAffi
KA:__ZN7mecanim12statemachine20CreateStateWorkspaceEjjjRNS_6memory9AllocatorE
EJe:__Z64Register_UnityEngine_CanvasRenderer_SplitIndiciesStreamsInternalv
aaj:__Z34RuntimeInvoker_Vector3_t2243707580PK10MethodInfoPvPS2_
Aee:__ZN5physx2Gu11HeightField13releaseMemoryEb
Mf:_emscripten_glDeleteObjectARB
Hg:_IMG_Load
PQg:_UnexceptionalStreamReader_Read_m3839775235
Uqa:__ZN6prcoreL27StretchGenericFloatBilinearI18TexFormatARGBFloatEEvPKNS_9InnerInfoE
NNa:__ZN10FileSystem25MountDataFolderFileSystemERKNSt3__212basic_stringIcNS0_11char_traitsIcEENS0_9allocatorIcEEEES8_
Mrc:__Z53Register_UnityEngine_RenderTexture_Internal_GetHeightv
cLh:_RealProxy_SetTargetDomain_m3940877656
BKi:__ZL97Physics2D_t2540166467_CustomAttributesCacheGenerator_Physics2D_Linecast_m3607674036____layerMask2P21CustomAttributesCache
Eqa:__ZN6prcoreL17RemapGenericFloatI17TexFormatRGBAHalf18TexFormatARGBFloatEEvPKNS_9InnerInfoE
qKf:_Enum_System_IConvertible_ToInt32_m2459904362
Gvc:__ZNK8GUIStyle21DrawWithTextSelectionER8GUIStateRK5RectTIfER10GUIContentbbbbbiiRK10ColorRGBAfSA_
Kfc:__ZN10systeminfo21SupportsAccelerometerEv
Uvc:__Z14GetBuiltinSkini
uif:_DecoderReplacementFallbackBuffer_Reset_m2576819665
hBj:_CustomAnimationPlayable_GetOutput_m2109551724
Jwf:_Enumerator__cctor_m298562758
OMk:_Enumerator_System_Collections_IEnumerator_Reset_m2573763156_gshared
_Sg:_MonoType_GetConstructors_internal_m2709619723
zcf:_WindowsIdentity_Dispose_m2649088337
Bwb:__ZN2UI13RectTransform23VirtualRedirectTransferER14SafeBinaryRead
BRj:_TimeSpan_CompareTo_m2891128664
UKd:__ZN5physx7NpScene17flushQueryUpdatesEv
Gca:__ZNSt3__26__treeINS_12__value_typeINS_12basic_stringIcNS_11char_traitsIcEENS_9allocatorIcEEEES7_EENS_19__map_value_compareIS7_S8_NS_4lessIS7_EELb1EEE13stl_allocatorIS8_L18MemLabelIdentifier12ELi16EEE7destroyEPNS_11__tree_nodeIS8_PvEE
q3f:_Collection_1_System_Collections_IList_Contains_m323652826_gshared
tRf:_List_1_System_Collections_ICollection_get_SyncRoot_m3733894943_gshared
EWf:_List_1_Reverse_m302978607_gshared
nV:__ZZL31InitializeAudioManagerCallbacksvEN33FixedUpdateAudioFixedUpdatestruct7ForwardEv
$$b:__ZN24GenerateTypeTreeTransfer8TransferINSt3__23mapI8UnityStriNS1_4lessIS3_EENS1_9allocatorINS1_4pairIKS3_iEEEEEEEEvRT_PKc17TransferMetaFlags
j$b:__ZNSt3__26vectorIN9ShaderLab20SerializedSubProgramENS_9allocatorIS2_EEE6assignIPS2_EENS_9enable_ifIXaasr21__is_forward_iteratorIT_EE5valuesr16is_constructibleIS2_NS_15iterator_traitsIS9_E9referenceEEE5valueEvE4typeES9_S9_
MAc:__Z18Transfer_BlittableI8JSONReadLb0E8BitFieldEvRK29SerializationCommandArgumentsR31RuntimeSerializationCommandInfo
dMh:_SoapServices_RegisterInteropXmlType_m2949236705
yXf:_List_1_Remove_m1211693753_gshared
Kab:__ZN17PersistentManagerC2Eii
pxc:__Z46Register_UnityEngine_GUI_get_usePageScrollbarsv
XVb:__ZL17Transfer_GUIStyleI18StreamedBinaryReadILb1EELb0EEvRK29SerializationCommandArgumentsR31RuntimeSerializationCommandInfo
jhf:_String_CharCopy_m2550399897
F3b:__ZN11TypeManager20RegisterNonClassTypeEiP4RTTIPKcS3_
kLd:__ZN5physx7NpScene10unlockReadEv
BZb:__ZN9ShaderLab14SerializedPass8TransferI14SafeBinaryReadEEvRT_
uxc:__Z71Register_UnityEngine_GUILayoutUtility_INTERNAL_CALL_Internal_MoveWindowv
dV:__ZN12AudioManager16SetListenerPauseEb
PIl:__ZNKSt3__28time_putIwNS_19ostreambuf_iteratorIwNS_11char_traitsIwEEEEE6do_putES4_RNS_8ios_baseEwPK2tmcc
T3f:_Collection_1_IsValidItem_m2254106115_gshared
Nci:_TypeBuilder_GetEvent_m3876348075
DLj:_Slider_OnMove_m641164662
da:invoke_viiiiiiiiiii
MAl:___syscall_ret
EQj:_Scheduler__ctor_m3716265742
I$g:_MACAlgorithm_Final_m4076939925
Nbl:__ZNSt3__212basic_stringIcNS_11char_traitsIcEENS_9allocatorIcEEE6assignINS_11__wrap_iterIPKcEEEENS_9enable_ifIXaasr21__is_forward_iteratorIT_EE5valuesr38__libcpp_string_gets_noexcept_iteratorISC_EE5valueERS5_E4typeESC_SC_
Weh:_TlsServerKeyExchange_ProcessAsSsl3_m462106368
OBb:__ZN11ChannelInfo8TransferI19StreamedBinaryWriteILb0EEEEvRT_
i_j:_InternalEnumerator_1_System_Collections_IEnumerator_get_Current_m3583252352_gshared
$fl:__ZN6il2cpp2vm14PlatformInvoke21SetFindPluginCallbackEPFPKcS3_E
mJb:__ZN23ArchiveStorageConverter24ReadHeaderFromMemoryFileEv
oci:_EnumBuilder_get_FullName_m2818393911
Owd:__ZN5physx2Sc9ClothCore22setFrictionCoefficientEf
ZBc:__Z18Transfer_BlittableI8JSONReadLb1E10ColorRGBAfEvRK29SerializationCommandArgumentsR31RuntimeSerializationCommandInfo
Mqd:__ZNK5physx9NpPhysics17getNbConvexMeshesEv
WOg:_StreamAsyncResult_get_Done_m2858832609
HKd:__ZNK5physx7NpScene29getContactCorrelationDistanceEv
hmc:__Z34Register_UnityEngine_Gradient_Initv
rhk:_DictionaryEnumerator_get_Entry_m1597857786
zKa:__Z26TransformVerticesInnerLoopILb1ELb1ELb0EEvPhRK10Matrix4x4fRK10Matrix3x3fjPKhiiiS8_ii25GfxTransformVerticesFlags
lKk:_ObjectPool_1_set_countAll_m1742773675_gshared
ROh:_SerializationEntry_get_Value_m1628109884_AdjustorThunk
Hjg:_BaseInputModule_GetAxisEventData_m3903709281
d3e:_Array_InternalArray__get_Item_TisUriScheme_t1876590943_m1821482697_gshared
S$e:_Array_Sort_TisIl2CppObject_m1954851512_gshared
$4g:_BigInteger__ctor_m3239748086
l1:__ZN13ScreenManager23SetIsOrientationEnabledE18EnabledOrientationb
jRk:__ZL24UnresolvedVirtualCall_57P12Il2CppObjectiPK10MethodInfo
TBi:__ZL79Convert_t2607082565_CustomAttributesCacheGenerator_Convert_ToUInt16_m1043031438P21CustomAttributesCache
HEb:__ZN9InputAxis8TransferI19StreamedBinaryWriteILb0EEEEvRT_
nzc:__Z45Register_UnityEngine_GUIStyle_GetFontInternalv
i4c:__ZN5physx6shdfnd8SyncImpl4waitEj
S7f:_Collection_1_System_Collections_IList_get_IsFixedSize_m3946690039_gshared
NEh:_DefaultComparer_GetHashCode_m2506382068_gshared
uwj:_Component_SendMessageUpwards_m19741277
qCk:_IntroMenu_BeginPage_m623540166
xKk:_EqualityComparer_1_System_Collections_IEqualityComparer_GetHashCode_m1012273405_gshared
eXe:_Array_InternalArray__ICollection_Add_TisHitInfo_t1761367055_m2956071622_gshared
oob:__Z28BuildSingleStreamChannelInfojRK20VertexChannelsLayoutjS1_P11ChannelInfo
D4j:_InternalEnumerator_1_MoveNext_m470170271_AdjustorThunk
U7a:__ZN10GameObject23VirtualRedirectTransferER18StreamedBinaryReadILb0EE
ipl:__ZN6il2cpp2gc16GarbageCollector13AllocateFixedEjPv
b8j:_InternalEnumerator_1_Dispose_m2270401482_AdjustorThunk
vMh:_ArrayFixupRecord_FixupImpl_m2377725358
ch:_glFrontFace
rOh:_ObjectRecord_get_IsUnsolvedObjectReference_m2202692850
Frh:_FactoryCache_Cleanup_m4130035987
aW:__Z35AudioListener_Set_Custom_PropVolumef
zfe:__ZNK5physx20BigConvexDataBuilder4SaveERNS_14PxOutputStreamEbjPKNS_16HullTriangleDataE
xFb:__ZN13BuildSettings8TransferI18StreamedBinaryReadILb1EEEEvRT_
zMd:__ZN5physx13NpVolumeCache17getNbCachedShapesEv
E2a:__ZNSt3__26vectorI16ShadowCasterData13stl_allocatorIS1_L18MemLabelIdentifier2ELi16EEE21__push_back_slow_pathIKS1_EEvRT_
I1k:__ZN6il2cpp6icalls8mscorlib6SystemL16GetFieldFromTypeINS_5utils10functional6FilterINSt3__212basic_stringIcNS7_11char_traitsIcEENS7_9allocatorIcEEEENS4_11StringUtils23CaseInsensitiveComparerEEEEEP21Il2CppReflectionFieldP11Il2CppClassSK_iRKT_
gGh:_DefaultComparer_GetHashCode_m918846970_gshared
Qtk:_Vector3_get_forward_m1201659139
n0f:_List_1_Sort_m269561757_gshared
_Ee:__Z51Register_UnityEngine_TextGenerator_GetLinesInternalv
Feg:_ReadOnlyCollection_1_System_Collections_Generic_ICollectionU3CTU3E_Remove_m2970185170_gshared
hNk:_HashSet_1_Init_m1258286688_gshared
cwa:__ZN17PersistentManager12UnloadStreamERKNSt3__212basic_stringIcNS0_11char_traitsIcEENS0_9allocatorIcEEEEb
Lcb:__Z24CreateDirectoryRecursiveRKNSt3__212basic_stringIcNS_11char_traitsIcEENS_9allocatorIcEEEE
Gcg:_ReadOnlyCollection_1_System_Collections_IList_RemoveAt_m525136953_gshared
uh:_strftime_l
HB:__ZN26AnimatorControllerPlayable27SetupStateMachineBehavioursEP6Object
qvj:_Collision2D_get_gameObject_m4234358314
Vpa:__ZN6prcoreL17RemapGenericFloatI17TexFormatRGBFloat18TexFormatRGBAFloatEEvPKNS_9InnerInfoE
RC:__Z16AppendPathToHashRKN7mecanim5crc32EPKc
HEc:__ZN6HelperI9JSONWrite23TransferArrayField_InfoE24SerializationFunctionForERKS1_R23StaticTransferFieldInfoPb
bOd:__ZN5physx2Sc5Scene15getRenderBufferEv
NVj:_UInt64_System_IConvertible_ToBoolean_m3012279573_AdjustorThunk
Z2i:__Z48RuntimeInvoker_Il2CppObject_StringU26_t638738783PK10MethodInfoPvPS2_
TZl:_glClearStencil__wrapper
BTj:_Type_get_IsGenericTypeDefinition_m2147901038
cOa:__ZN12HandlerChain10ToAbsoluteEPKc
cbj:__Z36RuntimeInvoker_Matrix4x4_t2933234003PK10MethodInfoPvPS2_
LCg:_GregorianCalendar__ctor_m3794576475
DVj:_UInt32_TryParse_m4283512434
BKb:__ZN13MonoBehaviour23VirtualRedirectTransferER19StreamedBinaryWriteILb0EE
tN:__ZN9AudioClip11CreateSoundEv
MDb:__ZN8Material14DisableKeywordERKNSt3__212basic_stringIcNS0_11char_traitsIcEENS0_9allocatorIcEEEE
swh:_ShimEnumerator_MoveNext_m3313047792_gshared
G4f:_Collection_1_ConvertItem_m2185647560_gshared
bSj:_TimeSpan_op_Inequality_m257547441
oPj:_ExecutionContext_GetObjectData_m1456913356
Fkl:__ZN14dense_hash_setI10KeyWrapperIP18Il2CppGenericClassEN6il2cpp8metadata22Il2CppGenericClassHashENS5_25Il2CppGenericClassCompareENSt3__29allocatorIS3_EEE6insertERKS3_
b2h:_Object_set_hideFlags_m2204253440
lpl:__ZN6il2cpp2gc16GarbageCollector21CallWithAllocLockHeldEPFPvS2_ES2_
gci:_EnumBuilder_get_Assembly_m4285228003
QBa:__ZN13GfxDeviceGLES20CreateComputeProgramEPKhj
EEg:_DateTimeFormatInfo_get_RoundtripPattern_m562440017
fOe:__ZN11UnityEngine7Connect16PersistentValues13RestoreValuesER8JSONRead
_Ai:__ZL76Convert_t2607082565_CustomAttributesCacheGenerator_Convert_ToByte_m791636053P21CustomAttributesCache
PFh:_DefaultComparer__ctor_m3947565964_gshared
sJf:_Double_System_IConvertible_ToByte_m3004284950_AdjustorThunk
iMh:_TypeEntry_get_AssemblyName_m1762285107
M4d:__ZNK5physx2Gu11HeightField17getHeightInternalEff
uol:__ZN6il2cpp2vmL11GetIdentityEP14Il2CppIUnknown
Ptl:_GC_push_gc_structures
$Jd:__ZNK5physx7NpScene22getClientBehaviorFlagsEh
rrd:__ZN5physx9NpFactory14createMaterialEfff
jYk:__ZN15dense_hashtableINSt3__24pairIK10KeyWrapperINS0_12basic_stringIcNS0_11char_traitsIcEENS0_9allocatorIcEEEEEP11Il2CppClassEES9_N6il2cpp5utils11StringUtils12StringHasherIS8_EEN14dense_hash_mapIS9_SC_SI_NS0_8equal_toIS9_EENS6_ISD_EEE9SelectKeyESL_SM_E8min_sizeEjj
zSc:__ZNK5physx3Cct13BoxController8getStatsERNS_17PxControllerStatsE
eyf:_Enumerator_get_Current_m1271212567
QW:__ZN5physx5cloth11PhaseConfigC2Et
qLa:__Z22GetShaderCachePathGLESv
Zoe:__ZN13PhysicsModule21OverlapBoxUserCollectERK8Vector3fS2_RK11Quaternionfi23QueryTriggerInteractionRN8IPhysics12IUserCollectE
BSc:__ZN5physx3Cct13BoxControllerD2Ev
W_h:_Input_set_compositionCursorPos_m1615567306
Sma:__ZN18StreamedBinaryReadILb1EE19TransferSTLStyleMapINSt3__23mapIN9ShaderLab16FastPropertyNameEN18UnityPropertySheet11UnityTexEnvENS2_4lessIS5_EENS2_9allocatorINS2_4pairIKS5_S7_EEEEEEEEvRT_17TransferMetaFlags
sCj:_Playable_GetInputWeightInternal_m381407588
nlh:_IPAddress_ParseIPV6_m2209709575
LId:__ZThn8_N5physx2Sc19ShapeInstancePairLLD0Ev
o_:__ZN19CloudServiceHandler18SaveFileFromServerERK8UnityStrS2_PN11UnityEngine15CloudWebService16WWWRestHeaderMapE
M$d:__ZN5physx19PxcContactSphereBoxERKNS_2Gu13GeometryUnionES3_RKNS_11PxTransformES6_RKfRNS_10PxcNpCacheERNS0_13ContactBufferE
YMj:_Toggle_set_group_m3833595685
vCg:_LayoutRebuilder_ForceRebuildLayoutImmediate_m566681977
nKd:__ZNK5physx7NpScene21getBroadPhaseCallbackEh
M9c:__ZN5physx6shdfnd5ArrayIPNS_12PxConstraintENS0_19ReflectionAllocatorIS3_EEE15growAndPushBackERKS3_
Tgd:__ZNK5physx2Sc15ArticulationSim11checkResizeEv
mXe:_Array_InternalArray__ICollection_Add_TisVector4_t2243707581_m698578249_gshared
h6:__ZN8keywords6CreateEPKc
RWc:__ZN5physx2Gu11gjkRelativeINS0_8CapsuleVENS0_11ConvexHullVEEEjRKT_RKT0_RKNS_6shdfnd3aos15PsMatTransformVERNSB_5Vec3VESG_SG_RNSB_6FloatVE
qZi:__Z89RuntimeInvoker_Il2CppObject_Il2CppObject_Int32_t2071877448_Int32_t2071877448_Il2CppObjectPK10MethodInfoPvPS2_
WRb:__ZN24GenerateTypeTreeTransfer8TransferINSt3__26vectorI17AnimationCurveTplIfE13stl_allocatorIS4_L18MemLabelIdentifier1ELi16EEEEEEvRT_PKc17TransferMetaFlags
R:Math_imul
XXh:_GUIStyle_set_active_m2896743432
HDb:__ZN14SpriteRenderer15SetupPropertiesEv
Ddf:_SecurityFrame_t1002202659_marshal_pinvoke_back
H2h:_Physics_Raycast_m2036777053
IEe:__Z45TextGenerator_CUSTOM_INTERNAL_get_rectExtentsP12Il2CppObjectP5RectTIfE
y9g:_CertificateValidationCallback_Invoke_m2500463874
SRe:_SetPropertyUtility_SetStruct_TisChar_t3454481338_m2333420724_gshared
j5f:__ZN23InterfaceActionInvoker2Ii18Color32_t874517518E6InvokeEjP11Il2CppClassPviS0_
W3f:_Collection_1_IsSynchronized_m2601980439_gshared
zwf:_Hashtable_ContainsKey_m2716576664
C9k:__ZN15dense_hashtableINSt3__24pairIK10KeyWrapperIPK10Il2CppTypeEjEES6_N6il2cpp8metadata14Il2CppTypeHashEN14dense_hash_mapIS6_jSB_NSA_17Il2CppTypeCompareENS0_9allocatorIS8_EEE9SelectKeyESD_SF_EC2EjRKSB_RKSD_RKSH_
qik:_PatternCompiler_EmitCategory_m1696942454
sHf:_Decimal_decimalFloorAndTrunc_m3655683429
GXe:_Array_InternalArray__ICollection_CopyTo_TisInt32_t2071877448_m984622488_gshared
OIe:__Z39CanvasGroup_Get_Custom_PropInteractableP12Il2CppObject
TMc:__ZN16CircleCollider2D23VirtualRedirectTransferER18StreamedBinaryReadILb0EE
CVl:_emscripten_glStencilOpSeparate__wrapper
uBe:_cf2_getLanguageGroup
I5a:__ZN13ProbeRenderer8ConvolveEbijjb
UEa:__ZN17GenericDynamicVBOC2ER9GfxDevice13GfxBufferModejj
vek:_Context_get_HasDynamicSinks_m1998518649
Jwc:__Z40Register_UnityEngine_Event_get_modifiersv
POc:__Z28GetPhysics2DScriptingClassesv
qGd:__ZNK5physx2Sc5Scene7isValidEv
H6b:__ZN12ScriptMapper7PRODUCEE18MemLabelIdentifier18ObjectCreationMode
yY:__ZN11UnityEngine15CloudWebService17SessionEventQueue10PurgeItemsEj
qMd:__ZN5physx2Sq17SceneQueryManager29setDynamicTreeRebuildRateHintEj
cAh:_ValueCollection_System_Collections_Generic_ICollectionU3CTValueU3E_get_IsReadOnly_m1530798787_gshared
Lig:_AbstractEventData_get_used_m4208553917
Ykf:_Array_System_Collections_IList_get_Item_m2088124007
qlf:_Array_GetLength_m2083296647
Ryi:__ZL58SecurityElement_t2325568386_CustomAttributesCacheGeneratorP21CustomAttributesCache
Ljb:__ZN16LevelGameManager23VirtualRedirectTransferER24GenerateTypeTreeTransfer
kuf:_SynchronizedArrayListWrapper_ToArray_m1522185111
f7i:__Z55RuntimeInvoker_TimeSpan_t3430258949_DateTime_t693205669PK10MethodInfoPvPS2_
ZWb:__Z18Transfer_BlittableI18StreamedBinaryReadILb1EELb1EtEvRK29SerializationCommandArgumentsR31RuntimeSerializationCommandInfo
Ecf:_SecurityContext_get_FlowSuppressed_m420202521
gAa:__ZN9GfxDevice20DeallocRenderSurfaceEP17RenderSurfaceBase
Ifd:__ZN5physx6shdfnd5ArrayIPvNS0_19ReflectionAllocatorINS_18NpArticulationLinkEEEE4copyINS0_15InlineAllocatorILj256ES5_EEEEvRKNS1_IS2_T_EE
yXj:_ValueType_ToString_m3796301715
YSc:__ZNK5physx3Cct10Controller12getKineShapeEv
F4i:__Z62RuntimeInvoker_Int64_t909078037_Il2CppObject_Int32_t2071877448PK10MethodInfoPvPS2_
Gnc:__Z53Register_UnityEngine_Quaternion_INTERNAL_CALL_Inversev
W_e:_Array_qsort_TisUICharInfo_t3056636800_m2607408901_gshared
a8c:__ZN5physx6shdfnd4sortIPvNS0_4LessIS2_EENS0_19ReflectionAllocatorINS_2Sc18TriggerInteractionEEEEEvPT_jRKT0_RKT1_j
lVh:_GUILayoutGroup__ctor_m992523271
Alb:__ZN12BaseRenderer23RendererBecameInvisibleEv
BEd:__ZNK5physx2Sc8BodyCore14getMaxAngVelSqEv
Nqe:__ZN20TextRenderingPrivate8FontImpl13CharacterInfo8TransferI18StreamedBinaryReadILb0EEEEvRT_
KRb:__Z29Transfer_Blittable_ArrayFieldI24GenerateTypeTreeTransferfEvRT_R9ArrayInfoRK23StaticTransferFieldInfo
w5i:__Z51RuntimeInvoker_Single_t2076509932_Int16_t4041245914PK10MethodInfoPvPS2_
lvb:__ZN8Gradient8TransferI14SafeBinaryReadEEvRT_
$1i:__Z41RuntimeInvoker_StackBehaviour_t1390406961PK10MethodInfoPvPS2_
JIk:_UnityEvent_1_Invoke_m1533100983_gshared
bol:__ZNK15dense_hashtableINSt3__24pairIK10KeyWrapperIP14Il2CppIUnknownEjEES5_N6il2cpp5utils11PointerHashIS3_EEN14dense_hash_mapIS5_jSB_NS0_8equal_toIS5_EENS0_9allocatorIS7_EEE9SelectKeyESE_SG_E5beginEv
Ckh:_FileWebRequest__ctor_m4003648606
EUi:__ZL71SpriteState_t1353336012_CustomAttributesCacheGenerator_m_DisabledSpriteP21CustomAttributesCache
Exa:__ZN16MeshVertexFormat23CreateVertexDeclarationEjPKS_
Lnj:__Z34RuntimeInvoker_HitInfo_t1761367055PK10MethodInfoPvPS2_
sKf:_Enum_System_IConvertible_ToSByte_m3488526280
tMa:__ZN9GfxDevice9SkinOnGPUERK18VertexStreamSourceP9GfxBufferP17GPUSkinPoseBufferS4_iijb
hgi:_TypeBuilder_ToString_m1952363535
Afk:_Identity_set_Disposed_m628843469
J1h:_MonoBehaviour_StopAllCoroutines_m1675795839
Hva:__ZN18IDCollectorFunctorD0Ev
L0d:__ZN5physx2Gu32PCMConvexVsMeshContactGeneration15processTriangleEPKNS_6PxVec3EjhPKj
H7a:__ZN23ManagedAttributeManager21GetRequiredComponentsEP11Il2CppClass
hJi:__ZL82Object_t1021602117_CustomAttributesCacheGenerator_Object_DestroyObject_m2343493981P21CustomAttributesCache
rUg:_NumberFormatter_Init_m1022036773
Jsl:_GC_new_free_list_inner
zEh:_DefaultComparer_Equals_m85211180_gshared
R6b:__ZN14RenderSettings7PRODUCEE18MemLabelIdentifier18ObjectCreationMode
N7f:_Collection_1_System_Collections_IList_IndexOf_m1950953062_gshared
aTg:_MonoType_InternalGetEvent_m532443236
S5f:_Collection_1_IndexOf_m2700825189_gshared
n4d:__ZN5physx6shdfnd5ArrayINS_2Cm8Matrix34ENS0_19ReflectionAllocatorIS3_EEE15growAndPushBackERKS3_
F9j:_Comparer_1_get_Default_m2605397692_gshared
S0d:__ZN5physx2Gu32PCMConvexVsMeshContactGeneration31generatePolyDataContactManifoldERNS0_9TriangleVEjjhPNS0_21MeshPersistentContactERjRKNS_6shdfnd3aos6FloatVERNS8_5Vec3VE
vge:__ZN5physx10SubSortSAH5splitEPjj
OG:__ZN25RuntimeAnimatorController8TransferI14SafeBinaryReadEEvRT_
lBc:__ZN8JSONRead8TransferI10RectOffsetEEvRT_PKc17TransferMetaFlagsb
CG:__ZN18AnimatorController23VirtualRedirectTransferER18StreamedBinaryReadILb1EE
bIl:__ZNSt3__28time_getIwNS_19istreambuf_iteratorIwNS_11char_traitsIwEEEEED2Ev
Whf:_Decoder__ctor_m2623573910
HWa:__Z21ClearFenceWithoutSyncR8JobFence
rYc:__ZN5physx2Gu3EPA8addFacetEjjjRKNS_6shdfnd3aos6FloatVES6_
pQ:__ZN12SoundManager20RegisterModifiedClipEP10SampleClip
h9:__Z21FormatScriptTypeError14MonoScriptTypeRKNSt3__212basic_stringIcNS0_11char_traitsIcEENS0_9allocatorIcEEEE
ECb:__ZN12MeshRenderer15AddAsRenderNodeER15RenderNodeQueueRK20DeprecatedSourceData
$_i:__Z108RuntimeInvoker_Void_t1841601450_Il2CppObject_Int64_t909078037_Il2CppObject_Int64_t909078037_Int64_t909078037PK10MethodInfoPvPS2_
QS:__ZN11AudioSource4PlayEd
gLb:__Z26scripting_class_get_fieldsP11Il2CppClassRNSt3__26vectorIP9FieldInfo13stl_allocatorIS4_L18MemLabelIdentifier1ELi16EEEE
Jjl:__ZN6il2cpp2vm6Object16GetVirtualMethodEP12Il2CppObjectPK10MethodInfo
TK:__ZZN8Animator15InitializeClassEvEN31FunctorImpl_388kDidModifyMotion4CallEPviR11MessageData
$3c:__ZN5physx3Cct9CCTParamsC2Ev
nud:__ZN5physx7NpCloth21setStiffnessFrequencyEf
K1:__ZNK20LocalFileSystemPosix8IsHiddenERK13FileEntryData
tsc:__Z37Transform_CUSTOM_INTERNAL_CALL_LookAtP12Il2CppObjectRK8Vector3fS3_
Hce:__ZThn8_N5physx2Gu11HeightField14onRefCountZeroEv
Pyk:_X501__cctor_m2610532554
tub:__ZThn28_NK8Renderer8GetLayerEv
u7c:__ZN5physx2Sc5Actor9setActiveEbj
GWc:__ZN12_GLOBAL__N_127SphereMeshContactGeneration15processTriangleEjRKN5physx6PxVec3ES4_S4_PKj
tcl:__ZNSt3__214__split_bufferINS_12basic_stringIcNS_11char_traitsIcEENS_9allocatorIcEEEERNS4_IS6_EEED2Ev
l$f:_List_1_CheckCollection_m2220107869_gshared
prb:__ZN7Cubemap23VirtualRedirectTransferER18StreamedBinaryReadILb0EE
Obh:_RecordProtocol_EncodeRecord_m3884270352
w8e:_SHA256_Create_m896954069
bDe:_Read_CVT
pnf:__ZN16VirtFuncInvoker0IP12MemberInfo_tE6InvokeEjPv
pDf:_Convert_ToUInt32_m776714429
XWc:__ZN5physx2Gu22barycentricCoordinatesERKNS_6shdfnd3aos5Vec3VES5_S5_RNS2_6FloatVE
ePa:__ZN12FileAccessor4SeekEx10FileOrigin
MQb:__ZL26Transfer_SimpleNativeClassI24GenerateTypeTreeTransfer17AnimationCurveTplIfELb0EEvRK29SerializationCommandArgumentsR31RuntimeSerializationCommandInfo
Rtd:__ZN5physx15NpActorTemplateINS_7PxClothEE12setActorFlagENS_11PxActorFlag4EnumEb
ztg:__ZN16VirtFuncInvoker1IP22GameObject_t1756533147S1_E6InvokeEjPvS1_
zaj:__Z77RuntimeInvoker_Vector3_t2243707580_Quaternion_t4030073918_Vector3_t2243707580PK10MethodInfoPvPS2_
Pee:__ZL18TestUnifiedNormalsjPKN5physx6PxVec3EjPNS_2Gu9TriangleTIjEEb
lfj:__Z54RuntimeInvoker_Boolean_t3825574718_Vector2_t2243707579PK10MethodInfoPvPS2_
Ywj:_Coroutine_t2299508840_marshal_pinvoke
pda:__ZN16LightmapSettings20DidChangeActiveSceneEP10UnitySceneS1_
val:__ZN15dense_hashtableINSt3__24pairIK10KeyWrapperINS1_IPK14Il2CppAssemblyP11Il2CppClassEEEjEES9_17ReflectionMapHashIS8_EN14dense_hash_mapIS9_jSD_19ReflectionMapEqualsIS8_ENS0_9allocatorISB_EEE9SelectKeyESG_SI_E13set_empty_keyERKSB_
FWi:__ZL59g_AssemblyU2DCSharp_Assembly_CustomAttributesCacheGeneratorP21CustomAttributesCache
csc:__Z39Register_UnityEngine_Time_get_timeScalev
IR:__ZN10AudioMixer11SetupGroupsEv
EIi:__ZL91Resources_t339470017_CustomAttributesCacheGenerator_Resources_GetBuiltinResource_m582410469P21CustomAttributesCache
Fwc:__Z35Register_UnityEngine_Event_get_typev
g0g:_PrivateKeyInfo_DecodeRSA_m1427048948
h6g:_BigInteger_op_GreaterThanOrEqual_m2643115413
H8h:_Assembly_FillName_m1934025015
eUa:_UNITY_png_free
nKg:_IntPtr_op_Explicit_m1073656736
HTl:_emscripten_glDepthRange__wrapper
Qff:_String_IndexOf_m2126171214
NJg:_Int64_ToString_m1544341651_AdjustorThunk
qbe:__ZNK5physx13GuMeshFactory17getNbConvexMeshesEv
aGg:_Guid_CheckNull_m2903986431
WDi:__ZL62CrossContextDelegate_t754146990_CustomAttributesCacheGeneratorP21CustomAttributesCache
tsj:_Bounds__ctor_m1202659404
KIi:__ZL97Texture2D_t3542995729_CustomAttributesCacheGenerator_Texture2D_SetPixels_m1131483856____miplevel5P21CustomAttributesCache
c8:__Z63ThreadAndSerializationSafeCheckGetMonoBehaviourBeingTransferredv
tvl:_GC_enable
Mdh:_TlsClientCertificateVerify_ProcessAsSsl3_m3377063356
r$i:__Z97RuntimeInvoker_Il2CppObject_Il2CppObject_Int32_t2071877448_Il2CppObject_Il2CppObject_Il2CppObjectPK10MethodInfoPvPS2_
Y5b:__ZN14LineParametersD2Ev
Eng:_StandaloneInputModule_set_repeatDelay_m2820945738
RLg:_EndOfStreamException__ctor_m4268387737
NUj:_UInt16_ToString_m4213290405
hnc:__Z37Register_UnityEngine_Input_GetAxisRawv
$0f:_List_1_GetIndex_m433539411_gshared
bxi:__ZL59StreamingContext_t1417235061_CustomAttributesCacheGeneratorP21CustomAttributesCache
Zag:_Collection_1_Remove_m3355928137_gshared
zKf:_Enum_GetName_m1226611481
f3i:__Z113RuntimeInvoker_Il2CppObject_Byte_t3683104436_Il2CppObject_SByte_t454417549_Il2CppObject_Il2CppObject_Il2CppObjectPK10MethodInfoPvPS2_
ES:__ZN11AudioSource5ResetEv
Ew:__ZN13AnimationClip12Vector3Curve8TransferI19StreamedBinaryWriteILb0EEEEvRT_
kyb:__ZN14Texture2DArray23VirtualRedirectTransferER18StreamedBinaryReadILb0EE
Gyb:__ZN13TrailRenderer5ResetEv
rwb:__ZN2UI13RectTransform13AwakeFromLoadE17AwakeFromLoadMode
JYa:__ZL27GetDestRenderTargetSurfacesP13RenderTextureR12ObjectHandleI17RenderSurface_TagP17RenderSurfaceBaseES6_
Wbj:__Z32RuntimeInvoker_Scene_t1684909666PK10MethodInfoPvPS2_
Z5d:__ZN5physx23PxsSolverSetupSolveTaskD2Ev
mNb:__Z18Transfer_BlittableI14SafeBinaryReadLb1EiEvRK29SerializationCommandArgumentsR31RuntimeSerializationCommandInfo
Xak:_DefaultDependencyAttribute__ctor_m107693037
q1b:__ZNSt3__26vectorINS_4pairINS_12basic_stringIcNS_11char_traitsIcEENS_9allocatorIcEEEES7_EENS5_IS8_EEE21__push_back_slow_pathIKS8_EEvRT_
Vdg:_ReadOnlyCollection_1_GetEnumerator_m713393110_gshared
WKh:_ProxyAttribute_GetPropertiesForNewContext_m3587421540
pmf:_Array_LastIndexOf_m4096535198
fsf:_ArrayList_Add_m1719188324
vod:__ZN18MultiQueryCallbackIN5physx12PxOverlapHitEE6invokeERfPKNS0_2Sq13PrunerPayloadEj
IJf:_Double_System_IConvertible_ToSByte_m1653690240_AdjustorThunk
QBl:_opendir
F_c:__ZN5physx2Gu18gjkRelativeRayCastINS0_4BoxVES2_NS0_10ShrunkBoxVES3_EEbRT_RT0_RKNS_6shdfnd3aos15PsMatTransformVERKNS9_6FloatVERKNS9_5Vec3VESI_RSD_RSG_SK_fb
ml:_glGetStringi
PZh:_GUIStyleState_t3801000545_marshal_pinvoke
Wyd:__ZN5physx22NpParticleBaseTemplateINS_15PxParticleFluidENS_15NpParticleFluidEE14setRestitutionEf
izb:__ZN18StreamedBinaryReadILb0EE21TransferSTLStyleArrayI13dynamic_arrayI8Vector4fLj4EEEEvRT_17TransferMetaFlags
Ybe:__ZThn8_N5physx2Gu10ConvexMeshD0Ev
Cph:_X509Chain_get_CertificateCollection_m324631835
EYk:__ZN15dense_hashtableI10KeyWrapperIPK19Il2CppGenericMethodES4_N6il2cpp8metadata23Il2CppGenericMethodHashEN14dense_hash_setIS4_S7_NS6_26Il2CppGenericMethodCompareENSt3__29allocatorIS4_EEE8IdentityES9_SC_EC2ERKSF_j
MHh:_EqualityComparer_1__cctor_m1011898363_gshared
vSd:__ZNK5physx2Sq12BucketPruner7raycastERKNS_6PxVec3ES4_RfRNS0_14PrunerCallbackE
SUe:_Array_InternalArray__IndexOf_TisClientCertificateType_t4001384466_m1168139450_gshared
pkj:__Z49RuntimeInvoker_Int32_t2071877448_Link_t2723257478PK10MethodInfoPvPS2_
qdi:_FieldBuilder_get_Name_m2243491233
YQc:__ZN15dense_hashtableINSt3__24pairIKNS1_IPK10Collider2DS4_EE11Collision2DEES5_NS2_23ColliderPairHashFunctorEN14dense_hash_mapIS5_S7_S9_NS0_8equal_toIS5_EE13stl_allocatorIS8_L18MemLabelIdentifier65ELi16EEE9SelectKeyESC_SF_E14squash_deletedEv
icf:_StringBuilder_Append_m3618697540
HSf:_List_1_GetEnumerator_m3294992758_gshared
Y0:__ZN13ScreenManager16SetScreenTimeoutEi
CPb:__Z18Transfer_BlittableI17RemapPPtrTransferLb0EdEvRK29SerializationCommandArgumentsR31RuntimeSerializationCommandInfo
t9e:_SymmetricAlgorithm_set_IV_m4262655606
YLj:_StencilMaterial__cctor_m2963056855
mLk:_EqualityComparer_1_System_Collections_IEqualityComparer_Equals_m315020809_gshared
jZf:_List_1_Find_m3680710386_gshared
ark:_TextEditor_SelectGraphicalLineStart_m171383526
oEh:_Dictionary_2_OnDeserialization_m2691688467_gshared
oai:_CustomAttributeNamedArgument_GetHashCode_m3715408876_AdjustorThunk
PEe:__Z38Register_UnityEngine_Font_HasCharacterv
Hoh:_X509Certificate2_AppendBuffer_m3517242299
WXa:__Z35IntersectSpherePlaneBoundsOptimizedRKN4math7_float4EPS1_i
mNf:_CultureInfo_get_IsNeutralCulture_m3874876470
hIf:_Delegate_CreateDelegate_m3813023227
YGl:__ZNKSt3__27num_putIcNS_19ostreambuf_iteratorIcNS_11char_traitsIcEEEEE6do_putES4_RNS_8ios_baseEcx
a3i:__Z46RuntimeInvoker_WellKnownObjectMode_t2630225581PK10MethodInfoPvPS2_
M5c:__ZN5physx2Sc8ShapeSim20createLowLevelVolumeEjRKNS_9PxBounds3EjNS_9AABBMgrIdE
knk:_Uri_get_AbsoluteUri_m2120317928
XGl:__ZNKSt3__27num_putIcNS_19ostreambuf_iteratorIcNS_11char_traitsIcEEEEE6do_putES4_RNS_8ios_baseEcl
ZGl:__ZNKSt3__27num_putIcNS_19ostreambuf_iteratorIcNS_11char_traitsIcEEEEE6do_putES4_RNS_8ios_baseEcm
hnl:__ZN6il2cpp2os5posix15PosixWaitObject13InterruptWaitEv
sud:__ZNK5physx7NpCloth22getAngularInertiaScaleEv
nx:__ZN7mecanim6memory16ChainedAllocator10DeallocateEPv
Ojg:_BaseInputModule_IsModuleSupported_m4272494372
s0c:__ZN26IntersectAnyVsMeshCallbackILi1ELb1EE10processHitERKN5physx12PxRaycastHitERKNS1_6PxVec3ES7_S7_RfPKj
aHl:__ZNKSt3__27num_putIcNS_19ostreambuf_iteratorIcNS_11char_traitsIcEEEEE6do_putES4_RNS_8ios_baseEce
WGl:__ZNKSt3__27num_putIcNS_19ostreambuf_iteratorIcNS_11char_traitsIcEEEEE6do_putES4_RNS_8ios_baseEcb
ebd:__ZN5physx2Sc13ConstraintSim15needsProjectionEv
Yca:__Z22CleanupLODGroupManagerPv
gXe:_Array_InternalArray__ICollection_Add_TisContentType_t1028629049_m2984242302_gshared
LNd:__ZN5physx6shdfnd5ArrayINS_2Sc5Scene14SimpleBodyPairENS0_19ReflectionAllocatorIS4_EEE8recreateEj
Xl:_glUniform3fv
LGb:__ZNSt3__218__insertion_sort_3IRN15ResourceManager10Dependency6SorterEPS2_EEvT0_S6_T_
PQf:_Enumerator_System_Collections_IEnumerator_Reset_m3796537546_AdjustorThunk
mEe:_UNITY_FT_Init_Class_tt_service_gx_multi_masters
d4j:_InternalEnumerator_1_System_Collections_IEnumerator_Reset_m3249248421_AdjustorThunk
JSg:_IntComparer_Compare_m3057931085
D0a:__ZNK16LightmapSettings31GetRealtimeLightmapDecodeValuesEv
dS:__ZN5audio5mixer12SetSuspendedERNS0_16AudioMixerMemoryEb
Bsa:__ZN17PersistentManager21UnloadNonDirtyStreamsEv
eHi:__ZL85Component_t3819376471_CustomAttributesCacheGenerator_Component_SendMessage_m913946877P21CustomAttributesCache
XZi:__Z78RuntimeInvoker_Int32_t2071877448_DecimalU26_t1613489971_DecimalU26_t1613489971PK10MethodInfoPvPS2_
hgl:__ZN6il2cpp2vm13LivenessStateC2EP11Il2CppClassjPFvPP12Il2CppObjectiPvES7_PFvvESB_
bgj:__Z41RuntimeInvoker_ColorTweenMode_t1328781136PK10MethodInfoPvPS2_
ZRi:__ZL61Graphic_t2426225576_CustomAttributesCacheGenerator_m_MaterialP21CustomAttributesCache
Wmh:_Oid__ctor_m1936781897
zme:__ZN5physx6shdfnd8PoolBaseINS_24NpPtrTableStorageManager8PtrBlockILi4EEENS0_19ReflectionAllocatorIS4_EEE12allocateSlabEv
S1h:_Object_INTERNAL_CALL_Internal_InstantiateSingleWithParent_m1401308849
kxc:__Z34Register_UnityEngine_GUI_set_depthv
Eak:_ResourceSet__ctor_m1222864106
Z8d:__ZN5physx2Sc5Scene13ccdBroadPhaseEPNS_10PxBaseTaskE
b2f:_Collection_1_System_Collections_IList_get_Item_m3376056117_gshared
YNb:__ZN12NativeBufferI27Converter_SimpleNativeClassI8GradientEE19ProcessAfterReadingER9ArrayInfoP11Il2CppClass
rm:_emscripten_glDepthMask
N0d:__ZN5physx2Gu24PCMMeshContactGeneration15processContactsEhb
Uli:__ZL76UInt16_t986882611_CustomAttributesCacheGenerator_UInt16_TryParse_m1818885113P21CustomAttributesCache
OQf:_Enumerator_VerifyState_m3639069574_gshared
VFa:__ZN4crnd25static_huffman_data_model22prepare_decoder_tablesEv
tsb:__ZN9Texture2D23VirtualRedirectTransferER17RemapPPtrTransfer
qke:__ZN5physx7profile8ZoneImplINS_28PxProfileNameProviderForwardEE9doAddNameEPKctb
L$e:_Array_Sort_TisIl2CppObject_TisIl2CppObject_m1915706600_gshared
F5g:_ModulusRing_Difference_m662924064
G3j:_InternalEnumerator_1_MoveNext_m1869236997_gshared
mqg:_CanvasUpdateRegistry_ObjectValidForUpdate_m855695984
gzg:_InputField_set_onValueChanged_m2406388125
LKi:__ZL95Physics2D_t2540166467_CustomAttributesCacheGenerator_Physics2D_Raycast_m2303387255____maxDepth5P21CustomAttributesCache
Cbg:_ReadOnlyCollection_1_System_Collections_ICollection_get_SyncRoot_m2702046016_gshared
U3:__ZL22CleanupUnityWebStreamsPv
Ohk:_Regex_get_RightToLeft_m529734879
eUb:__Z18Transfer_BlittableI18StreamedBinaryReadILb0EELb0E10ColorRGBAfEvRK29SerializationCommandArgumentsR31RuntimeSerializationCommandInfo
sjh:_ListDictionary_Add_m4276262662
aNl:__Znaj
F6e:_RIPEMD160Managed_GGG_m1639995340
u_l:_emscripten_glEnableClientState__wrapper
gyh:_Enumerator_System_Collections_IEnumerator_get_Current_m1648049763_gshared
Fyl:__ZN6il2cpp6icalls8mscorlib4Mono8Security12Cryptography18KeyPairPersistence15_ProtectMachineEP12Il2CppString
v0i:__Z57RuntimeInvoker_DSAParameters_t1872138834_SByte_t454417549PK10MethodInfoPvPS2_
dEf:_DateTime__cctor_m2173182045
ulb:__ZN11GameManager15ThreadedCleanupEv
FZf:_List_1__ctor_m1337392449_gshared
aXd:__ZN5physxL26solveFriction4_StaticBlockEPKNS_23PxcSolverConstraintDescERNS_16PxcSolverContextE
jlf:_Array_System_Collections_IList_Remove_m2438892375
yPg:_TextWriter__ctor_m2225796097
rWh:_ScriptableObject_Internal_CreateScriptableObject_m1778903390
G$d:__ZN5physx30PxcGetMaterialShapeHeightFieldEPKNS_12PxsShapeCoreES2_RNS_18PxcNpThreadContextEPNS_15PxsMaterialInfoE
fka:__ZNK6Camera16GetStereoEnabledEv
Oag:__ZN21InterfaceFuncInvoker1I19Vector4_t2243707581iE6InvokeEjP11Il2CppClassPvi
Lt:__ZN13AnimationClip9PPtrCurveaSERKS0_
H7b:__ZN12LightManager15InitializeClassEv
I9d:__ZN5physx6shdfnd8PoolBaseINS_2Sc19ParticlePacketShapeENS0_19ReflectionAllocatorIS3_EEE12allocateSlabEv
vYh:_GUIStyle_GetFontInternal_m3509743324
Uac:__ZN18ScriptingArgumentsC2Ev
kSj:_TimeZone_IsDaylightSavingTime_m875882154
hal:__ZN13Il2CppHashMapINSt3__24pairIPK9FieldInfoP11Il2CppClassEEj17ReflectionMapHashIS7_E19ReflectionMapEqualsIS7_ENS0_9allocatorINS1_IK10KeyWrapperIS7_EjEEEEEC2EjRKS9_RKSB_
Mdj:__Z93RuntimeInvoker_Int32_t2071877448_Rect_t3681755626_Int32_t2071877448_Il2CppObject_Il2CppObjectPK10MethodInfoPvPS2_
pZj:_ArrayReadOnlyList_1_Insert_m503707439_gshared
AVl:_emscripten_glBlendFuncSeparate__wrapper
m_i:__Z52RuntimeInvoker_Single_t2076509932_Decimal_t724701077PK10MethodInfoPvPS2_
zah:_CipherSuiteCollection_System_Collections_IList_set_Item_m750275607
b8e:_SHA1CryptoServiceProvider__ctor_m3127563759
gr:__ZN8Vector3f8TransferI14SafeBinaryReadEEvRT_
tWi:__ZL103BaseVertexEffect_t2504093552_CustomAttributesCacheGenerator_BaseVertexEffect_ModifyVertices_m3446986347P21CustomAttributesCache
Jp:FUNCTION_TABLE_ii
Uyh:_Enumerator_MoveNext_m335649778_AdjustorThunk
mlb:__ZN10TagManager8TransferI18StreamedBinaryReadILb0EEEEvRT_
GDc:__Z18Transfer_BlittableI9JSONWriteLb0E8BitFieldEvRK29SerializationCommandArgumentsR31RuntimeSerializationCommandInfo
HVj:_UInt32_ToString_m3894907091_AdjustorThunk
mgc:__Z35scripting_class_get_field_from_nameP11Il2CppClassPKc
PTl:b44
Jb:invoke_diiii
vLc:__ZNK13BoxCollider2D26GetTypeInfoVirtualInternalEv
x$c:__ZL17sweepVolumeVsMeshPKN5physx3Cct9SweepTestEPKNS0_11TouchedMeshERNS0_12SweptContactERKNS_6PxVec3ERKNS_10PxGeometryERKNS_11PxTransformEjPKNS_10PxTriangleEj
Bwh:_ShimEnumerator_get_Key_m616785465_gshared
Z_g:_SmallXmlParser_Error_m1832158746
Bsh:_RepeatContext_get_IsLazy_m1620488045
Hnd:__ZNK5physx12NpBatchQuery19getFilterShaderDataEv
$3d:__ZN5physx2Gu31checkOverlapOBB_heightFieldGeomERKNS_10PxGeometryERKNS_11PxTransformERKNS0_3BoxE
Uok:_SliderHandler_SliderState_m3520725942_AdjustorThunk
A0b:__ZN9ShaderLab20SerializedSubProgram8TransferI18StreamedBinaryReadILb0EEEEvRT_
_Og:_StreamAsyncResult_get_AsyncWaitHandle_m4218169359
r$h:_LayerMask_op_Implicit_m2135076047
KTl:b40
nUc:__ZN5physx2Gu23findRotationMatrixFromZERKNS_6PxVec3E
hWa:__Z9EndJobSetR8JobFence11JobPriority
h3e:_Array_InternalArray__get_Item_TisContactPoint2D_t3659330976_m825151777_gshared
sFe:__ZN2UI13CanvasManager9AddCanvasEPNS_6CanvasE
e2a:__ZN14qsort_internal6_QSortIP21ForwardRenderPassDataiN23ForwardShaderRenderLoop18RenderObjectSorterILb0EEEEEvT_S6_T0_T1_
LVa:__ZNK6Camera22CalculateRenderingPathEv
uEc:__ZN9JSONWrite8TransferI5RectTIfEEEvRT_PKc17TransferMetaFlags
xMd:__ZN5physx13NpVolumeCache10invalidateEv
d9g:_ContentInfo_get_Content_m1802070908
tt:__ZN15SerializeTraitsIKN4math7_float4EE8TransferI14SafeBinaryReadEEvRS2_RT_
ZOb:__ZL12InvokeMethodI17RemapPPtrTransferEvRK29SerializationCommandArgumentsR31RuntimeSerializationCommandInfo
y2g:_X509Certificate_get_PublicKey_m714501701
oBg:_U3CMouseDragOutsideRectU3Ec__Iterator1_System_Collections_IEnumerator_get_Current_m561728752
Fwe:_tt_sbit_decoder_load_image
Jia:__Z14IsHalfRTFormat19RenderTextureFormat
cgf:_String_LastIndexOf_m290475879
tIc:__ZN15b2DistanceJointD0Ev
jyg:_Image_get_layoutPriority_m2151045813
Zs:__ZNSt3__26vectorI14AnimationEvent13stl_allocatorIS1_L18MemLabelIdentifier25ELi16EEE8__appendEj
yij:__Z71RuntimeInvoker_Void_t1841601450_CornerU26_t4129226442_Int32_t2071877448PK10MethodInfoPvPS2_
qQg:_TextReader_Read_m975794707
bvc:__ZNSt3__24listIN10GUIManager12SortedScriptE11memory_poolIS2_EE6__sortI13OldSortScriptEENS_15__list_iteratorIS2_PvEESA_SA_jRT_
l6c:__ZN5physx6shdfnd5ArrayIPvNS0_19ReflectionAllocatorINS_2Sc10NPhaseCore16ClothListElementEEEE15growAndPushBackERKS2_
RVj:_UInt64_System_IConvertible_ToChar_m1930853313_AdjustorThunk
Hdh:_TlsClientCertificate_SendCertificates_m1096074091
Eog:_UIBehaviour_OnCanvasHierarchyChanged_m762109874
lxf:_SyncHashtable_get_Item_m408601391
xxi:__ZL45DSA_t903174880_CustomAttributesCacheGeneratorP21CustomAttributesCache
Kbe:__ZN5physx2Gu10ConvexMeshD0Ev
G1f:_Stack_1_System_Collections_ICollection_CopyTo_m2104527616_gshared
zul:_GC_add_map_entry
ekf:_StringBuilder_AppendFormat_m1666670800
m3a:__ZN18DeferredRenderLoop13RenderGBufferEP13RenderTexturePS1_b8JobFencePK25DeferredRenderLoopScratchRi
ZEl:__ZNSt3__219__iostream_categoryD0Ev
Qbj:__Z67RuntimeInvoker_Double_t4078015681_Playable_t3667545548_Il2CppObjectPK10MethodInfoPvPS2_
Yv:__ZN13AnimationClip8TransferI17RemapPPtrTransferEEvRT_
_Pb:__Z18Transfer_BlittableI17RemapPPtrTransferLb1E8BitFieldEvRK29SerializationCommandArgumentsR31RuntimeSerializationCommandInfo
Jel:__ZN6il2cpp6icalls8mscorlib6System9ThreadingL11ThreadStartEPv
mzl:__ZN6il2cpp2vm9LastError31InitializeLastErrorThreadStaticEv
nMa:__ZN9GfxDevice12DeleteBufferEP9GfxBuffer
Xfg:_ReadOnlyCollection_1_System_Collections_IList_Remove_m3878418841_gshared
lzg:_InputField_EnforceContentType_m1902926812
y$a:__ZN14qsort_internal31_FindAndMovePivotToLastPositionIP15RODataDepthPassi17ROSorterDepthPassEEvT_S4_T0_T1_
zpc:__Z97Register_UnityEngine_Experimental_Director_Playable_INTERNAL_CALL_SetInputWeightFromIndexInternalv
eja:__ZN12CachedReader10Align4ReadEv
fNc:__ZN15b2WorldManifold10InitializeEPK10b2ManifoldRK11b2TransformfS5_f
Uag:_Collection_1_CopyTo_m42272870_gshared
Jcj:__Z154RuntimeInvoker_RaycastHit2D_t4063908774_Vector2_t2243707579_Vector2_t2243707579_Single_t2076509932_Int32_t2071877448_Single_t2076509932_Single_t2076509932PK10MethodInfoPvPS2_
Xhl:__ZN6il2cpp2vm9Exception28GetMarshalDirectiveExceptionEPKc
VTg:_MulticastDelegate_GetObjectData_m3187757658
Npg:_CanvasScaler_set_referencePixelsPerUnit_m1188599784
Fgg:_ReadOnlyCollection_1_System_Collections_IList_get_Item_m887129009_gshared
bpd:__ZN5physx2Sc14ConstraintCore13setBreakForceEff
u9:__Z26scripting_class_is_genericP11Il2CppClass
W4b:__ZNK28MonoBehaviourPropertyBinding12SetPPtrValueERKN11UnityEngine9Animation10BoundCurveEi
Zpe:__ZN20TextRenderingPrivate8FontImpl8TransferI14SafeBinaryReadEEvRT_
iTk:__ZL25UnresolvedVirtualCall_164P12Il2CppObject20UIVertex_t1204258818PK10MethodInfo
Whj:__Z59RuntimeInvoker_Boolean_t3825574718_KeyValuePair_2_t38854645PK10MethodInfoPvPS2_
DLb:__ZN9Scripting35ErrorMessageForUnsupportedEnumFieldEP9FieldInfo
JJd:__ZN5physx7NpScene15removeAggregateERNS_11PxAggregateEb
CYh:_GUIStyle_Draw_m4006459684
NGf:_Decimal_System_IConvertible_ToType_m3828527724_AdjustorThunk
_Aa:__ZN9GfxDevice17ImmediateTexCoordEifff
njk:_Parser_ParseRegularExpression_m2390577313
jye:_ft_black_new
NIl:__ZNSt3__28time_putIwNS_19ostreambuf_iteratorIwNS_11char_traitsIwEEEEED2Ev
dVg:_OperatingSystem_Clone_m1943707477
xkk:_Alternation_AddAlternative_m623421443
cqh:_X509CertificateEnumerator_System_Collections_IEnumerator_Reset_m327358896
Roj:__Z36RuntimeInvoker_Enumerator_t402048720PK10MethodInfoPvPS2_
vXe:_Array_InternalArray__ICollection_CopyTo_TisKeyValuePair_2_t1174980068_m1818152223_gshared
Vbf:_Hash__ctor_m2554411450
l9e:_SHAConstants__cctor_m2781430679
rib:__ZN17FileSystemHandler4CopyER13FileEntryDataS1_
Sdf:_Single_System_IConvertible_ToDateTime_m2510003459_AdjustorThunk
CIf:_Delegate_RemoveImpl_m3666700529
xTl:_emscripten_glUniform4f__wrapper
Njh:_NameObjectCollectionBase_OnDeserialization_m3478980442
Jxg:_Image_get_mainTexture_m1027716278
Zyg:_InputField_set_caretColor_m2252440840
a7d:__ZN5physx6shdfnd5ArrayINS_25PxcThresholdStreamElementENS0_19ReflectionAllocatorIS2_EEE8recreateEj
cG:__ZN8Animator8TransferI19StreamedBinaryWriteILb0EEEEvRT_
jXa:__ZNK6Camera16GetProjectionFarEv
E6a:__Z24InverseTransformRotationRK23TransformAccessReadOnlyRKN4math7_float4E
MS:__ZN11AudioSource6UpdateEv
hrf:_Char_GetHashCode_m2343577184
Lpk:_StateMachineBehaviour_OnStateExit_m1490844990
NAa:__ZN9GfxDevice21ResetDynamicResourcesEv
azl:__ZN6il2cpp2os9FastMutex4LockEv
tvd:__ZN5physx7NpCloth21setCollisionMassScaleEf
o4d:__ZN5physx6shdfnd5ArrayINS_7PxPlaneENS0_19ReflectionAllocatorIS2_EEE8recreateEj
YNk:_Comparison_1_EndInvoke_m4174686984_gshared
lPh:_StreamingContext__ctor_m3063421596_AdjustorThunk
bpe:__ZN13PhysicsModule17GetRigidBodyStateERK9RigidbodyPN8IPhysics14RigidBodyStateE
lNe:__ZN20UnityConnectSettings23VirtualRedirectTransferER18StreamedBinaryReadILb1EE
Kfg:_ReadOnlyCollection_1_System_Collections_Generic_IListU3CTU3E_Insert_m3054305464_gshared
Umi:__ZL70IntPtr_t_CustomAttributesCacheGenerator_IntPtr_op_Explicit_m3896766622P21CustomAttributesCache
ASk:__ZL25UnresolvedVirtualCall_128P12Il2CppObject17Color_t2020392075PK10MethodInfo
SF:__ZN8Animator8TransferI14SafeBinaryReadEEvRT_
YWi:__ZL59PixelPerfectScale_t186103817_CustomAttributesCacheGeneratorP21CustomAttributesCache
Wjb:__ZN17GlobalGameManager23VirtualRedirectTransferER18StreamedBinaryReadILb0EE
uVe:_Array_InternalArray__IndexOf_TisTypeTag_t141209596_m2882894956_gshared
hLj:_Slider_get_value_m4182660424
kHc:__ZNK14b2CapsuleShape5CloneEP16b2BlockAllocator
ty:__ZN17AnimationPlayable34CollectAnimatorControllerPlayablesER13dynamic_arrayIP26AnimatorControllerPlayableLj4EE
OV:__ZN16BaseVideoTexture19UpdateVideoTexturesEv
Icj:__Z79RuntimeInvoker_RaycastHit2D_t4063908774_Vector2_t2243707579_Vector2_t2243707579PK10MethodInfoPvPS2_
dua:__ZNK16LightmapSettings23HasLightProbeTetrahedraEv
Sch:_Context_get_WriteSequenceNumber_m243492531
zxb:__ZN6Sprite23VirtualRedirectTransferER19StreamedBinaryWriteILb0EE
Gsi:__ZL51Assembly_t4268412390_CustomAttributesCacheGeneratorP21CustomAttributesCache
Wff:_String_LastIndexOfAny_m1473637802
gsc:__Z38Transform_CUSTOM_INTERNAL_set_positionP12Il2CppObjectRK8Vector3f
OXj:_Version_CompareTo_m596235198
YUf:_List_1_System_Collections_ICollection_CopyTo_m3062449209_gshared
vla:__ZNK9ShaderLab7Program19HasMatchingVariantsERK13dynamic_arrayI16ShaderKeywordSetLj4EE
uE:__ZN15SerializeTraitsIN4math4trsXEE8TransferI8BlobSizeEEvRS1_RT_
Se:_emscripten_glVertexPointer
wNa:__ZNSt3__26__treeI20DeviceDepthStateGLES11memcmp_lessIS1_S1_ENS_9allocatorIS1_EEE7destroyEPNS_11__tree_nodeIS1_PvEE
Pug:_Graphic__ctor_m821539719
gUf:_List_1_System_Collections_Generic_ICollectionU3CTU3E_get_IsReadOnly_m1614481629_gshared
g1k:__ZN6il2cpp2vm7Runtime47RaiseExecutionEngineExceptionIfMethodIsNotFoundEPK10MethodInfo
H2a:__Z17GetFrustumPortionPK8Vector3fffPS_
$8c:__ZNK5physx2Gu22SupportMapRelativeImplINS0_4BoxVEE18doWarmStartSupportEiRNS_6shdfnd3aos5Vec3VE
eXj:_UnauthorizedAccessException__ctor_m259001183
S7e:__ZN18VirtActionInvoker1IP30AsymmetricAlgorithm_t784058677E6InvokeEjPvS1_
stk:_TouchScreenKeyboard_set_text_m3456054179
Gsg:_DefaultControls_CreateDropdown_m1384069408
SUk:__ZNK15dense_hashtableINSt3__24pairIK10KeyWrapperIPK22Il2CppGenericParameterEP11Il2CppClassEES6_N6il2cpp5utils11PointerHashIS4_EEN14dense_hash_mapIS6_S9_SE_NS0_8equal_toIS6_EENS0_9allocatorISA_EEE9SelectKeyESH_SJ_E5beginEv
RMl:__ZNSt3__26locale5__imp11make_globalEv
tmg:_PointerEventData_get_clickCount_m4064532478
Ddg:_ReadOnlyCollection_1_System_Collections_Generic_ICollectionU3CTU3E_get_IsReadOnly_m3508872969_gshared
zpb:__ZN14DirectorPlayerD0Ev
PUg:_NumberFormatter_NumberToString_m3855209845
uIk:_UnityEvent_1_GetDelegate_m4062537313_gshared
DAk:_X509Stores_Open_m2057354563
_Lf:_CCGregorianCalendar_is_leap_year_m567513478
O4k:__ZNK19ReflectionMapEqualsINSt3__24pairIPK14Il2CppAssemblyP11Il2CppClassEEEclERK10KeyWrapperIS7_ESC_
Bnh:_Oid_get_Value_m2271181078
nnf:_Attribute_IsDefined_m2118467641
blg:_ExecuteEvents_Execute_m898902863
s_j:_InternalEnumerator_1_System_Collections_IEnumerator_get_Current_m3125080595_gshared
v8f:_Collection_1_System_Collections_IList_Add_m2091889616_gshared
ebc:__ZN16StreamedResource8TransferI24GenerateTypeTreeTransferEEvRT_
LIc:__ZN11b2GearJoint4DumpEv
fug:_DropdownItem_OnPointerEnter_m761897861
jHb:__ZN19StreamedBinaryWriteILb0EE8TransferINSt3__24pairI8UnityStr4PPtrI6ObjectEEEEEvRT_PKc17TransferMetaFlags
K2c:__ZN5physx3Cct10Controller13onOriginShiftERKNS_6PxVec3E
vKa:__ZN10Matrix3x3f15InvertTransposeEv
tAh:_ValueCollection_CopyTo_m2978431059_gshared
KQe:_Array_InternalArray__ICollection_Remove_TisKeyValuePair_2_t1174980068_m2768765894_gshared
mSe:_Enumerable_Where_TisIl2CppObject_m4266917885_gshared
LBc:__ZN6HelperI8JSONRead23TransferArrayField_InfoE24SerializationFunctionForERKS1_R23StaticTransferFieldInfoPb
pTa:__Z11IsBatchmodev
_6k:__ZNK15dense_hashtableINSt3__24pairIK10KeyWrapperINS1_IPK10MethodInfoP11Il2CppClassEEEjEES9_17ReflectionMapHashIS8_EN14dense_hash_mapIS9_jSD_19ReflectionMapEqualsIS8_ENS0_9allocatorISB_EEE9SelectKeyESG_SI_E10test_emptyERK24dense_hashtable_iteratorISB_S9_SD_SK_SG_SI_E
Gyk:_PKCS12_CertificateSafeBag_m3272197807
p5f:_Collection_1_set_Item_m2199807215_gshared
KVd:__ZN5physx2Gu19_gjkRelativeRayCastINS0_9TriangleVENS0_11ConvexHullVEEEbRT_RT0_RKNS_6shdfnd3aos15PsMatTransformVERKNS9_6FloatVERKNS9_5Vec3VESI_RSD_RSG_SK_f
AOb:__Z29Transfer_Blittable_ArrayFieldI14SafeBinaryRead8Vector3fEvRT_R9ArrayInfoRK23StaticTransferFieldInfo
TUj:_UInt32_System_IConvertible_ToBoolean_m91295134
wPj:_Monitor_Monitor_test_synchronised_m1542589500
jNi:__ZL68RuntimePlatform_t1869584967_CustomAttributesCacheGenerator_WP8PlayerP21CustomAttributesCache
are:__ZN20TextRenderingPrivate8FontImpl18ResetCachedTextureEv
nmi:__ZL75String_t_CustomAttributesCacheGenerator_String_Concat_m626692867____values0P21CustomAttributesCache
FHi:__ZL98GameObject_t1756533147_CustomAttributesCacheGenerator_GameObject_SendMessage_m71956653____options2P21CustomAttributesCache
V0g:_SymmetricTransform_TransformFinalBlock_m4192185386
OFg:_TextInfo__ctor_m1263401274
X_d:__ZNK5physx19ActorAABBUpdateTask7getNameEv
SJk:_ListPool_1_Release_m3047738410_gshared
qtk:_TouchScreenKeyboard_Open_m913506328
rtl:_GC_print_finalization_stats
Gch:_Context_get_SecurityProtocolFlags_m3295551796
Izh:_ValueCollection__ctor_m927733289_gshared
RIk:_UnityEvent_4_FindMethod_Impl_m4079512420_gshared
eKc:__ZNK12b2WheelJoint10GetAnchorBEv
m4j:_InternalEnumerator_1__ctor_m2981879621_AdjustorThunk
djc:__Z53Register_UnityEngine_Behaviour_get_isActiveAndEnabledv
PGi:__ZL87Component_t3819376471_CustomAttributesCacheGenerator_Component_GetComponent_m4225719715P21CustomAttributesCache
xKb:__ZNK13MonoBehaviour26GetTypeInfoVirtualInternalEv
UKk:_EqualityComparer_1__ctor_m3971803374_gshared
blb:__ZNSt3__26vectorIN4core12basic_stringIcNS1_20StringStorageDefaultIcEEEENS_9allocatorIS5_EEE8__appendEj
vJl:__ZNKSt3__210moneypunctIwLb0EE13do_pos_formatEv
N3k:_il2cpp_gc_collect
jGb:__ZN26PlayerSettingsSplashScreen8TransferI17RemapPPtrTransferEEvRT_
Kqe:__ZN20TextRenderingPrivate8FontImpl8TransferI17RemapPPtrTransferEEvRT_
d2j:_InternalEnumerator_1_get_Current_m3922357178_gshared
Q1k:__ZN6il2cpp6icalls8mscorlib6SystemL17CollectTypeFieldsINS_5utils10functional10TrueFilterEEEvP11Il2CppClassPKS7_iRNSt3__26vectorIP9FieldInfoNSB_9allocatorISE_EEEERKT_
hRi:__ZL72ColorBlock_t2652774230_CustomAttributesCacheGenerator_m_HighlightedColorP21CustomAttributesCache
B9c:__ZN5physx3Scb5Scene20addArticulationJointERNS0_17ArticulationJointE
LAb:__ZN7SubMesh8TransferI18StreamedBinaryReadILb1EEEEvRT_
CSj:_Type_get_IsValueType_m1733572463
tKd:__ZN5physx7NpScene14resetFilteringERNS_12PxRigidActorEPKPNS_7PxShapeEj
evb:__Z13GetTagManagerv
h$j:_InternalEnumerator_1_Dispose_m1748410190_AdjustorThunk
w1i:__Z127RuntimeInvoker_Void_t1841601450_IntPtr_t_Int32_t2071877448_SByte_t454417549_Int32_t2071877448_SByte_t454417549_SByte_t454417549PK10MethodInfoPvPS2_
lRe:_Array_InternalArray__ICollection_Remove_TisUInt16_t986882611_m65494986_gshared
Wdg:_ReadOnlyCollection_1_IndexOf_m3054637117_gshared
_E:__ZN11UnityEngine9Animation37HasGenericRootTransformPropertyValuesERKNS0_30AnimatorGenericBindingConstantEb
ZW:__ZN11UnityEngine15CloudWebService17CloudJobSchedulerD0Ev
Oef:_String_System_IConvertible_ToBoolean_m2696751322
Lsa:__ZN18LoadSceneOperation7PerformEv
pqe:__ZNSt3__26vectorI8UnityStr13stl_allocatorIS1_L18MemLabelIdentifier34ELi16EEE8__appendEj
k2j:_InternalEnumerator_1__ctor_m3228997263_AdjustorThunk
DTh:_GUILayer_INTERNAL_CALL_HitTest_m693512502
QTc:__ZL30GeomMTDCallback_CapsuleCapsuleRN5physx6PxVec3ERfRKNS_10PxGeometryERKNS_11PxTransformES5_S8_
$y:__ZN7mecanim9animation17DestroyClipOutputEPNS0_10ClipOutputERNS_6memory9AllocatorE
Rng:__ZN16VirtFuncInvoker1IfP8String_tE6InvokeEjPvS1_
ZM:__ZL16FMOD_ErrorString11FMOD_RESULT_464
otj:_Camera_get_pixelRect_m2084185953
jUk:__ZL25UnresolvedVirtualCall_219P12Il2CppObjecti20Playable_t3667545548PK10MethodInfo
f0c:__ZL18intersectAnyVsMeshILi0EEbPKN5physx2Gu6SphereEPKNS1_7CapsuleEPKNS1_3BoxERKNS1_13RTreeMidphaseERKNS0_11PxTransformERKNS0_11PxMeshScaleEP14LimitedResults
QCf:_Convert_ToString_m3884855475
dRj:_TimeSpan__ctor_m1888018443_AdjustorThunk
kca:__ZL23AddConflictingClassIMPL11ClassIDTypeS_
Pw:__ZN19StreamedBinaryWriteILb0EE21TransferSTLStyleArrayI22OffsetPtrArrayTransferIN7mecanim9animation10ValueDeltaEEEEvRT_17TransferMetaFlags
gxf:_SyncHashtable_get_Count_m3694444082
rgd:__ZN5physx14NpArticulation6wakeUpEv
icl:__ZNSt3__26vectorINS_12basic_stringIcNS_11char_traitsIcEENS_9allocatorIcEEEENS4_IS6_EEE8allocateEj
sfj:__Z131RuntimeInvoker_Void_t1841601450_Il2CppObject_AnimatorStateInfo_t2577870592_Int32_t2071877448_AnimatorControllerPlayable_t4078305555PK10MethodInfoPvPS2_
ULa:__ZN22VertexDeclarationCache5ClearEv
cZl:_emscripten_glUniform2i__wrapper
sBf:_Double_Parse_m2344589511
MVa:__ZN6Camera24PrepareCullingParametersERK23CameraCullingParameters13RenderingPathR11CullResults
A9i:__Z54RuntimeInvoker_Vector3_t2243707580_Vector3_t2243707580PK10MethodInfoPvPS2_
jdj:__Z54RuntimeInvoker_Vector2_t2243707579_Vector2_t2243707579PK10MethodInfoPvPS2_
zyi:__ZL84Evidence_t1407710183_CustomAttributesCacheGenerator_Evidence_GetHashCode_m1260371757P21CustomAttributesCache
JZa:__ZN13MonoBehaviour30InvokeMethodOrCoroutineCheckedE21ScriptingMethodIl2CppP12Il2CppObjectPP15Il2CppException
Ndg:_ReadOnlyCollection_1_System_Collections_ICollection_get_IsSynchronized_m2344337514_gshared
ePb:__Z26Transfer_UnityEngineObjectI17RemapPPtrTransferLb0EEvRK29SerializationCommandArgumentsR31RuntimeSerializationCommandInfo
KLi:__ZL92GUILayout_t2579273657_CustomAttributesCacheGenerator_GUILayout_Label_m3466110979____options1P21CustomAttributesCache
fBk:_BlockerScript_Update_m951427639
egf:_String_IsNullOrEmpty_m2802126737
eqf:_Byte_Parse_m1442736478
rCa:__ZN13GfxDeviceGLES15OnDeviceCreatedEb
vJg:_Int64_Parse_m3258022240
Rff:_String_IndexOfOrdinal_m3591623977
S7a:__ZN10GameObject12SetHideFlagsEi
oRh:_CryptoConfig_EncodeLongNumber_m2352037787
hTj:_Type_GetMethod_m475234662
yef:_Single_GetHashCode_m3102305584
VNf:_KeyValuePair_2__ctor_m1877755778_AdjustorThunk
nck:_ActivationServices_get_ConstructionActivator_m1726426854
$id:__ZNK5physx15NpActorTemplateINS_18PxArticulationLinkEE22getClientBehaviorFlagsEv
cBi:__ZL76Convert_t2607082565_CustomAttributesCacheGenerator_Convert_ToChar_m245844937P21CustomAttributesCache
uAi:__ZL52Activator_t1850728717_CustomAttributesCacheGeneratorP21CustomAttributesCache
tul:_GC_adj_bytes_allocd
VLj:_SpriteState_t1353336012_marshal_pinvoke_cleanup
aXe:_Array_InternalArray__ICollection_Add_TisKeyframe_t1449471340_m887263954_gshared
Xce:__ZN5physx20InternalTriangleMesh16allocateVerticesEj
Iuk:_UIVertex__cctor_m803910084
IYe:_Array_InternalArray__Insert_TisDateTime_t693205669_m1484996356_gshared
cVf:_List_1_System_Collections_IList_Remove_m3933652540_gshared
QFh:_DefaultComparer_GetHashCode_m926674183_gshared
lOg:_MonoIO_get_ConsoleInput_m2976499023
Kfi:_OpCode_get_Size_m481593949_AdjustorThunk
Euf:_BitArrayEnumerator_checkVersion_m3839504595
Elf:_Array_GetUpperBound_m1352329707
PSa:__ZZ23InitPlayerLoopCallbacksvEN36UpdateScriptRunBehaviourUpdatestruct7ForwardEv
dZd:__ZN5physx6shdfnd5ArrayINS_17PxcBroadPhasePairENS0_19ReflectionAllocatorIS2_EEE8recreateEj
Z1e:_Mesh_SetListForChannel_TisIl2CppObject_m2261448912_gshared
g9i:__Z61RuntimeInvoker_Void_t1841601450_Byte_t3683104436_Il2CppObjectPK10MethodInfoPvPS2_
lbh:_RecordProtocol__ctor_m168945279
WFf:_DateTimeOffset_Equals_m3728302791_AdjustorThunk
r_c:__ZThn4_N16RayRTreeCallbackILi1ELb0EED1Ev
Mfe:__ZN5physx17ConvexMeshBuilder22computeInternalObjectsEv
QZh:_GUIStyleState_t3801000545_marshal_pinvoke_back
s2a:__ZN20SphericalHarmonicsL219AddDirectionalLightERKN4math7_float3ERKNS0_7_float4E
Fbe:__ZN5physx13BigConvexDataD2Ev
aSj:_TimeSpan_op_GreaterThanOrEqual_m3997050520
VBi:__ZL77Convert_t2607082565_CustomAttributesCacheGenerator_Convert_ToUInt16_m36213644P21CustomAttributesCache
J4:__Z26ScheduleJobForEachInternalR8JobFencePFvPvjES1_iPFvS1_E11JobPriority
Mnh:_OidEnumerator_MoveNext_m1889267785
qfc:__ZN9Scripting18RaiseMonoExceptionEPKcz
_Ji:__ZL76Physics_t634932869_CustomAttributesCacheGenerator_Physics_Raycast_m780162053P21CustomAttributesCache
isb:__ZN9Texture2D8TransferI19StreamedBinaryWriteILb0EEEEvRT_
yJb:__ZN24RingBufferMemoryFileData6UnlockEPv
MWh:_GUISkin_set_box_m877476512
iug:_OptionData__ctor_m3070653720
HJk:_TweenRunner_1_StartTween_m3792842064_gshared
c8b:__ZN9ShaderLab16FastPropertyName15InitBy28BitHashEj
_df:_Single_System_IConvertible_ToInt32_m3269519527_AdjustorThunk
gWk:__ZN6il2cpp2vm5Class7GetNameEP11Il2CppClass
PXb:__ZN13MonoBehaviour18TransferEngineDataI18StreamedBinaryReadILb0EEEE4PPtrI10MonoScriptERT_
h8e:_SHA1Internal_ProcessBlock_m4070037334
Qvl:__ZN6il2cpp6icalls8mscorlib6System10Reflection14MonoMethodInfo15get_method_infoE12Il2CppIntPtrP16Il2CppMethodInfo
Kkf:_UTF32Encoding_GetDecoder_m2714144074
qKh:_ObjRef_GetObjectData_m3081609242
g$d:__ZN5physx20updateBodyShapeAABBsEPKjjS1_PKNS_17PxcAABBDataStaticEPNS_11IntegerAABBEj
$zb:__ZN17PackedFloatVector12UnpackFloatsEPfiiii
fzi:__ZL113EncoderReplacementFallback_t4228544112_CustomAttributesCacheGenerator_EncoderReplacementFallback__ctor_m517300448P21CustomAttributesCache
Nbg:_ReadOnlyCollection_1__ctor_m3671019970_gshared
ZWf:_List_1_System_Collections_Generic_ICollectionU3CTU3E_get_IsReadOnly_m3511020562_gshared
RBa:__ZN13GfxDeviceGLES21DestroyComputeProgramER12ObjectHandleI18ComputeProgram_TagPvE
RAf:_Convert_ToDecimal_m2007036836
$ca:__ZN17UniqueIDGenerator16DestroyPureIndexEj
TZb:__ZN14SafeBinaryRead21TransferSTLStyleArrayINSt3__26vectorIN9ShaderLab20SerializedSubProgram12UAVParameterENS1_9allocatorIS5_EEEEEEvRT_17TransferMetaFlags
uek:_Context_NotifyDynamicSinks_m1367144344
MHi:__ZL126QualitySettings_t3238033062_CustomAttributesCacheGenerator_QualitySettings_IncreaseLevel_m3146283550____applyExpensiveChanges0P21CustomAttributesCache
T$:__ZNK13BaseAllocator10IsAssignedEv
qZ:__ZN24TextDOMTransferWriteBaseI9JSONWriteE12PushMetaFlagEi
R1g:__ZN16VirtFuncInvoker1I25DSAParameters_t1872138834bE6InvokeEjPvb
_ud:__ZN5physx7NpCloth22removeCollisionCapsuleEj
mdh:_Context_get_Current_m2717045324
vXi:__Z45RuntimeInvoker_Int16_t4041245914_Il2CppObjectPK10MethodInfoPvPS2_
pzk:_X509Certificate_GetSubjectName_m1189079906
Stg:_Dropdown_DestroyItem_m234623804
rbh:_TlsClientCertificateVerify__ctor_m110646389
Yqa:__ZN6prcoreL26RemapGenericIntegerToFloatI17TexFormatARGB888815TexFormatRFloatEEvPKNS_9InnerInfoE
A$:__ZN5Mutex6UnlockEv
Orc:__Z60Register_UnityEngine_RenderTexture_Internal_SetSRGBReadWritev
Dek:_Context_GetServerContextSinkChain_m390126977
Ybl:__ZN6il2cpp2vm17TypeNameParseInfoD2Ev
j7k:__ZNK15dense_hashtableINSt3__24pairIK10KeyWrapperINS1_IPK11Il2CppImageP11Il2CppClassEEEjEES9_17ReflectionMapHashIS8_EN14dense_hash_mapIS9_jSD_19ReflectionMapEqualsIS8_ENS0_9allocatorISB_EEE9SelectKeyESG_SI_E13find_positionERSA_
h7d:__ZN5physx18PxsSolverStartTask16articulationTaskEv
R$e:_Array_Sort_TisIl2CppObject_m143182644_gshared
TPg:_StringReader_Read_m513112775
kub:__ZNK8Renderer8GetLayerEv
Lad:__ZN5physx6shdfnd4sortIPvNS0_4LessIS2_EENS0_19ReflectionAllocatorINS_2Cm5BlockIS2_Lj16EEEEEEEvPT_jRKT0_RKT1_j
J1c:__ZN5physx3Cct17CapsuleController18setNonWalkableModeENS_27PxControllerNonWalkableMode4EnumE
Xad:__ZN5physx2Sc11InteractionD2Ev
C3f:_Collection_1_Add_m2613548553_gshared
WA:__ZN7mecanim9animation22DestroyBlendTreeOutputEPNS0_15BlendTreeOutputERNS_6memory9AllocatorE
P2a:__ZNK6Camera20GetReplacementShaderEv
Aod:__ZN18MultiQueryCallbackIN5physx12PxRaycastHitEE6invokeERfPKNS0_2Sq13PrunerPayloadEj
GGf:_Decimal__ctor_m569480123_AdjustorThunk
Xkh:_HttpWebRequest__cctor_m3013631978
CUc:__ZN5physx2Gu9ContainerC2Ev
a_b:__ZNSt3__26vectorIN9ShaderLab20SerializedSubProgram14ConstantBufferENS_9allocatorIS3_EEE7reserveEj
Kua:__ZL23stbir__calculate_memoryP11stbir__info
ypg:_Button_OnPointerClick_m2524861687
Y7i:__Z90RuntimeInvoker_Boolean_t3825574718_Int32_t2071877448_Int32U26_t455636984_Int32_t2071877448PK10MethodInfoPvPS2_
u_g:_KeyGeneratedEventHandler_EndInvoke_m1587195139
aGd:__ZN5physx15NpActorTemplateINS_13PxRigidStaticEE13setActorFlagsENS_7PxFlagsINS_11PxActorFlag4EnumEtEE
YHj:_Scrollbar_FindSelectableOnRight_m3219495255
Rq:__ZN9Behaviour11FixedUpdateEv
oHb:__ZNK30RuntimeInitializeOnLoadManager26GetTypeInfoVirtualInternalEv
KFe:__ZNSt3__227__insertion_sort_incompleteIRPFbPN2UI6CanvasES3_EPS3_EEbT0_S8_T_
zGc:__ZNK9rapidjson12GenericValueINS_4UTF8IcEE13JSONAllocatorE6AcceptINS_12PrettyWriterI16TempBufferWriterS2_S2_S3_EEEEbRT_
sDd:__ZN5physx19NpRigidBodyTemplateINS_14PxRigidDynamicEE11attachShapeERNS_7PxShapeE
FIi:__ZL106Material_t193706927_CustomAttributesCacheGenerator_Material_Internal_CreateWithShader_m4029381963____mono0P21CustomAttributesCache
rYe:_Array_InternalArray__ICollection_CopyTo_TisVector3_t2243707580_m509487340_gshared
Bwg:_GridLayoutGroup_get_constraint_m1351424857
cCc:__ZL26Transfer_SimpleNativeClassI8JSONRead10RectOffsetLb1EEvRK29SerializationCommandArgumentsR31RuntimeSerializationCommandInfo
WIe:__Z44CanvasRenderer_CUSTOM_INTERNAL_CALL_SetColorP12Il2CppObjectRK10ColorRGBAf
FNi:__ZL68PreferBinarySerialization_t2472773525_CustomAttributesCacheGeneratorP21CustomAttributesCache
Usl:_GC_should_collect
Kfe:__ZN5physx2Gu27computeBoundsAroundVerticesERNS_9PxBounds3EjPKNS_6PxVec3E
Bck:_UrlAttribute_Equals_m1587451932
g3:__ZNSt3__26__treeINS_12basic_stringIcNS_11char_traitsIcEENS_9allocatorIcEEEENS_4lessIS6_EENS4_IS6_EEE12__find_equalIS6_EERPNS_16__tree_node_baseIPvEESG_RKT_
cFc:__Z18Transfer_BlittableI9JSONWriteLb1EsEvRK29SerializationCommandArgumentsR31RuntimeSerializationCommandInfo
zJd:__ZNK5physx7NpScene9getLimitsEv
MHg:_Int16_ToString_m4099416068_AdjustorThunk
qSh:_DSAParameters_t1872138834_marshal_pinvoke_cleanup
oka:__ZN6ObjectD2Ev
iSa:__ZZ23InitPlayerLoopCallbacksvEN44EarlyUpdateResetFrameStatsAfterPresentstruct7ForwardEv
kUh:_GUILayoutUtility_GetRect_m1611020398
eWd:__ZNK5physx2Gu29EPASupportMapPairRelativeImplINS0_9TriangleVENS0_8CapsuleVEE9doSupportERKNS_6shdfnd3aos5Vec3VERS7_SA_SA_
Ns:__ZN13AnimationClip16DecompressCurvesERNSt3__26vectorI24CompressedAnimationCurve13stl_allocatorIS2_L18MemLabelIdentifier25ELi16EEEE
YZd:__ZN3MBP12updateObjectEjRK5IAABB
gbj:__Z64RuntimeInvoker_Void_t1841601450_Il2CppObject_Vector3_t2243707580PK10MethodInfoPvPS2_
Wyg:_InputField_get_placeholder_m1768315947
Ndd:__ZN5physx6shdfnd5ArrayINS_6PxVec3ENS0_19ReflectionAllocatorIS2_EEE15growAndPushBackERKS2_
UAa:__ZN13GfxDeviceGLES22ReleaseThreadOwnershipEv
ahk:_MethodCall_Init_m3987198685
dil:__ZN6il2cpp2os19ReleaseSocketHandleEj
wyi:__ZL59ApplicationTrust_t3968282840_CustomAttributesCacheGeneratorP21CustomAttributesCache
Ipi:__ZL128SafeHandleZeroOrMinusOneIsInvalid_t1177681199_CustomAttributesCacheGenerator_SafeHandleZeroOrMinusOneIsInvalid__ctor_m3340306667P21CustomAttributesCache
_fi:_TypeBuilder_GetPropertyImpl_m1854119335
dEj:_GUI_Slider_m1242616654
uLb:__Z30GetOrCreateObjectStoredInFieldP9FieldInfoRK17GeneralMonoObjectb
xNd:__ZN5physx2Sc5Scene20fireTriggerCallbacksEv
xbi:_TypeBuilder_get_next_table_index_m1415870184
aPl:___cxa_can_catch
s6g:_SequentialSearchPrimeGeneratorBase_GenerateNewPrime_m296245934
jrf:_Char_GetUnicodeCategory_m4273361321
emi:__ZL63String_t_CustomAttributesCacheGenerator_String_Split_m394273024P21CustomAttributesCache
i_k:__ZN15dense_hashtableINSt3__24pairIK10KeyWrapperIPK19Il2CppGenericMethodEPK26Il2CppGenericMethodIndicesEES6_N6il2cpp8metadata23Il2CppGenericMethodHashEN14dense_hash_mapIS6_SA_SE_NSD_26Il2CppGenericMethodCompareENS0_9allocatorISB_EEE9SelectKeyESG_SI_E12maybe_shrinkEv
UFe:__ZN2UI11CanvasGroup23VirtualRedirectTransferER19StreamedBinaryWriteILb0EE
tVd:__ZN5physx2Gu18GJKRelativeRayCastERNS0_8CapsuleVERNS0_4BoxVERKNS_6shdfnd3aos15PsMatTransformVERKNS6_6FloatVERKNS6_5Vec3VESF_RSA_RSD_SH_fb
Cni:__ZL74Il2CppArray_CustomAttributesCacheGenerator_Array_GetLongLength_m3005360186P21CustomAttributesCache
jV:__ZN10AudioMixer6UpdateEf
FIa:__ZNK13TranslateGLES23VertexArraySizeBitfieldEi
lek:_Identity_get_ClientDynamicProperties_m767245959
q_j:_InternalEnumerator_1__ctor_m675130983_AdjustorThunk
$Ah:_Dictionary_2_Clear_m899854001_gshared
anl:__ZN6il2cpp2os5posix15PosixWaitObjectC2ENS2_4TypeE
B_a:__ZN6Camera21PostMultiCustomRenderENS_10RenderFlagEb
LDj:_GUI_Button_m2919274209
aLa:__ZN14DrawBufferGLESI11IndexBuffer26IndexBufferUsageMapperGLESED0Ev
$bd:__ZN5physx15PxsArticulationD2Ev
OQk:__ZL24UnresolvedVirtualCall_34P12Il2CppObjectS0_PK10MethodInfo
GBk:_GameOver_displayText_m3916492186
xxa:__ZN23ShaderVariantCollection13WarmupShadersEv
Fch:_Context_set_ProtocolNegotiated_m1177527245
XUj:_UInt32_System_IConvertible_ToChar_m1056040486
P3e:_ScriptableObject_CreateInstance_TisIl2CppObject_m926060499_gshared
wih:_TlsStream_get_Length_m1562309511
jta:__Z27scripting_gc_collect_unsafei
xV:__ZN11AudioModule20SuspendVideoTexturesEv
Huf:_CaseInsensitiveComparer__ctor_m1125492797
C7b:__ZN12CubemapArrayC2E18MemLabelIdentifier18ObjectCreationMode
lFd:__ZN5physx13NpRigidStaticC2ERKNS_11PxTransformE
qzf:_Convert_ToByte_m395020137
BQb:__Z26Transfer_UnityEngineObjectI24GenerateTypeTreeTransferLb0EEvRK29SerializationCommandArgumentsR31RuntimeSerializationCommandInfo
WPc:__ZN10Collider2D16RecreateColliderEbP11Rigidbody2D
zBe:_UNITY_FT_GlyphLoader_CheckPoints
MYf:_List_1_System_Collections_ICollection_CopyTo_m1995866425_gshared
IKc:__ZN16b2PolygonContact7DestroyEP9b2ContactP16b2BlockAllocator
cOl:___cxa_get_globals_fast
FVd:__ZN5physxL20PxcSweepBoxTrianglesERKNS_11PxsCCDShapeES2_RKNS_11PxTransformES5_S5_S5_fRNS_6PxVec3ES7_RNS_10PxcNpCacheERNS_18PxcNpThreadContextERKNS_2Cm23FastVertex2ShapeScalingERNS_2Gu9TriangleVEf
IQg:_TextWriter_WriteLine_m1754475888
_2c:__ZN5physx3Cct15ObstacleContextD0Ev
A6k:__ZN15dense_hashtableINSt3__24pairIK10KeyWrapperINS1_IPK10MethodInfoP11Il2CppClassEEEjEES9_17ReflectionMapHashIS8_EN14dense_hash_mapIS9_jSD_19ReflectionMapEqualsIS8_ENS0_9allocatorISB_EEE9SelectKeyESG_SI_E6insertERKSB_
Tta:__ZN10Matrix4x4fmLERKS_
nGk:_InvokableCall_1_Invoke_m769918017_gshared
kr:__ZN4PPtrI9TransformE8TransferI18StreamedBinaryReadILb0EEEEvRT_
I2e:_Array_InternalArray__get_Item_TisDouble_t4078015681_m2215331088_gshared
Fyi:__ZL57PrincipalPolicy_t289802916_CustomAttributesCacheGeneratorP21CustomAttributesCache
l7f:_Collection_1_ClearItems_m3446813399_gshared
ffa:__ZN18AssetBundleManagerC2Ev
oRa:__ZN15ArchiveReadFileD0Ev
O0g:_SymmetricTransform_TransformBlock_m1524716432
aea:__ZN18ConcurrentFreeListI28FileTextureUploadInstructionE7CleanUpEv
G8k:__ZN15dense_hashtableINSt3__24pairIK10KeyWrapperINS1_IPK9EventInfoP11Il2CppClassEEEjEES9_17ReflectionMapHashIS8_EN14dense_hash_mapIS9_jSD_19ReflectionMapEqualsIS8_ENS0_9allocatorISB_EEE9SelectKeyESG_SI_E4swapERSL_
ZTe:_Array_compare_TisColor32_t874517518_m3842009370_gshared
MLe:__ZN11UnityEngine15PlatformWrapper18GetOperatingSystemEv
XGa:__ZNSt3__26vectorIP14DataBufferGLESNS_9allocatorIS2_EEE21__push_back_slow_pathIKS2_EEvRT_
oOd:__ZN5physx3Scb9Aggregate9syncStateERNS0_5SceneE
dGi:__ZL61ExtensionAttribute_t1840441203_CustomAttributesCacheGeneratorP21CustomAttributesCache
Rgg:_ReadOnlyCollection_1_System_Collections_Generic_ICollectionU3CTU3E_Remove_m974176789_gshared
dIf:_Delegate_return_type_match_m4278947849
NAg:_InputField_GenerateHightlight_m1346735465
X1k:__ZN6il2cpp6icalls8mscorlib6System8MonoType19GetGenericArgumentsEP20Il2CppReflectionType
NOl:__ZNSt8bad_castD0Ev
Jyf:_GC_SuppressFinalize_m953228702
vBe:_FT_MSB
kMe:__ZNSt3__26__treeINS_12__value_typeI8UnityStr14CallbackArray2IRKS2_R8JSONReadEEENS_19__map_value_compareIS2_S9_NS_4lessIS2_EELb1EEE13stl_allocatorIS9_L18MemLabelIdentifier5ELi16EEE7destroyEPNS_11__tree_nodeIS9_PvEE
ohh:_InternalAsyncResult_get_ProceedAfterHandshake_m552962842
mZh:_GUIStyle_get_clipping_m2754700641
n5i:__Z50RuntimeInvoker_SByte_t454417549_Double_t4078015681PK10MethodInfoPvPS2_
cMh:_SoapServices_PreLoad_m490411755
Dyl:__ZN6il2cpp6icalls8mscorlib4Mono8Security12Cryptography18KeyPairPersistence10_CanSecureEP12Il2CppString
Xaj:__Z141RuntimeInvoker_Void_t1841601450_Il2CppObject_Int32_t2071877448_Int32_t2071877448_Int32_t2071877448_SByte_t454417549_SByte_t454417549_IntPtr_tPK10MethodInfoPvPS2_
Vjd:__ZN5physx7NpActor17resolveReferencesERNS_24PxDeserializationContextE
QKj:_Slider__ctor_m3124136916
S8j:_DefaultComparer__ctor_m3180706193_gshared
F_f:_List_1_System_Collections_Generic_IEnumerableU3CTU3E_GetEnumerator_m3625278020_gshared
Iya:__ZN13GfxDeviceGLES14SetRasterStateEPK17DeviceRasterState
oLb:__Z26scripting_field_get_offsetP9FieldInfo
IMb:__Z30TransferField_LinearCollectionI14SafeBinaryReadEvRK29SerializationCommandArgumentsR31RuntimeSerializationCommandInfo
j6c:__ZN5physx6shdfnd8internal8HashBaseINS0_4PairIKPKNS_2Sc8ShapeSimENS4_10NPhaseCore16ClothListElementEEES7_NS0_4HashIS7_EENS1_11HashMapBaseIS7_SA_SD_NS0_9AllocatorEE6GetKeyESF_Lb1EE5eraseERS8_
Dzg:_InputField_set_caretPositionInternal_m231166704
bLb:__Z23TransferScriptingObjectI14SafeBinaryReadEvRT_P12Il2CppObjectP11Il2CppClassPK15MonoScriptCache
Q5c:__ZN5physx5Elems17setStaticAABBDataEjRKNS_17PxcAABBDataStaticE
$bh:_TlsServerHello__ctor_m3032108168
Nia:__ZN14SafeBinaryRead11EndTransferEv
w9k:__ZN14dense_hash_mapI10KeyWrapperIPK10Il2CppTypeEjN6il2cpp8metadata14Il2CppTypeHashENS6_17Il2CppTypeCompareENSt3__29allocatorINS9_4pairIKS4_jEEEEEC2EjRKS7_RKS8_
jsi:__ZL98ILGenerator_t99948092_CustomAttributesCacheGenerator_ILGenerator_Mono_GetCurrentOffset_m3553856682P21CustomAttributesCache
j1c:__ZN5physx11PxHitBufferINS_12PxRaycastHitEE14processTouchesEPKS1_j
r$:__ZNK3WWW12GetAudioClipEv
wMb:__ZN14SafeBinaryRead8TransferI8MonoPPtrEEvRT_PKc17TransferMetaFlags
fDh:_Dictionary_2_System_Collections_Generic_ICollectionU3CSystem_Collections_Generic_KeyValuePairU3CTKeyU2CTValueU3EU3E_Remove_m1705959559_gshared
A6j:_InternalEnumerator_1_System_Collections_IEnumerator_get_Current_m1533037706_gshared
dKa:__ZN21UniformBufferTFMethod13MapBoneBufferEj
_fh:_RecordProtocol_SendChangeCipherSpec_m3542001341
M6k:__ZN15dense_hashtableINSt3__24pairIK10KeyWrapperINS1_IPK10MethodInfoP11Il2CppClassEEEjEES9_17ReflectionMapHashIS8_EN14dense_hash_mapIS9_jSD_19ReflectionMapEqualsIS8_ENS0_9allocatorISB_EEE9SelectKeyESG_SI_E4swapERSL_
E_e:_Array_InternalArray__set_Item_TisVector3_t2243707580_m1390667454_gshared
q$f:_List_1_Sort_m3574220472_gshared
gfl:__ZNSt3__26vectorIcNS_9allocatorIcEEEC2Ej
F5b:__ZN13TrailRenderer21ReleaseGeometryJobMemEP25DynamicVBOGeometryJobData
gnc:__Z40Register_UnityEngine_Input_GetKeyDownIntv
J_g:_KeyPairPersistence_CanSecure_m2251009700
oSa:__ZZ23InitPlayerLoopCallbacksvEN27FixedUpdateClearLinesstruct7ForwardEv
gAb:__ZN10VertexData6ResizeEjjjRK19VertexStreamsLayoutRK20VertexChannelsLayout
yac:__ZN14DirectorPlayer8TransferI14SafeBinaryReadEEvRT_
kJh:_ReturnMessage_get_Properties_m531965085
Adi:_GenericTypeParameterBuilder_IsSubclassOf_m563999142
saa:__ZN14SerializedFileD2Ev
Hre:__ZNSt3__26vectorIN20TextRenderingPrivate8FontImpl7IntRectE13stl_allocatorIS3_L18MemLabelIdentifier34ELi16EEE21__push_back_slow_pathIKS3_EEvRT_
K4:__Z21CompleteFenceInternalR8JobFence
qwc:__Z30Event_Get_Custom_PropModifiersP12Il2CppObject
Ybd:__ZN5physx6shdfnd5ArrayIPvNS0_16AlignedAllocatorILj64ENS0_9AllocatorEEEE15growAndPushBackERKS2_
xDh:_Dictionary_2_ContainsValue_m2375979648_gshared
Jy:__ZN7mecanim9animation16CreateClipOutputEPKNS0_4ClipERNS_6memory9AllocatorE
JYe:_Array_InternalArray__Insert_TisDecimal_t724701077_m1429254816_gshared
bKk:_ListPool_1_Get_m2998644518_gshared
jVb:__ZN18StreamedBinaryReadILb0EE21TransferSTLStyleArrayI13dynamic_arrayIyLj8EEEEvRT_17TransferMetaFlags
x4i:__Z76RuntimeInvoker_IntPtr_t_SByte_t454417549_Il2CppObject_BooleanU26_t3168250738PK10MethodInfoPvPS2_
B4k:__ZN6il2cpp2vm10Reflection17GetAssemblyObjectEPK14Il2CppAssembly
ZFa:__ZN18AsyncUploadManager17DoScaledPaddedJobEP28FileTextureUploadInstruction
n2c:__ZN5physx3Cct12SweptCapsuleC2Ev
mHe:__ZN2UIL31GenerateRenderableUIInstructionEPNS_28PreprocessUIInstructionsDataEj
XYb:__ZN6Shader21AwakeFromLoadThreadedEv
V4e:__ZN16VirtFuncInvoker0IiE6InvokeEjPv
qKl:__ZNSt3__28messagesIwED0Ev
Zpa:__ZN6prcoreL17RemapGenericFloatI17TexFormatRGBFloat17TexFormatRGBAHalfEEvPKNS_9InnerInfoE
Cqk:_TextEditor_MoveDown_m3610827042
HSi:__ZL70InputField_t1631627530_CustomAttributesCacheGenerator_m_CharacterLimitP21CustomAttributesCache
u$f:_List_1_get_Capacity_m2443158653_gshared
fDc:__ZN8JSONRead21TransferSTLStyleArrayI13dynamic_arrayI8Vector2fLj4EEEEvRT_18MemLabelIdentifier17TransferMetaFlags
nne:__ZN5physx24PxcContactBoxHeightFieldERKNS_2Gu13GeometryUnionES3_RKNS_11PxTransformES6_RKfRNS_10PxcNpCacheERNS0_13ContactBufferE
Bzl:__ZN6il2cpp2os9SemaphoreC2Eii
o_j:_InternalEnumerator_1_get_Current_m2960188445_AdjustorThunk
FOb:__ZNSt3__26vectorI8MonoPPtr13stl_allocatorIS1_L18MemLabelIdentifier1ELi16EEE8__appendEj
rMj:_Text_set_alignByGeometry_m1514652028
P1i:__Z92RuntimeInvoker_Void_t1841601450_Il2CppObject_Il2CppObject_SByte_t454417549_Int32_t2071877448PK10MethodInfoPvPS2_
oKa:__ZN15UniformTFMethod20IsBoneCountSupportedEi
O_d:__ZNK5physx23AggregateAABBUpdateTask7getNameEv
j2a:__ZN14qsort_internal31_FindAndMovePivotToLastPositionIP21ForwardRenderPassDataiN23ForwardShaderRenderLoop18RenderObjectSorterILb1EEEEEvT_S6_T0_T1_
naf:_X509Certificate_GetExpirationDateString_m2351894475
g5h:_Rect_Contains_m1334685291_AdjustorThunk
JMg:_FileStream_get_Position_m465478322
hRl:dynCall_viidi
NYe:_Array_InternalArray__Insert_TisInt64_t909078037_m3039874636_gshared
tof:_Convert_ToInt16_m1787678274
cNj:_ToggleGroup_NotifyToggleOn_m997426227
igh:_RSASslSignatureDeformatter_SetKey_m1150106904
wLi:__ZL74Event_t3028476042_CustomAttributesCacheGenerator_Event_Cleanup_m1195902101P21CustomAttributesCache
QCh:_Dictionary_2_ContainsKeyValuePair_m3818021458_gshared
r7:__ZN24ScriptingMethodFiltering17FilterOnSignatureENS_18MethodSearchFilterE
Pai:_TypeBuilder_get_Module_m1668298460
Jae:__ZN5physx13NpClothFabric16scaleRestlengthsEf
U0:__ZN18ScreenManagerWebGL13SetLockCursorE14CursorLockMode
TAe:_cf2_arrstack_finalize
gTg:_MonoType_GetMethodsByName_m1854415088
Gbi:_DerivedType_GetMethods_m165266904
jVk:__ZN15dense_hashtableINSt3__24pairIK10KeyWrapperIPK22Il2CppGenericParameterEP11Il2CppClassEES6_N6il2cpp5utils11PointerHashIS4_EEN14dense_hash_mapIS6_S9_SE_NS0_8equal_toIS6_EENS0_9allocatorISA_EEE9SelectKeyESH_SJ_E15insert_noresizeERKSA_
s0g:_RSAManaged_EncryptValue_m4089823119
P4b:__ZN13MonoBehaviour19HandleNotificationsEPviR11MessageData
T_e:_Array_qsort_TisPlayable_t3667545548_m1963915233_gshared
I_k:__ZN6il2cpp2vm13MetadataCache23GetMethodGenericContextEPK10MethodInfo
aFh:_DefaultComparer_GetHashCode_m926363525_gshared
dYh:_GUIStyle_set_focused_m1547304893
rFd:__ZNK5physx13NpRigidStatic7getTypeEv
IIj:_ScrollRect_get_verticalScrollbar_m2455612493
ffj:__Z69RuntimeInvoker_Void_t1841601450_Int32_t2071877448_HitInfo_t1761367055PK10MethodInfoPvPS2_
rka:__ZNK11NamedObject26GetTypeInfoVirtualInternalEv
yNg:_ReadDelegate_Invoke_m2091885836
Qci:_TypeBuilder_GetField_m2112455315
dUl:b58
eUl:b59
aXf:_List_1_System_Collections_IList_get_IsFixedSize_m3412144440_gshared
ZTl:b52
_Tl:b53
XTl:b50
sgj:__Z51RuntimeInvoker_Vector4_t2243707581_SByte_t454417549PK10MethodInfoPvPS2_
J2d:__ZN5physx9PxTaskMgrD0Ev
cUl:b57
$Tl:b54
aUl:b55
jYg:_Kernel_Multiply_m3585610531
w9g:_CertificateSelectionCallback_EndInvoke_m3525317639
X5b:__ZN13TrailRenderer11TrailPointsD0Ev
qS:__ZN4PPtrI15AudioMixerGroupE8TransferI18StreamedBinaryReadILb0EEEEvRT_
pZi:__Z67RuntimeInvoker_Void_t1841601450_Int32_t2071877448_Int16_t4041245914PK10MethodInfoPvPS2_
Ulf:_Array_CreateInstance_m3310016470
Umf:_SimpleEnumerator_Reset_m1341779532
rcl:__ZNSt3__214__split_bufferINS_12basic_stringIcNS_11char_traitsIcEENS_9allocatorIcEEEERNS4_IS6_EEEC2EjjS8_
H$g:_MACAlgorithm_Core_m2390605245
k5j:_InternalEnumerator_1_System_Collections_IEnumerator_get_Current_m30488070_gshared
Q3b:__ZN10GameObject12CleanupClassEv
T1j:_InternalEnumerator_1_System_Collections_IEnumerator_Reset_m2624612805_AdjustorThunk
Ied:__ZN5physx3Scb5Scene13addRigidNoSimINS0_11RigidStaticELb0ELb1EEEvRT_RNS0_13ObjectTrackerE
lza:__ZN9GfxDevice25SetShaderPropertiesSharedERK19ShaderPropertySheet
$Ik:_IndexedSet_1_GetEnumerator_m3646001838_gshared
iva:__ZN18StreamedBinaryReadILb1EE20TransferTypelessDataEjPvi
JJb:__ZN10MonoScript17MainThreadCleanupEv
hka:__ZN13RenderTexture9SetActiveEiP12ObjectHandleI17RenderSurface_TagP17RenderSurfaceBaseES4_PPS_i11CubemapFaceij
lFa:__ZN18AsyncUploadManager19AsyncResourceUploadER9GfxDeviceii9TextureID
bGj:_VertexHelper_AddUIVertexTriangleStream_m4009409241
C9j:_Comparer_1__ctor_m844571340_gshared
N8b:__ZL25InitializeDefaultMaterialv
uJe:__Z53Register_UnityEngine_CanvasRenderer_get_materialCountv
Yu:__ZN14AnimationEvent8TransferI18StreamedBinaryReadILb1EEEEvRT_
Sbh:_TlsStream_Write_m2055734301
BPa:__ZN19FileAccessorHandlerD2Ev
Mth:_Comparer_1__ctor_m2941434245_gshared
GNj:_VertexHelper_AddVert_m3290455716
UAk:_ArrowController_Kill_m3147810858
iyi:__ZL56SHA256Managed_t2029745292_CustomAttributesCacheGeneratorP21CustomAttributesCache
fsi:__ZL126GenericTypeParameterBuilder_t1370236603_CustomAttributesCacheGenerator_GenericTypeParameterBuilder_MakeGenericType_m2955814622P21CustomAttributesCache
mKi:__ZL95Physics_t634932869_CustomAttributesCacheGenerator_Physics_RaycastAll_m410413656____maxDistance1P21CustomAttributesCache
LJ:__ZN15SerializeTraitsI9OffsetPtrIN7mecanim9animation17BlendTreeConstantEEE8TransferI19StreamedBinaryWriteILb0EEEEvRS4_RT_
L0:__ZN13ScreenManager17RequestResolutionEiibi
l0c:__ZN26IntersectAnyVsMeshCallbackILi0ELb1EED2Ev
X3k:_il2cpp_unity_liveness_calculation_from_statics
wQj:_Scheduler_get_Instance_m1989471839
nwg:_GraphicRaycaster_get_eventCamera_m4031517334
Qu:__ZN17AnimationCurveTplI11QuaternionfE8TransferI18StreamedBinaryReadILb1EEEEvRT_
Qmh:_WebRequest_System_Runtime_Serialization_ISerializable_GetObjectData_m3377822910
_ub:__ZN8Renderer8TransferI17RemapPPtrTransferEEvRT_
P5f:_Collection_1_Contains_m1299140035_gshared
n4e:_ExecuteEvents_ExecuteHierarchy_TisIl2CppObject_m2541874163_gshared
hXe:_Array_InternalArray__ICollection_Add_TisUICharInfo_t3056636800_m968274080_gshared
jKk:_ObjectPool_1__ctor_m1532275833_gshared
sel:__ZNK15dense_hashtableINSt3__24pairIK10KeyWrapperINS1_IP11Il2CppClassjEEES4_EES6_N6il2cpp8metadata14ArrayClassHashEN14dense_hash_mapIS6_S4_SB_NSA_17ArrayClassCompareENS0_9allocatorIS8_EEE9SelectKeyESD_SF_E13find_positionERS7_
xRk:__ZL24UnresolvedVirtualCall_71P12Il2CppObjectS0_S0_iS0_S0_S0_PK10MethodInfo
Nmi:__ZL64IntPtr_t_CustomAttributesCacheGenerator_IntPtr__ctor_m3803259710P21CustomAttributesCache
i_f:_List_1_GetIndex_m3262928832_gshared
gwd:__ZNK5physx2Sc9ClothCore16getCollisionDataEPNS_22PxClothCollisionSphereEPjPNS_21PxClothCollisionPlaneES4_PNS_24PxClothCollisionTriangleE
_bk:_SafeHandle_DangerousRelease_m2167699172
m6a:__Z24LookRotationToQuaternionRK8Vector3fS1_P11Quaternionf
k6a:__ZN16ReflectionProbes9GetCameraEv
lAd:__ZNK5physx2Sc18ParticleSystemCore20getMaxMotionDistanceEv
J4g:_ArgumentException__ctor_m2105824819
XHe:__ZN2UI6Canvas17SetSortingLayerIDEi
mpg:_BaseMeshEffect_get_graphic_m3358796463
_kl:__ZN6il2cpp2vm11MethodStack23CleanupForCurrentThreadEv
z$j:_InternalEnumerator_1_get_Current_m966604531_gshared
_Ok:_Predicate_1_Invoke_m695569038_gshared
QOf:_Enumerator_VerifyState_m825848279_AdjustorThunk
Keg:_ReadOnlyCollection_1_System_Collections_ICollection_CopyTo_m3161309318_gshared
Ref:_String_System_IConvertible_ToDateTime_m1423627978
ypc:__Z83Register_UnityEngine_Experimental_Director_Playable_INTERNAL_CALL_GetOutputInternalv
G_d:__ZN5physx10BPWorkTaskD0Ev
BMe:__ZN11UnityEngine7Connect14RemoteSettings10UnregisterEPNS0_13ConfigHandlerE
yna:__ZN18UnityPropertySheet8TransferI19StreamedBinaryWriteILb0EEEEvRT_
reh:_TlsServerCertificate_checkServerIdentity_m3836435780
LEc:__ZN9JSONWrite21TransferSTLStyleArrayI31ArrayOfManagedObjectsTransfererEEvRT_17TransferMetaFlags
v1g:_PKCS12_Decrypt_m2353135969
zzj:_PersistentCallGroup_Initialize_m3908067069
_qk:_TextEditor_SelectParagraphForward_m1117097520
Yhe:__ZN4PPtrI14PhysicMaterialE8TransferI18StreamedBinaryReadILb1EEEEvRT_
gii:_MonoEvent_ToString_m386956596
fNi:__ZL70RuntimePlatform_t1869584967_CustomAttributesCacheGenerator_FlashPlayerP21CustomAttributesCache
Cmg:_PointerEventData_get_pointerPress_m880101744
JPd:__ZN5physx20NpRigidActorTemplateINS_13PxRigidStaticEE14resetFilteringERNS_3Scb11RigidObjectEPKPNS_7PxShapeEj
exh:_Transform_1_BeginInvoke_m1786442111_gshared
pHg:_Int32_GetFormatException_m1729046182
r2f:_Collection_1_get_Count_m3834276648_gshared
zdl:__ZN15dense_hashtableINSt3__24pairIK10KeyWrapperIP11Il2CppClassES4_EES5_N6il2cpp8metadata16SZArrayClassHashEN14dense_hash_mapIS5_S4_SA_NS9_19SZArrayClassCompareENS0_9allocatorIS7_EEE9SelectKeyESC_SE_EC2ERKSH_j
Heb:__ZN21UnityDefaultAllocatorI17LowLevelAllocatorE10DeallocateEPv
p3:__GLOBAL__sub_I_runtime_camera2_lump_cpp
pu:__ZN15PackedIntVector8TransferI14SafeBinaryReadEEvRT_
Cgi:_FieldInfo_get_IsLiteral_m267898096
yGa:__ZN17SharedTextureDataD0Ev
_hd:__ZNK5physx19NpArticulationJoint20getTangentialDampingEv
EEk:_SwitchController_Awake_m1270104276
vhh:_SslStreamBase_EndNegotiateHandshake_m1732321201
qxh:_Transform_1_BeginInvoke_m1167293475_gshared
pO:__ZN13AudioListener8DoUpdateEv
aTc:__ZN5physx3Cct10Controller22setUpDirectionInternalERKNS_6PxVec3E
Mli:__ZL71SByte_t454417549_CustomAttributesCacheGenerator_SByte_Parse_m1620039654P21CustomAttributesCache
lzf:__Z13bankers_roundd
Gxb:__ZN14SafeBinaryRead8TransferI5RectTIfEEEvRT_PKc17TransferMetaFlags
Am:_emscripten_glGenFramebuffers
rwf:_Hashtable_CopyTo_m2778915805
Gea:__ZN17BaseObjectManager16StaticInitializeEPv
Vai:_ConstructorBuilder_get_IsCompilerContext_m2796899803
VGi:__ZL97Component_t3819376471_CustomAttributesCacheGenerator_Component_GetComponentsInChildren_m843288020P21CustomAttributesCache
Zyb:__ZN13TrailRenderer18TransferDeprecatedI14SafeBinaryReadEEvRT_
Nnj:__Z37RuntimeInvoker_UICharInfo_t3056636800PK10MethodInfoPvPS2_
MUe:_Array_IndexOf_TisUIVertex_t1204258818_m613887160_gshared
hsg:_FloatTween_GetDuration_m1757342579_AdjustorThunk
Mzf:_DateTime_CoreParse_m2014268103
MXf:_List_1__ctor_m3698273726_gshared
Smb:__ZN9Behaviour23VirtualRedirectTransferER17RemapPPtrTransfer
fBh:_Dictionary_2_TryGetValue_m3187691483_gshared
SDc:__Z18Transfer_BlittableI9JSONWriteLb0EyEvRK29SerializationCommandArgumentsR31RuntimeSerializationCommandInfo
pWj:_UInt64_Equals_m1243465002
Qqb:__ZN12CubemapArray23VirtualRedirectTransferER14SafeBinaryRead
Uwd:__ZNK5physx2Sc9ClothCore23getNbCollisionTrianglesEv
qRh:_CryptographicException__ctor_m1012314467
ctd:__ZN5physx7NpShape16setFlagsInternalENS_7PxFlagsINS_11PxShapeFlag4EnumEhEE
dqi:__ZL54Collection_1_t686054069_CustomAttributesCacheGeneratorP21CustomAttributesCache
Ygg:_ReadOnlyCollection_1_System_Collections_IList_Add_m616574295_gshared
qHg:_Int32_ProcessTrailingWhitespace_m2812079777
rta:__ZN18ProceduralMaterial9ReloadAllEbb
Spc:__Z43RectTransform_CUSTOM_INTERNAL_set_sizeDeltaP12Il2CppObjectRK13Vector2fIcall
h$c:__ZN5physx2Gu30distanceSegmentTriangleSquaredERKNS_6shdfnd3aos5Vec3VES5_S5_S5_S5_RS3_S6_
Emh:_WebProxy__ctor_m3679722173
R0j:_InternalEnumerator_1_Dispose_m2743309309_AdjustorThunk
sja:__ZN24GenerateTypeTreeTransfer18BeginArrayTransferEPKcS1_Ri17TransferMetaFlags
dja:__ZN15TextureSettings8TransferI18StreamedBinaryReadILb1EEEEvRT_
sFa:__Z16DecompressCrunchPKhRjR13TextureFormatiiii18MemLabelIdentifier
IJl:__ZNSt3__29money_getIcNS_19istreambuf_iteratorIcNS_11char_traitsIcEEEEED2Ev
w0f:_List_1__ctor_m2082969060_gshared
Xm:___syscall51
$m:___syscall54
ojl:__ZNSt3__26__treeINS_12__value_typeIP24Il2CppReflectionAssemblyPvEENS_19__map_value_compareIS3_S5_NS_4lessIS3_EELb1EEENS_9allocatorIS5_EEE12__find_equalIS3_EERPNS_16__tree_node_baseIS4_EESH_RKT_
EXi:__Z107RuntimeInvoker_Boolean_t3825574718_SByte_t454417549_Il2CppObject_Int32_t2071877448_ExceptionU26_t1467204777PK10MethodInfoPvPS2_
dJc:__ZN12b2MouseJointD0Ev
vQl:dynCall_fiifffiii
o3a:__Z29RenderForwardObjectsIntoDepthRK17RenderLoopContextP13RenderTextureP13dynamic_arrayI16RenderObjectDataLj4EE12ObjectHandleI17RenderSurface_TagP17RenderSurfaceBaseESC_iib
QF:__ZNK8Animator20IsAnyRendererVisibleEv
U4k:__ZN15dense_hashtableINSt3__24pairIK10KeyWrapperINS1_IPK14Il2CppAssemblyP11Il2CppClassEEEjEES9_17ReflectionMapHashIS8_EN14dense_hash_mapIS9_jSD_19ReflectionMapEqualsIS8_ENS0_9allocatorISB_EEE9SelectKeyESG_SI_ED2Ev
ABe:_cff_builder_add_point1
yjl:__ZN6il2cpp2vm5Image21GetCachedResourceDataEPK11Il2CppImageRKNSt3__212basic_stringIcNS5_11char_traitsIcEENS5_9allocatorIcEEEE
gxg:_HorizontalOrVerticalLayoutGroup_set_childControlWidth_m4209477792
TWe:_Array_InternalArray__ICollection_Add_TisUInt32_t2149682021_m2629016323_gshared
NLb:__Z18Transfer_BlittableI14SafeBinaryReadLb0E10ColorRGBAfEvRK29SerializationCommandArgumentsR31RuntimeSerializationCommandInfo
dIl:__ZNKSt3__28time_getIwNS_19istreambuf_iteratorIwNS_11char_traitsIwEEEEE13do_date_orderEv
joi:__ZL65Il2CppArray_CustomAttributesCacheGenerator_Array_Sort_m3002148658P21CustomAttributesCache
Ea:invoke_iiiiiiiiii
bEj:_GUI_get_enabled_m3504357730
uU:__ZNK7Texture10GetVRUsageEv
Msa:__ZN18LoadSceneOperation19IntegrateTimeSlicedEi
HQj:_Scheduler_SchedulerThread_m2209572785
uWg:_SortKeyBuffer_GetResultAndReset_m2516956577
IXd:__ZN5physx36solveContactPreBlock_WriteBackStaticEPKNS_23PxcSolverConstraintDescEjRNS_16PxcSolverContextEPNS_25PxcThresholdStreamElementEjPi
GUl:_glBlendFuncSeparate__wrapper
kKk:_ObjectPool_1_get_countAll_m4217365918_gshared
gaa:__ZN16ScriptingManager24NotifyScriptCacheReleaseEi
pFi:__ZL85UriParser_t1012511323_CustomAttributesCacheGenerator_UriParser_OnRegister_m4010407891P21CustomAttributesCache
Uri:__ZL63UnmanagedMemoryStream_t822875729_CustomAttributesCacheGeneratorP21CustomAttributesCache
Wic:__Z47Register_UnityEngine_Coroutine_ReleaseCoroutinev
Ged:__ZN10ScSceneFnsIN5physx3Scb11RigidStaticEE6insertERNS0_2Sc5SceneERS2_
dP:__ZN15AudioReverbZone13SetFMODValuesEv
Yvj:_Component_GetComponentInChildren_m3925629424
z6:__ZL19StaticDestroyShaderPv
Ne:_glRenderbufferStorageMultisample
jyk:_PKCS12_get_Certificates_m2320062949
VJh:_SoapTypeAttribute_get_XmlTypeName_m2546866572
Jcg:_ReadOnlyCollection_1_System_Collections_IList_get_IsFixedSize_m158012227_gshared
Fzk:_X509Chain__ctor_m1113875360
dMb:__Z35Transfer_Blittable_SingleValueFieldI14SafeBinaryReadfEvRT_R17GeneralMonoObjectRK23StaticTransferFieldInfo
Peh:_TlsServerHello_processProtocol_m1241336522
A$c:__ZN5physx2Gu20sweepCCTBoxTrianglesEjPKNS_10PxTriangleEbRKNS_13PxBoxGeometryERKNS_11PxTransformERKNS_6PxVec3EfRSA_SD_RfRjPKjfNS_7PxFlagsINS_9PxHitFlag4EnumEtEE
rub:__ZThn28_N8Renderer21RendererBecameVisibleEv
ZUc:__ZN5physx2Gu15OBBTriangleTestC2ERKNS0_3BoxE
$ek:_ContextAttribute_IsContextOK_m3281216012
KOg:_PathTooLongException__ctor_m3212099251
$_l:_pthread_cond_broadcast__wrapper
Hwa:__ZN17PersistentManager38InstanceIDToSerializedObjectIdentifierEiR26SerializedObjectIdentifier
PJl:__ZNSt3__211__money_getIcE13__gather_infoEbRKNS_6localeERNS_10money_base7patternERcS8_RNS_12basic_stringIcNS_11char_traitsIcEENS_9allocatorIcEEEESF_SF_SF_Ri
z5j:_InternalEnumerator_1_MoveNext_m3299881374_AdjustorThunk
HWc:__ZN5physx2Gu21computeMTD_SphereMeshERNS_6PxVec3ERfRKNS0_6SphereERKNS_22PxTriangleMeshGeometryERKNS_11PxTransformE
yw:__ZN17PackedFloatVector8TransferI18StreamedBinaryReadILb0EEEEvRT_
SHi:__ZL88Screen_t786852042_CustomAttributesCacheGenerator_Screen_t786852042____width_PropertyInfoP21CustomAttributesCache
qrb:__ZN7Cubemap23VirtualRedirectTransferER17RemapPPtrTransfer
QYg:_BigInteger_op_GreaterThanOrEqual_m1998498565
rge:__ZN5physx12SubSortQuick5sort4EPjjRNS_6shdfnd5ArrayINS_11RTreeNodeNQENS2_19ReflectionAllocatorIS4_EEEERjRNS_10PxBounds3VEj
vUa:_longest_match_fast
Ycd:__ZN5physx6shdfnd5ArrayIPNS_2Sc8BodyCoreENS0_19ReflectionAllocatorIS4_EEE15growAndPushBackERKS4_
Utg:_DropdownItem_get_image_m2752143412
mRk:__ZL24UnresolvedVirtualCall_60P12Il2CppObjectaPK10MethodInfo
bcc:__ZN22BlockMemoryCacheWriter11GetPathNameEv
vvg:_Graphic_Rebuild_m2617722358
bZd:__ZN5physx16PxsBroadPhaseMBPC2ERNS_19PxcScratchAllocatorERNS_2Cm13EventProfilerERKNS_11PxSceneDescEPNS_14PxsAABBManagerE
jad:__ZThn24_N5physx2Sc21ConstraintInteractionD1Ev
Bui:__ZL86SafeHandle_t2733794115_CustomAttributesCacheGenerator_SafeHandle_SetHandle_m1980208835P21CustomAttributesCache
eje:__ZN14PhysicsManager23VirtualRedirectTransferER14SafeBinaryRead
BFf:_DateTime_ToString_m3108726445_AdjustorThunk
lX:__ZN19CloudServiceHandlerD2Ev
D8a:__ZN13dynamic_arrayIN23ReflectionProbesContext23ReflectionProbeCubeInfoELj4EE18resize_initializedEjRKS1_12ResizePolicy
aOl:__ZNSt3__212system_errorC2ENS_10error_codeEPKc
r2e:_Array_InternalArray__get_Item_TisTableRange_t2011406615_m602485977_gshared
GAg:_InputField_Append_m2623574152
dmd:__ZN5physx7NpActor14onActorReleaseEPNS_7PxActorE
C4g:_ApplicationException__ctor_m1120437222
Mii:_MonoMethod__ctor_m4091684020
C2c:__ZN5physx3Cct26CharacterControllerManager19computeInteractionsEfPNS_26PxControllerFilterCallbackE
yq:stackAlloc
obd:__ZN5physx6shdfnd8PoolBaseINS_2Cm5BlockIhLj256EEENS0_19ReflectionAllocatorIS4_EEE12allocateSlabEv
Bjc:__Z44Camera_CUSTOM_INTERNAL_CALL_ScreenPointToRayP12Il2CppObjectRK8Vector3fR3Ray
kQa:__ZN25SingleBlockMemoryFileData4LockEPPv
BOa:__ZN12HandlerChain5TouchER13FileEntryData
Yei:_MethodBuilder_GetHashCode_m1713271764
E_h:_Input_GetKeyDown_m1771960377
Kbk:_Marshal__cctor_m802981325
nPe:_Array_get_swapper_TisUIVertex_t1204258818_m1078858558_gshared
EVg:_MSCompatUnicodeTable_GetResource_m3816716847
$kc:__Z32RectOffset_Get_Custom_PropBottomP12Il2CppObject
D5i:__Z49RuntimeInvoker_UInt16_t986882611_Int64_t909078037PK10MethodInfoPvPS2_
Tlf:_Array_CreateInstance_m15016505
Luf:_Comparer_Compare_m4132969818
Aqc:__Z40Register_UnityEngine_Material_SetTexturev
Upg:_CanvasScaler_get_matchWidthOrHeight_m1190816603
GCl:_stat
l6e:_RijndaelTransform_Decrypt128_m1282993908
zel:__ZN24dense_hashtable_iteratorINSt3__24pairIK10KeyWrapperINS1_IP11Il2CppClassjEEES4_EES6_N6il2cpp8metadata14ArrayClassHashEN14dense_hash_mapIS6_S4_SB_NSA_17ArrayClassCompareENS0_9allocatorIS8_EEE9SelectKeyESD_SF_E30advance_past_empty_and_deletedEv
YXe:_Array_InternalArray__ICollection_CopyTo_TisUInt16_t986882611_m3228377237_gshared
uSf:_List_1_Add_m4157722533_gshared
qTi:__ZL68Navigation_t1571958496_CustomAttributesCacheGenerator_m_SelectOnDownP21CustomAttributesCache
Osj:_Bounds_op_Inequality_m2315096783
uIc:__ZN15b2DistanceJoint23InitVelocityConstraintsERK12b2SolverData
S4j:_InternalEnumerator_1_System_Collections_IEnumerator_get_Current_m3065287496_gshared
Nxa:__ZNSt3__218__insertion_sort_3IRNS_4lessIN22BuiltinResourceManager8ResourceEEEPS3_EEvT0_S7_T_
j0d:__ZN5physx2Gu21findUniqueConvexEdgesEjPNS0_10ConvexEdgeEjPKNS0_15HullPolygonDataEPKh
$2h:_Physics_RaycastAll_m3256436970
aSf:_List_1_get_Item_m4100789973_gshared
_H:__ZN18StreamedBinaryReadILb1EE21TransferSTLStyleArrayI22OffsetPtrArrayTransferI9OffsetPtrIN7mecanim12statemachine20StateMachineConstantEEEEEvRT_17TransferMetaFlags
C5e:_RC2_set_KeySize_m2015782960
LXj:_Version_get_Revision_m654005649
oa:invoke_iiiiiiiiiiii
WWd:__ZN5physx43solveContactCoulombPreBlock_WriteBackStaticEPKNS_23PxcSolverConstraintDescEjRNS_16PxcSolverContextEPNS_25PxcThresholdStreamElementEjPi
l8f:_Collection_1_SetItem_m3715941382_gshared
WMa:__ZN9GfxDevice20GetComputeBufferDataE15ComputeBufferIDPvj
cFg:_NumberFormatInfo_get_CurrencyGroupSeparator_m2480433019
_je:__ZN10CastFilterD0Ev
j1g:_StrongName_get_PublicKey_m3777577320
Zak:_RuntimeCompatibilityAttribute__ctor_m1331212510
mbd:__ZN5physx2Sc5Scene23allocateConstraintBlockEj
bmc:__Z43Register_UnityEngine_GameObject_SendMessagev
EVk:__ZN6il2cpp2vm17SetupFieldsLockedEP11Il2CppClassRKNS_2os12FastAutoLockE
rOg:_MonoIOStat_t1621921065_marshal_pinvoke
AS:__ZN11AudioSourceD0Ev
Auj:_CanvasRenderer_set_hasPopInstruction_m1388844875
Ccd:__ZN5physx2Sc5Actor15onElementDetachERNS0_7ElementE
$Tf:_List_1_System_Collections_ICollection_CopyTo_m1530390632_gshared
R9f:_Collection_1_System_Collections_IEnumerable_GetEnumerator_m1452790461_gshared
D0j:_InternalEnumerator_1_System_Collections_IEnumerator_Reset_m3194282029_AdjustorThunk
ldb:__ZN16MemoryFileSystem4NameEv
Vjg:_BaseRaycaster_OnEnable_m3641767070
p0f:_List_1_ToArray_m2810936944_gshared
CT:__ZN11AudioSource16UpdateParametersE12SoundChannel
gje:__ZN14PhysicsManager9onContactERKN5physx19PxContactPairHeaderEPKNS0_13PxContactPairEj
m6g:_PrimeGeneratorBase_get_PrimalityTest_m308005118
wni:__ZL71Enum_t2459695545_CustomAttributesCacheGenerator_Enum_Format_m2294492821P21CustomAttributesCache
Rvc:__ZNK8GUIStyle8CalcSizeER10GUIContent
HTf:_List_1_CheckIndex_m2328469916_gshared
GSc:__ZN5physx3Cct13BoxController13setHalfHeightEf
pOd:__ZN5physx3Scb13ObjectTracker5clearEv
U0f:_List_1_AddRange_m3345533268_gshared
Ase:_UNITY_FT_New_Size
Cgc:__Z42ScriptingGetComponentsOfTypeFromGameObjectRK26ScriptingGetComponentsArgs
l_:__ZN19CloudServiceHandler11FlushEventsEv
OFl:__ZNKSt3__26locale9use_facetERNS0_2idE
XTc:__ZL23GeomMTDCallback_BoxMeshRN5physx6PxVec3ERfRKNS_10PxGeometryERKNS_11PxTransformES5_S8_
r1f:_List_1_get_Item_m3157283227_gshared
_Gk:_InvokableCall_4_Invoke_m1555001411_gshared
VCf:_Convert_ToString_m2915777777
$ud:__ZNK5physx7NpCloth22getNbCollisionCapsulesEv
$na:__ZNSt3__27__sort4IRPFbRKNS_4pairIN9ShaderLab16FastPropertyNameEN18UnityPropertySheet11UnityTexEnvEEES8_EPS6_EEjT0_SD_SD_SD_T_
Vu:__Z21TransferBlobSerializeIN7mecanim9animation18ClipMuscleConstantE18StreamedBinaryReadILb1EEEvRPT_PKcRjS9_RT0_
bfl:__ZN6il2cpp6icalls8mscorlib6System10Reflection8Assembly18GetModulesInternalEP24Il2CppReflectionAssembly
Dye:_Line_Up
UTg:_MonoType_GetGenericTypeDefinition_m2363776160
FTc:__ZL28GeomMTDCallback_SphereSphereRN5physx6PxVec3ERfRKNS_10PxGeometryERKNS_11PxTransformES5_S8_
Ati:__ZL62ParameterAttributes_t1266705348_CustomAttributesCacheGeneratorP21CustomAttributesCache
Pch:_Context_set_SentConnectionEnd_m2641458842
Ue:_emscripten_glBufferSubData
hpf:_Buffer_BlockCopyInternal_m2627156229
kQb:__Z18Transfer_BlittableI17RemapPPtrTransferLb1EyEvRK29SerializationCommandArgumentsR31RuntimeSerializationCommandInfo
qxg:_Image_set_overrideSprite_m3362535904
Djg:_ExecuteEvents_get_pointerExitHandler_m3250605428
Tfd:__ZN5physx6shdfnd5ArrayIPvNS0_15InlineAllocatorILj256ENS0_19ReflectionAllocatorINS_7NpShapeEEEEEE15growAndPushBackERKS2_
dpa:__ZN6prcoreL12RemapGenericI15TexFormatRGB88817TexFormatARGB8888EEvPKNS_9InnerInfoE
Q5a:__Z17CalculateGlobalRS23TransformAccessReadOnly
kyd:__ZN5physx22NpParticleBaseTemplateINS_15PxParticleFluidENS_15NpParticleFluidEE7releaseEv
nwl:__ZNSt3__210__list_impIPN6il2cpp5utils10MemoryPool6RegionENS_9allocatorIS5_EEE5clearEv
wtj:_Camera_ScreenPointToRay_m614889538
dYg:_Kernel_multiByteDivide_m735279869
_Yc:__ZNK5physx2Gu29EPASupportMapPairRelativeImplINS0_11ConvexHullVES2_E6getDirEv
RDh:_Dictionary_2_System_Collections_ICollection_get_SyncRoot_m501154311_gshared
PCh:_Dictionary_2_ToTValue_m542772656_gshared
jOe:__ZN23UnityPurchasingSettings10InitializeER6Object
fQj:_Thread_GetNewManagedId_internal_m3211695465
EUa:_unity_z_deflateReset
U7c:__ZN5physx2Sc19ContactReportBuffer23reallocateNotThreadSafeEjRjjj
BXh:_SkinChangedDelegate_Invoke_m2801964040
yad:__ZN5physx2Sc5Actor19registerInteractionEPNS0_11InteractionE
A$b:__ZN9ShaderLab16SerializedShader8TransferI18StreamedBinaryReadILb1EEEEvRT_
KYb:__ZN22MemoryCacherReadBlocks14LockCacheBlockEjPPhS1_
iof:_Boolean_System_IConvertible_ToChar_m2637404801_AdjustorThunk
Dcf:_SecurityContext_Capture_m2535194991
nUj:_UInt16_System_IConvertible_ToSByte_m3044765342_AdjustorThunk
Lbi:_DerivedType_IsArrayImpl_m684825803
Kli:__ZL47Byte_t3683104436_CustomAttributesCacheGeneratorP21CustomAttributesCache
pVe:_Array_InternalArray__IndexOf_TisLabelFixup_t4090909514_m2939738943_gshared
Fml:__ZN4utf88internal15increase_safelyIPKcEENS0_9utf_errorERT_S5_
yre:__ZN20TextRenderingPrivate8FontImpl16CacheFontForTextEPtiifjPK13dynamic_arrayINS_16TextFormatChangeELj4EE
mpe:__ZN13PhysicsModule19CreateNxHeightFieldEPv
Z_e:_Array_qsort_TisUIVertex_t1204258818_TisUIVertex_t1204258818_m512606409_gshared
AZe:__Z21ArrayElementTypeCheckP11Il2CppArrayPv
ZXl:_emscripten_glTexSubImage2D__wrapper
gkh:_NameValueCollection_AsSingleString_m10599052
vPc:__ZN17PhysicsMaterial2D16CheckConsistencyEv
vNl:__ZNSt3__212basic_stringIcNS_11char_traitsIcEENS_9allocatorIcEEE6appendEjc
VUg:_Object_InternalGetHashCode_m1371384246
RFj:_Navigation_get_defaultNavigation_m2185194207
BVi:__ZL73LayoutElement_t2808691390_CustomAttributesCacheGenerator_m_FlexibleHeightP21CustomAttributesCache
Qyj:_ArgumentCache_get_stringArgument_m3051619173
dIg:_Int32_System_IConvertible_ToSByte_m1449623243_AdjustorThunk
V3g:_AccessViolationException__ctor_m1270251537
Azd:__ZN5physx15NpParticleFluid2isENS_11PxActorType4EnumE
ECd:__ZN5physx22NpParticleBaseTemplateINS_16PxParticleSystemENS_16NpParticleSystemEE11setGridSizeEf
Yzk:_X509ExtensionCollection_IndexOf_m3972100651
DOb:__Z14resize_trimmedINSt3__26vectorI8MonoPPtr13stl_allocatorIS2_L18MemLabelIdentifier1ELi16EEEEEvRT_j
zib:__ZN39AssetBundleLoadFromStreamAsyncOperation11GetProgressEv
Cf:_TTF_RenderText_Solid
hVj:_UInt32_System_IConvertible_ToInt64_m3091851828
URg:_MissingMethodException__ctor_m3898429715
F8b:__ZN4Mesh7PRODUCEE18MemLabelIdentifier18ObjectCreationMode
bvh:_Enumerator_System_Collections_IEnumerator_Reset_m3085583937_gshared
cQf:_Enumerator_MoveNext_m848781978_gshared
Blk:__ZN23InterfaceActionInvoker5IDsDsbbbE6InvokeEjP11Il2CppClassPvDsDsbbb
Dmj:__Z66RuntimeInvoker_ClientCertificateType_t4001384466_Int32_t2071877448PK10MethodInfoPvPS2_
t0g:_RSAManaged_ExportParameters_m2873993187
Myf:_Convert__cctor_m926133987
Ajb:__ZN7Hash1288TransferI18StreamedBinaryReadILb1EEEEvRT_
t1f:_Enumerator__ctor_m2816143215_AdjustorThunk
vOe:__ZN11UnityEngine7Connect16PersistentValuesC2Ev
xph:_X509Chain_FindParent_m404663796
SRg:_MissingMemberException__ctor_m2164043278
YPk:__ZL7log2_32j
e5f:_Collection_1_CopyTo_m2282972507_gshared
NIb:__ZN13EmscriptenWWW10OnProgressEPvjj
spg:_BaseVertexEffect__ctor_m358261091
csh:_Interpreter_GetGroupInfo_m312421921
rQb:__Z19TransferField_ArrayI17RemapPPtrTransfer27Converter_UnityEngineObjectEvRK23StaticTransferFieldInfoR31RuntimeSerializationCommandInfoRT0_
dJd:__ZNK5physx2Sc7BodySim13isConnectedToERKNS0_8RigidSimERb
Ixi:__ZL53HMACSHA384_t3026079344_CustomAttributesCacheGeneratorP21CustomAttributesCache
cej:__Z120RuntimeInvoker_Void_t1841601450_Single_t2076509932_Single_t2076509932_Single_t2076509932_Single_t2076509932_Il2CppObjectPK10MethodInfoPvPS2_
GJg:_NumberFormatter_InitDecHexDigits_m1612588520
bje:__ZN14PhysicsManager23VirtualRedirectTransferER17RemapPPtrTransfer
XJg:_IntPtr_System_Runtime_Serialization_ISerializable_GetObjectData_m21554269_AdjustorThunk
zef:_Single_GetHashCode_m3102305584_AdjustorThunk
Y0e:_Array_swap_TisVector3_t2243707580_m3036634038_gshared
WQ:__ZN4FMOD6System9createDSPEP20FMOD_DSP_DESCRIPTIONPPNS_3DSPE
X$h:_Material_HasProperty_m3175512802
RA:__ZN7mecanim9animation26DestroyControllerWorkspaceEPNS0_19ControllerWorkspaceERNS_6memory9AllocatorE
Pnk:_UriParser_set_SchemeName_m3624672465
cN:__ZN4FMOD8ChannelI11EndCallbackEv
L9e:_ToBase64Transform_TransformBlock_m2201454137
Fvc:__ZN8GUIStyle14SetDefaultFontEPN13TextRendering4FontE
Lfi:_OpCode_get_StackBehaviourPop_m3787015663_AdjustorThunk
nik:_PatternCompiler_EmitCount_m3609178511
Nvb:__ZN15QualitySettings23VirtualRedirectTransferER24GenerateTypeTreeTransfer
Trj:_AttributeHelperEngine__cctor_m1775592582
_Yh:_GUIStyle_Internal_GetCursorStringIndex_m1491806746
vPi:__ZL89PointerEventData_t1599784723_CustomAttributesCacheGenerator_U3CpositionU3Ek__BackingFieldP21CustomAttributesCache
X0d:__ZN5physx2Gu32PCMConvexVsMeshContactGeneration35generateTriangleFullContactManifoldERNS0_9TriangleVEjPKjhRKNS0_13PolygonalDataEPNS0_16SupportLocalImplIS2_EEPNS0_12SupportLocalEPNS0_21MeshPersistentContactERjRKNS_6shdfnd3aos6FloatVERNSI_5Vec3VE
Eal:__ZN6il2cpp2os10FileHandleC2Ev
Ioc:__Z59Register_UnityEngine_MonoBehaviour_Internal_CancelInvokeAllv
jzi:__ZL84Encoding_t663144255_CustomAttributesCacheGenerator_Encoding_GetByteCount_m4104502544P21CustomAttributesCache
rH:__ZN14SafeBinaryRead21TransferSTLStyleArrayI22OffsetPtrArrayTransferI9OffsetPtrIN7mecanim12statemachine17ConditionConstantEEEEEvRT_17TransferMetaFlags
nKh:_ObjRef_set_TypeInfo_m1661789743
LWh:_GUISkin_get_box_m533626169
NSd:__ZNK16OBBAABBTest_SIMDclERKN5physx2Sq9BucketBoxE
$$h:_Mathf_Cos_m238853451
RQc:__ZZN10Collider2D15InitializeClassEvEN33FunctorImpl_82kDidRemoveComponent4CallEPviR11MessageData
cse:_UNITY_FT_Request_Metrics
Cja:__ZN7Texture8TransferI18StreamedBinaryReadILb0EEEEvRT_
Pgl:__ZN6il2cpp6icalls8mscorlib6System10Reflection10MonoMethod29get_IsGenericMethodDefinitionEP22Il2CppReflectionMethod
tbl:__ZN6il2cpp2vm6Thread21AllocThreadStaticDataEi
Ozf:_DateTime_YearMonthDayFormats_m4204607055
Uqg:_ColorBlock_set_disabledColor_m3502887543_AdjustorThunk
xil:__ZNK15dense_hashtableINSt3__24pairIK10KeyWrapperINS1_IPKcS4_EEEiEES6_24NamespaceAndNamePairHashN14dense_hash_mapIS6_iS9_26NamespaceAndNamePairEqualsNS0_9allocatorIS8_EEE9SelectKeyESB_SD_E12test_deletedERK24dense_hashtable_iteratorIS8_S6_S9_SF_SB_SD_E
VU:__Z13RegisterClassI13AudioListenerEvv
hEk:_ShieldController_Awake_m531856573
oGk:_InvokableCall_1_Find_m951110817_gshared
kFk:_Aes__ctor_m4020215067
Wz:__ZN22AnimationMixerPlayable11DerivesFromEP11Il2CppClass
xDc:__Z18Transfer_BlittableI9JSONWriteLb0E8Vector3fEvRK29SerializationCommandArgumentsR31RuntimeSerializationCommandInfo
ash:_Interpreter_Eval_m1448443064
Bg:_emscripten_glUniform4i
Pxi:__ZL46MD5_t1507972490_CustomAttributesCacheGeneratorP21CustomAttributesCache
lzd:__ZNK5physx22NpParticleBaseTemplateINS_15PxParticleFluidENS_15NpParticleFluidEE11getGridSizeEv
tvg:_Graphic_OnDisable_m2360886868
$0c:__ZN16RayRTreeCallbackILi0ELb1EED2Ev
Nf:_emscripten_glUniform4f
kwa:__ZN6Object22CheckInstanceIDsLoadedEPii
fk:___unlock
tsl:_GC_default_oom_fn
wbj:__Z74RuntimeInvoker_Void_t1841601450_PlayableU26_t3233213460_Double_t4078015681PK10MethodInfoPvPS2_
h3j:_InternalEnumerator_1_System_Collections_IEnumerator_Reset_m1561424184_AdjustorThunk
LEl:__ZTv0_n12_NSt3__213basic_istreamIcNS_11char_traitsIcEEED1Ev
urc:__Z46RenderTexture_CUSTOM_Internal_SetSRGBReadWriteP12Il2CppObjecth
JMh:_FormatterConverter__ctor_m3958982477
MT:__ZN20SoundChannelInstance19setReverbPropertiesEP29FMOD_REVERB_CHANNELPROPERTIES
Y7j:_InternalEnumerator_1__ctor_m2808001655_AdjustorThunk
n4j:_InternalEnumerator_1_System_Collections_IEnumerator_Reset_m2571770313_AdjustorThunk
Kgi:_FieldInfo_get_UMarshal_m1934544188
u2i:__Z68RuntimeInvoker_Void_t1841601450_IntPtr_t_MonoMethodInfoU26_t16045984PK10MethodInfoPvPS2_
T7j:_InternalEnumerator_1_Dispose_m4229866913_AdjustorThunk
wFh:_DefaultComparer_Equals_m2171836276_gshared
Rhl:__ZN6il2cpp2vm9Exception18GetFormatExceptionEPKc
jlj:__Z56RuntimeInvoker_Void_t1841601450_ResourceInfo_t3933049236PK10MethodInfoPvPS2_
Lvi:__ZL55IMessageSink_t2189618969_CustomAttributesCacheGeneratorP21CustomAttributesCache
Vsc:__Z40Register_UnityEngine_Transform_IsChildOfv
d2c:__ZN5physx3Cct17CapsuleController15setClimbingModeENS_21PxCapsuleClimbingMode4EnumE
OUd:__ZN5physx6shdfnd9atomicAddEPVii
Bsf:_ArrayList_Sort_m923359189
MMj:_Text_CalculateLayoutInputVertical_m1732119136
I7b:__ZN16ReflectionProbes15InitializeClassEv
PDb:__ZNSt3__212basic_stringIcNS_11char_traitsIcEE13stl_allocatorIcL18MemLabelIdentifier66ELi16EEE7reserveEj
yPd:__ZN5physx6shdfnd5ArrayINS_3Scb13MaterialEventENS0_19ReflectionAllocatorIS3_EEE6resizeEjRKS3_
qNa:__ZN9GfxDevice31DrawIndexedNullGeometryIndirectE16GfxPrimitiveTypeP9GfxBuffer15ComputeBufferIDj
I$j:_InternalEnumerator_1_System_Collections_IEnumerator_get_Current_m3088751576_gshared
K_d:__ZNK5physx14SingleAABBTask25updateNumFastMovingShapesEv
jjj:__Z60RuntimeInvoker_Boolean_t3825574718_KeyValuePair_2_t488203048PK10MethodInfoPvPS2_
w3i:__Z78RuntimeInvoker_Void_t1841601450_Int64_t909078037_Il2CppObject_Int64_t909078037PK10MethodInfoPvPS2_
Csj:_Bounds_set_center_m2069004927_AdjustorThunk
E2g:_X509Certificate_GetSubjectName_m2120755276
uyc:__Z46GUIStyle_CUSTOM_Internal_DrawWithTextSelectionP12Il2CppObjectR43MonoInternal_DrawWithTextSelectionArguments
IGd:__ZNK5physx2Cm12DelegateTaskINS_7NpSceneEXadL_ZNS2_12executeSolveEPNS_10PxBaseTaskEEEE7getNameEv
CIi:__ZL58ResourceRequest_t2560315377_CustomAttributesCacheGeneratorP21CustomAttributesCache
HGe:__ZNSt3__218__insertion_sort_3IRNS_6__lessIN2UI14DepthSortEntryES3_EEPS3_EEvT0_S7_T_
Eii:_MonoField_CheckGeneric_m1527550038
Lfe:__ZN5physx17ConvexMeshBuilder16computeGaussMapsEv
yHl:__ZNKSt3__28time_getIcNS_19istreambuf_iteratorIcNS_11char_traitsIcEEEEE13do_date_orderEv
s$g:_AttrListImpl_Add_m130708252
K6g:_ASN1_get_Value_m2229768312
mjg:_BaseInput_get_touchCount_m998724785
VEb:__ZN11TimeManager6UpdateEv
qxa:__ZN6Shader18LoadDefaultShadersEv
pDk:_PixelCamera2D_OnEnable_m50410356
Gzk:_X509Chain_get_Status_m2726750609
Hgd:__ZNK5physx2Sc16ArticulationCore22computeImpulseResponseERNS0_8BodyCoreERNS_6PxVec3ES5_RKNS_9PxcFsDataERKS4_SA_
$Ag:_InputField_get_preferredWidth_m3185355225
l2d:__ZN5physx21PxsBodyTransformVaultC2Ev
TVh:_GUIUtility_get_pixelsPerPoint_m2667928361
S8f:_Collection_1_RemoveItem_m1406181352_gshared
ZPj:_Thread_SetState_m3198426726
Wsf:_ArrayListWrapper_Contains_m1158465965
kMa:__ZN9GfxDevice12UpdateBufferEP9GfxBuffer13GfxBufferMode14GfxBufferLabeljPKvj
J0e:_Array_swap_TisColor32_t874517518_m2203309732_gshared
g0d:__ZL6IsInYZffPPK10VertexInfo
g6g:_BigInteger_op_LessThan_m3825358479
Fge:__ZN5physx19TriangleMeshBuilderD0Ev
NCl:_fflush
Qta:__ZN17LightProbeContext4InitERK16LightmapSettingsRK14RenderSettings
srk:_TextEditor_GetGraphicalLineStart_m2300210041
wof:_Convert_ToInt32_m55151042
CAl:__GLOBAL__sub_I_Error_cpp
O6k:__ZN15dense_hashtableINSt3__24pairIK10KeyWrapperINS1_IPK10MethodInfoP11Il2CppClassEEEjEES9_17ReflectionMapHashIS8_EN14dense_hash_mapIS9_jSD_19ReflectionMapEqualsIS8_ENS0_9allocatorISB_EEE9SelectKeyESG_SI_E16reset_thresholdsEv
Bkk:_Alternation_GetWidth_m4218808325
M6f:_Collection_1_set_Item_m2523116197_gshared
bnj:__Z59RuntimeInvoker_ContactPoint2D_t3659330976_Int32_t2071877448PK10MethodInfoPvPS2_
gua:__ZN9Texture3DD2Ev
Sni:__ZL80Il2CppArray_CustomAttributesCacheGenerator_Array_SetValue_m169741241____indices1P21CustomAttributesCache
Ena:__ZN10ColorRGBAf8TransferI19StreamedBinaryWriteILb0EEEEvRT_
iBg:_U3CCaretBlinkU3Ec__Iterator0_System_Collections_Generic_IEnumeratorU3CobjectU3E_get_Current_m3541562536
nkh:_TypeConverterAttribute__ctor_m4061167050
Zsd:__ZN5physx2CmlsERNS0_12RenderOutputERKNS0_10DebugArrowE
BCj:_Font_add_textureRebuilt_m1282639736
